
NewStack_1_3_0.elf:     file format elf32-avr

Sections:
Idx Name          Size      VMA       LMA       File off  Algn
  0 .text         00005f34  00000000  00000000  00000094  2**1
                  CONTENTS, ALLOC, LOAD, READONLY, CODE
  1 .data         00000136  00800060  00005f34  00005fc8  2**0
                  CONTENTS, ALLOC, LOAD, DATA
  2 .bss          0000044b  00800196  00800196  000060fe  2**0
                  ALLOC
  3 .comment      0000005c  00000000  00000000  000060fe  2**0
                  CONTENTS, READONLY
  4 .note.gnu.avr.deviceinfo 0000003c  00000000  00000000  0000615c  2**2
                  CONTENTS, READONLY
  5 .debug_aranges 00000398  00000000  00000000  00006198  2**3
                  CONTENTS, READONLY, DEBUGGING
  6 .debug_info   000061fd  00000000  00000000  00006530  2**0
                  CONTENTS, READONLY, DEBUGGING
  7 .debug_abbrev 00001794  00000000  00000000  0000c72d  2**0
                  CONTENTS, READONLY, DEBUGGING
  8 .debug_line   00002e5c  00000000  00000000  0000dec1  2**0
                  CONTENTS, READONLY, DEBUGGING
  9 .debug_frame  00000f64  00000000  00000000  00010d20  2**2
                  CONTENTS, READONLY, DEBUGGING
 10 .debug_str    000010d1  00000000  00000000  00011c84  2**0
                  CONTENTS, READONLY, DEBUGGING
 11 .debug_loc    0000527d  00000000  00000000  00012d55  2**0
                  CONTENTS, READONLY, DEBUGGING
 12 .debug_ranges 000003e8  00000000  00000000  00017fd2  2**0
                  CONTENTS, READONLY, DEBUGGING

Disassembly of section .text:

00000000 <__vectors>:
       0:	0c 94 32 0f 	jmp	0x1e64	; 0x1e64 <__ctors_end>
       4:	0c 94 4f 0f 	jmp	0x1e9e	; 0x1e9e <__bad_interrupt>
       8:	0c 94 4f 0f 	jmp	0x1e9e	; 0x1e9e <__bad_interrupt>
       c:	0c 94 ca 1e 	jmp	0x3d94	; 0x3d94 <__vector_3>
      10:	0c 94 4f 0f 	jmp	0x1e9e	; 0x1e9e <__bad_interrupt>
      14:	0c 94 4f 0f 	jmp	0x1e9e	; 0x1e9e <__bad_interrupt>
      18:	0c 94 4f 0f 	jmp	0x1e9e	; 0x1e9e <__bad_interrupt>
      1c:	0c 94 7d 2a 	jmp	0x54fa	; 0x54fa <__vector_7>
      20:	0c 94 4f 0f 	jmp	0x1e9e	; 0x1e9e <__bad_interrupt>
      24:	0c 94 4f 0f 	jmp	0x1e9e	; 0x1e9e <__bad_interrupt>
      28:	0c 94 4f 0f 	jmp	0x1e9e	; 0x1e9e <__bad_interrupt>
      2c:	0c 94 4f 0f 	jmp	0x1e9e	; 0x1e9e <__bad_interrupt>
      30:	0c 94 4f 0f 	jmp	0x1e9e	; 0x1e9e <__bad_interrupt>
      34:	0c 94 18 2c 	jmp	0x5830	; 0x5830 <__vector_13>
      38:	0c 94 4f 0f 	jmp	0x1e9e	; 0x1e9e <__bad_interrupt>
      3c:	0c 94 4f 0f 	jmp	0x1e9e	; 0x1e9e <__bad_interrupt>
      40:	0c 94 4f 0f 	jmp	0x1e9e	; 0x1e9e <__bad_interrupt>
      44:	0c 94 4f 0f 	jmp	0x1e9e	; 0x1e9e <__bad_interrupt>
      48:	0c 94 4f 0f 	jmp	0x1e9e	; 0x1e9e <__bad_interrupt>
      4c:	0c 94 4f 0f 	jmp	0x1e9e	; 0x1e9e <__bad_interrupt>
      50:	0c 94 4f 0f 	jmp	0x1e9e	; 0x1e9e <__bad_interrupt>

00000054 <BASE64CODE>:
      54:	41 42 43 44 45 46 47 48 49 4a 4b 4c 4d 4e 4f 50     ABCDEFGHIJKLMNOP
      64:	51 52 53 54 55 56 57 58 59 5a 61 62 63 64 65 66     QRSTUVWXYZabcdef
      74:	67 68 69 6a 6b 6c 6d 6e 6f 70 71 72 73 74 75 76     ghijklmnopqrstuv
      84:	77 78 79 7a 30 31 32 33 34 35 36 37 38 39 2b 2f     wxyz0123456789+/
      94:	3d 00                                               =.

00000096 <__c.2715>:
      96:	25 63 00                                            %c.

00000099 <__c.2696>:
      99:	0a 0d 54 49 4d 45 3a 20 25 32 69 3a 25 32 69 3a     ..TIME: %2i:%2i:
      a9:	25 32 69 0d 0a 00                                   %2i...

000000af <__c.2688>:
      af:	49 6e 68 61 6c 74 20 64 65 72 20 56 61 72 69 61     Inhalt der Varia
      bf:	62 6c 65 5b 25 32 69 5d 20 3d 20 25 32 69 0d 0a     ble[%2i] = %2i..
	...

000000d0 <__c.2680>:
      d0:	20 20 54 69 6d 65 3a 25 34 69 0d 0a 00                Time:%4i...

000000dd <__c.2678>:
      dd:	20 20 50 4f 52 54 3a 25 34 69 00                      PORT:%4i.

000000e8 <__c.2676>:
      e8:	2e 25 33 69 00                                      .%3i.

000000ed <__c.2674>:
      ed:	2e 25 33 69 00                                      .%3i.

000000f2 <__c.2672>:
      f2:	2e 25 33 69 00                                      .%3i.

000000f7 <__c.2670>:
      f7:	20 20 49 50 3a 25 33 69 00                            IP:%3i.

00000100 <__c.2668>:
     100:	25 32 69 00                                         %2i.

00000104 <__c.2659>:
     104:	20 20 54 69 6d 65 3a 25 34 69 0d 0a 00                Time:%4i...

00000111 <__c.2657>:
     111:	2e 25 33 69 00                                      .%3i.

00000116 <__c.2655>:
     116:	2e 25 33 69 00                                      .%3i.

0000011b <__c.2653>:
     11b:	2e 25 33 69 00                                      .%3i.

00000120 <__c.2651>:
     120:	20 20 49 50 3a 25 33 69 00                            IP:%3i.

00000129 <__c.2649>:
     129:	2e 25 32 78 00                                      .%2x.

0000012e <__c.2647>:
     12e:	2e 25 32 78 00                                      .%2x.

00000133 <__c.2645>:
     133:	2e 25 32 78 00                                      .%2x.

00000138 <__c.2643>:
     138:	2e 25 32 78 00                                      .%2x.

0000013d <__c.2641>:
     13d:	2e 25 32 78 00                                      .%2x.

00000142 <__c.2639>:
     142:	25 32 69 20 20 4d 41 43 3a 25 32 78 00              %2i  MAC:%2x.

0000014f <__c.2633>:
     14f:	45 4e 43 32 38 4a 36 30 2d 56 65 72 73 69 6f 6e     ENC28J60-Version
     15f:	3a 20 25 31 78 0d 0a 00                             : %1x...

00000167 <__c.2628>:
     167:	4d 79 20 4d 41 43 3a 20 25 32 78 3a 25 32 78 3a     My MAC: %2x:%2x:
     177:	25 32 78 3a 25 32 78 3a 25 32 78 3a 25 32 78 0d     %2x:%2x:%2x:%2x.
     187:	0a 00                                               ..

00000189 <__c.2623>:
     189:	52 6f 75 74 65 72 20 49 50 3a 20 25 31 69 2e 25     Router IP: %1i.%
     199:	31 69 2e 25 31 69 2e 25 31 69 0d 0a 00              1i.%1i.%1i...

000001a6 <__c.2618>:
     1a6:	4e 45 54 4d 41 53 4b 3a 20 25 31 69 2e 25 31 69     NETMASK: %1i.%1i
     1b6:	2e 25 31 69 2e 25 31 69 0d 0a 00                    .%1i.%1i...

000001c1 <__c.2601>:
     1c1:	4d 79 20 49 50 3a 20 25 31 69 2e 25 31 69 2e 25     My IP: %1i.%1i.%
     1d1:	31 69 2e 25 31 69 0d 0a 00                          1i.%1i...

000001da <helptext>:
     1da:	52 45 53 45 54 20 20 2d 20 72 65 73 65 74 20 74     RESET  - reset t
     1ea:	68 65 20 41 56 52 20 2d 20 43 6f 6e 74 72 6f 6c     he AVR - Control
     1fa:	6c 65 72 0d 0a 41 52 50 20 20 20 20 2d 20 6c 69     ler..ARP    - li
     20a:	73 74 20 74 68 65 20 41 52 50 20 74 61 62 6c 65     st the ARP table
     21a:	0d 0a 54 43 50 20 20 20 20 2d 20 6c 69 73 74 20     ..TCP    - list 
     22a:	74 68 65 20 74 63 70 20 74 61 62 6c 65 0d 0a 49     the tcp table..I
     23a:	50 20 20 20 20 20 2d 20 6c 69 73 74 2f 63 68 61     P     - list/cha
     24a:	6e 67 65 20 69 70 0d 0a 4e 45 54 20 20 20 20 2d     nge ip..NET    -
     25a:	20 6c 69 73 74 2f 63 68 61 6e 67 65 20 6e 65 74      list/change net
     26a:	6d 61 73 6b 0d 0a 52 4f 55 54 45 52 20 2d 20 6c     mask..ROUTER - l
     27a:	69 73 74 2f 63 68 61 6e 67 65 20 72 6f 75 74 65     ist/change route
     28a:	72 20 69 70 0d 0a 4e 54 50 20 20 20 20 2d 20 6c     r ip..NTP    - l
     29a:	69 73 74 2f 63 68 61 6e 67 65 20 4e 54 50 0d 0a     ist/change NTP..
     2aa:	4e 54 50 52 20 20 20 2d 20 4e 54 50 20 52 65 66     NTPR   - NTP Ref
     2ba:	72 65 73 68 0d 0a 4d 41 43 20 20 20 20 2d 20 6c     resh..MAC    - l
     2ca:	69 73 74 20 4d 41 43 2d 61 64 64 72 65 73 73 0d     ist MAC-address.
     2da:	0a 56 45 52 20 20 20 20 2d 20 6c 69 73 74 20 65     .VER    - list e
     2ea:	6e 63 20 76 65 72 73 69 6f 6e 20 6e 75 6d 62 65     nc version numbe
     2fa:	72 0d 0a 53 56 20 20 20 20 20 2d 20 73 65 74 20     r..SV     - set 
     30a:	76 61 72 69 61 62 6c 65 0d 0a 50 49 4e 47 20 20     variable..PING  
     31a:	20 2d 20 73 65 6e 64 20 50 69 6e 67 0d 0a 54 49      - send Ping..TI
     32a:	4d 45 20 20 20 2d 20 67 65 74 20 74 69 6d 65 0d     ME   - get time.
     33a:	0a 48 45 4c 50 20 20 20 2d 20 70 72 69 6e 74 20     .HELP   - print 
     34a:	48 65 6c 70 74 65 78 74 0d 0a 3f 20 20 20 20 20     Helptext..?     
     35a:	20 2d 20 70 72 69 6e 74 20 48 65 6c 70 74 65 78      - print Helptex
     36a:	74 0d 0a 00                                         t...

0000036e <__c.2591>:
     36e:	6c 65 64 6f 66 66 2e 67 69 66 00                    ledoff.gif.

00000379 <__c.2589>:
     379:	6c 65 64 6f 6e 2e 67 69 66 00                       ledon.gif.

00000383 <__c.2575>:
	...

00000385 <__c.2573>:
     385:	63 68 65 63 6b 65 64 00                             checked.

0000038d <__c.2520>:
     38d:	50 4f 53 54 00                                      POST.

00000392 <Page0>:
     392:	34 30 31 20 55 6e 61 75 74 68 6f 72 69 7a 65 64     401 Unauthorized
     3a2:	25 45 4e 44 00                                      %END.

000003a7 <http_header5>:
     3a7:	48 54 54 50 2f 31 2e 30 20 32 30 30 20 44 6f 63     HTTP/1.0 200 Doc
     3b7:	75 6d 65 6e 74 20 66 6f 6c 6c 6f 77 73 0d 0a 53     ument follows..S
     3c7:	65 72 76 65 72 3a 20 41 56 52 5f 53 6d 61 6c 6c     erver: AVR_Small
     3d7:	5f 57 65 62 73 65 72 76 65 72 0d 0a 43 61 63 68     _Webserver..Cach
     3e7:	65 2d 43 6f 6e 74 72 6f 6c 3a 20 6d 61 78 2d 61     e-Control: max-a
     3f7:	67 65 3d 36 30 30 30 30 30 30 0d 0a 43 6f 6e 74     ge=6000000..Cont
     407:	65 6e 74 2d 54 79 70 65 3a 20 74 65 78 74 2f 63     ent-Type: text/c
     417:	73 73 0d 0a 0d 0a 00                                ss.....

0000041e <http_header4>:
     41e:	48 54 54 50 2f 31 2e 30 20 32 30 30 20 44 6f 63     HTTP/1.0 200 Doc
     42e:	75 6d 65 6e 74 20 66 6f 6c 6c 6f 77 73 0d 0a 53     ument follows..S
     43e:	65 72 76 65 72 3a 20 41 56 52 5f 53 6d 61 6c 6c     erver: AVR_Small
     44e:	5f 57 65 62 73 65 72 76 65 72 0d 0a 43 61 63 68     _Webserver..Cach
     45e:	65 2d 43 6f 6e 74 72 6f 6c 3a 20 6d 61 78 2d 61     e-Control: max-a
     46e:	67 65 3d 36 30 30 30 30 30 30 0d 0a 43 6f 6e 74     ge=6000000..Cont
     47e:	65 6e 74 2d 54 79 70 65 3a 20 69 6d 61 67 65 2f     ent-Type: image/
     48e:	67 69 66 0d 0a 0d 0a 00                             gif.....

00000496 <http_header3>:
     496:	48 54 54 50 2f 31 2e 30 20 32 30 30 20 44 6f 63     HTTP/1.0 200 Doc
     4a6:	75 6d 65 6e 74 20 66 6f 6c 6c 6f 77 73 0d 0a 53     ument follows..S
     4b6:	65 72 76 65 72 3a 20 41 56 52 5f 53 6d 61 6c 6c     erver: AVR_Small
     4c6:	5f 57 65 62 73 65 72 76 65 72 0d 0a 43 6f 6e 74     _Webserver..Cont
     4d6:	65 6e 74 2d 54 79 70 65 3a 20 69 6d 61 67 65 2f     ent-Type: image/
     4e6:	6a 70 65 67 0d 0a 0d 0a 00                          jpeg.....

000004ef <http_header2>:
     4ef:	48 54 54 50 2f 31 2e 30 20 34 30 31 20 55 6e 61     HTTP/1.0 401 Una
     4ff:	75 74 68 6f 72 69 7a 65 64 0d 0a 53 65 72 76 65     uthorized..Serve
     50f:	72 3a 20 41 56 52 5f 53 6d 61 6c 6c 5f 57 65 62     r: AVR_Small_Web
     51f:	73 65 72 76 65 72 0d 0a 57 57 57 2d 41 75 74 68     server..WWW-Auth
     52f:	65 6e 74 69 63 61 74 65 3a 20 42 61 73 69 63 20     enticate: Basic 
     53f:	72 65 61 6c 6d 3d 22 4e 65 65 64 50 61 73 73 77     realm="NeedPassw
     54f:	6f 72 64 22 0d 0a 43 6f 6e 74 65 6e 74 2d 54 79     ord"..Content-Ty
     55f:	70 65 3a 20 74 65 78 74 2f 68 74 6d 6c 0d 0a 0d     pe: text/html...
     56f:	0a 00                                               ..

00000571 <http_header1>:
     571:	48 54 54 50 2f 31 2e 30 20 32 30 30 20 44 6f 63     HTTP/1.0 200 Doc
     581:	75 6d 65 6e 74 20 66 6f 6c 6c 6f 77 73 0d 0a 53     ument follows..S
     591:	65 72 76 65 72 3a 20 41 56 52 5f 53 6d 61 6c 6c     erver: AVR_Small
     5a1:	5f 57 65 62 73 65 72 76 65 72 0d 0a 43 6f 6e 74     _Webserver..Cont
     5b1:	65 6e 74 2d 54 79 70 65 3a 20 74 65 78 74 2f 68     ent-Type: text/h
     5c1:	74 6d 6c 0d 0a 0d 0a 00                             tml.....

000005c9 <http_header0>:
     5c9:	48 54 54 50 2f 31 2e 30 20 32 30 30 20 44 6f 63     HTTP/1.0 200 Doc
     5d9:	75 6d 65 6e 74 20 66 6f 6c 6c 6f 77 73 0d 0a 53     ument follows..S
     5e9:	65 72 76 65 72 3a 20 41 56 52 5f 53 6d 61 6c 6c     erver: AVR_Small
     5f9:	5f 57 65 62 73 65 72 76 65 72 0d 0a 43 6f 6e 74     _Webserver..Cont
     609:	65 6e 74 2d 54 79 70 65 3a 20 74 65 78 74 2f 70     ent-Type: text/p
     619:	6c 61 69 6e 0d 0a 0d 0a 00                          lain.....

00000622 <bild_rakete>:
     622:	47 49 46 38 39 61 5a 00 5c 00 a2 04 00 79 79 d8     GIF89aZ.\....yy.
     632:	f6 f4 e1 c9 c9 e0 9c 98 d8 ff ff ff f4 f6 b0 f9     ................
     642:	fd 7c a6 a4 8e 21 f9 04 01 00 00 04 00 2c 00 00     .|...!.......,..
     652:	00 00 5a 00 5c 00 00 03 ff 48 ba dc fe 2e 2c 49     ..Z.\....H....,I
     662:	82 a5 b3 5a 21 b4 96 18 06 8d 64 69 7a 8d 85 a6     ...Z!.....diz...
     672:	5c a5 a8 8f 78 ce b4 29 bf 99 30 0c 54 1f d7 c0     \...x..)..0.T...
     682:	e0 0b 36 c4 65 08 03 c0 c0 18 e8 4c 6e c2 28 e9     ..6.e......Ln.(.
     692:	c2 2c 10 61 80 2c 2e b0 93 7a 69 a0 4b 58 61 4d     .,.a.,...zi.KXaM
     6a2:	55 b2 cb 85 40 09 83 7e df 9f de 6e 27 08 5f d6     U...@..~...n'._.
     6b2:	ec 57 b2 fe 72 c2 83 6e 16 56 20 49 3b 59 7c 61     .W..r..n.V I;Y|a
     6c2:	78 3c 15 49 79 4d 7c 7f 80 44 2f 05 65 5c 4a 0b     x<.IyM|..D/.e\J.
     6d2:	7b 4f 8a 99 68 12 6b 7e 91 33 62 2e 13 95 9f 8e     {O..h.k~.3b.....
     6e2:	4d 59 22 8a 1b 9e 4d 7b 6e 66 a2 71 22 01 95 05     MY"...M{nf.q"...
     6f2:	67 75 03 3a af 13 9a 04 78 1d 97 69 a5 b4 53 62     gu.:....x..i..Sb
     702:	b6 b8 16 00 bb 59 9e 4f 3b 20 6b 3c aa bc c6 47     .....Y.O; k<...G
     712:	c7 0c 17 83 20 15 cb 01 ab c1 07 07 90 df 05 2d     .... ..........-
     722:	15 3a 20 87 a3 b2 52 82 a7 21 05 06 a7 85 f1 76     .: ...R..!.....v
     732:	b7 dd 1a 75 e8 e5 b6 93 b0 45 0a 03 ce 14 bd 41     ...u.....E.....A
     742:	b1 e4 a9 08 60 a0 5e 08 7c 43 64 f8 78 57 63 e2     ....`.^.|Cd.xWc.
     752:	b9 65 94 e8 d5 3b d3 0c ff 1c 88 86 95 9e dc f2     .e...;..........
     762:	a1 a0 0e ac 39 73 9c 48 8c 71 65 24 a1 45 fa 1c     ....9s.H.qe$.E..
     772:	6a a8 04 12 15 00 8f b7 40 e6 a2 60 a5 9b 0e 43     j.......@..`...C
     782:	4a 9e 3d e3 45 d1 86 3e 66 8e 34 26 d3 b8 f1 d2     J.=.E..>f.4&....
     792:	81 53 df 1a ca bc 50 ae 97 d0 43 1c 1a 35 0b 18     .S....P...C..5..
     7a2:	45 9f 95 a1 fd 6a 4e 90 ba 33 cb 01 7d 51 1d 3e     E....jN..3..}Q.>
     7b2:	d2 2a 94 68 8f 4b 5b 6d 40 00 78 50 11 9b 9c 21     .*.h.K[m@.xP...!
     7c2:	3f 8a 4d 38 08 97 d5 ab bc 4c 4e e8 40 cd dc 08     ?.M8.....LN.@...
     7d2:	2a db 20 e0 6a 64 88 17 cd 41 15 c8 5a d8 03 4e     *. .jd...A..Z..N
     7e2:	c0 01 b6 87 da 20 a9 c3 81 83 12 95 46 be e8 63     ..... ......F..c
     7f2:	2c 54 80 c6 53 4c cb 91 13 40 d6 0a 1e 34 90 30     ,T..SL...@...4.0
     802:	f0 a0 16 b8 5d 9c 6c 53 04 fe 6a 86 f9 a9 ce d4     ....].lS..j.....
     812:	e5 68 d6 3b 35 d4 1b 15 09 85 b0 66 8e e0 42 56     .h.;5......f..BV
     822:	b2 e3 5b 92 70 e9 dd fa f7 63 72 95 5e a7 21 d5     ..[.p....cr.^.!.
     832:	44 95 a7 7b 22 b9 23 73 c9 1d 39 00 58 cd d0 30     D..{".#s..9.X..0
     842:	05 29 b5 3d f6 ec cf 86 25 4e fe b9 d1 73 85 2b     .).=....%N...s.+
     852:	e6 c6 53 78 61 55 60 61 ff eb b5 d7 5e 01 c1 55     ..SxaU`a....^..U
     862:	72 40 7c 0f 55 03 56 2f 1b e0 82 13 18 5e 61 24     r@|.U.V/.....^a$
     872:	cc 1c 43 ad 67 a1 81 3d 3d a5 9d 1c 48 f0 32 14     ..C.g..==...H.2.
     882:	01 99 71 e0 a0 3c 15 cd 34 a2 77 57 79 72 da 7a     ..q..<..4.wWyr.z
     892:	67 79 15 5c 38 f1 bd 70 de 6b 5b 09 13 c0 59 27     gy.\8..p.k[...Y'
     8a2:	3a f7 03 37 23 fe 44 5f 85 02 36 74 a0 69 fe 3c     :..7#.D_..6t.i.<
     8b2:	f5 d5 87 c8 79 86 20 6c ef ed 03 cf 7e 12 d6 87     ....y. l....~...
     8c2:	c6 79 41 d6 43 8e 95 37 59 71 a0 50 14 50 83 20     .yA.C..7Yq.P.P. 
     8d2:	35 16 f8 06 99 6e 42 c4 54 53 2c ae b0 56 e5 63     5....nB.TS,..V.c
     8e2:	00 b4 a8 15 63 ea b4 e5 dd 2d ef 8d 51 d4 2c 89     ....c....-..Q.,.
     8f2:	e5 44 96 5d 42 05 28 5c 43 9c 31 56 07 82 48 3c     .D.]B.(\C.1V..H<
     902:	33 d9 56 4d 32 57 62 0a f1 90 55 08 5b a6 91 85     3.VM2Wb...U.[...
     912:	9d 90 e8 30 e6 ca 2b 9c 30 68 59 4f c6 55 f4 dc     ...0..+.0hYO.U..
     922:	0d 66 1a 30 64 56 66 31 45 a0 98 5a c6 08 17 1a     .f.0dVf1E..Z....
     932:	25 11 95 84 86 26 71 f5 9c 19 50 e6 f8 c4 41 05     %....&q...P...A.
     942:	60 b6 ca 80 a6 b2 45 c1 a3 99 75 07 63 76 6d f0     `.....E...u.cvm.
     952:	38 a2 93 db 1c 7b ac 18 ff 8f f9 08 54 a4 41 12     8....{......T.A.
     962:	78 95 0b b1 14 32 0c 1e 46 da e1 20 af 24 ea 37     x....2..F.. .$.7
     972:	a2 80 ca c2 d8 99 b5 7e 0a e3 8b 74 c1 3c 6a 15     .......~...t.<j.
     982:	91 3d 05 d8 da 98 4f b0 f4 a7 4e 96 b1 ab 88 56     .=....O...N....V
     992:	be ed 69 df 67 bf 02 10 4c 8a 86 6e bb 26 b2 c5     ..i.g...L..n.&..
     9a2:	ca ea 15 48 34 66 7b d9 b8 87 9c f6 9a 35 54 ec     ...H4f{......5T.
     9b2:	01 70 a9 55 0e 47 0a 9e 57 14 01 25 8d 6d 1a 59     .p.U.G..W..%.m.Y
     9c2:	18 8d cb c0 09 a6 0b 1c 6f d5 c4 a4 d1 96 81 5b     ........o......[
     9d2:	62 cc d9 52 52 85 a7 56 a2 6b 96 d2 f2 4b 4d 29     b..RR..V.k...KM)
     9e2:	34 3a e6 2e af c9 cc 45 e6 0f 71 b2 01 d2 01 f5     4:.....E..q.....
     9f2:	e8 6a e4 96 e2 c4 f2 72 71 a7 55 dc cd c5 9e 7e     .j.....rq.U....~
     a02:	ca ce 56 b8 10 6d 40 ce 05 be f9 b2 13 34 b2 eb     ..V..m@......4..
     a12:	1a 39 4d 3e 8d 4f cf 2d d7 9a 23 9a b8 0c fd 2a     .9M>.O.-..#....*
     a22:	bb 48 c7 05 0a 47 66 dd 62 d9 96 55 85 1d 61 b8     .H...Gf.b..U..a.
     a32:	0b 35 d7 e8 c0 1e 1f f8 cf 85 b8 e6 3a 25 d7 e7     .5..........:%..
     a42:	ad 1a a9 6b 6e 55 6d f5 80 03 f3 c7 6c da 55 1a     ...knUm.....l.U.
     a52:	59 29 d8 57 ae d9 c8 4f ff bf fc 95 2f e5 94 43     Y).W...O..../..C
     a62:	5e 31 7b 39 ce 1a d1 b1 55 3d f2 c8 dc e0 a2 e3     ^1{9....U=......
     a72:	09 26 2a 68 1e a0 88 a7 fe 9d b2 e3 52 bb 7c eb     .&*h........R.|.
     a82:	20 73 73 6e 64 b4 5b 32 13 1b 5c 44 46 db d0 a1      ssnd.[2..\DF...
     a92:	f9 e2 5d 82 8e 79 67 44 d3 e2 03 8a ab ce 22 0a     ..]..ygD......".
     aa2:	5c 6e aa e7 c3 c7 e7 a0 e8 de 00 b1 d0 e3 6b 0e     \n............k.
     ab2:	78 39 72 d0 c3 c8 c3 8a 93 12 0d 5f c3 0f de 89     x9r........_....
     ac2:	8d 32 02 37 ee f1 33 24 2f 81 94 98 ef d5 5f 95     .2.7..3$/....._.
     ad2:	56 d0 0e 47 b0 7e 2c 5f f4 b9 90 1a aa 1f ab d4     V..G.~,_........
     ae2:	60 9e 7c e9 ef 46 47 6b 5b 9b f2 67 1d a9 f9 cc     `.|..FGk[..g....
     af2:	7f ff 93 0a 76 e6 86 a2 d8 f0 e2 55 01 5a 8d a9     ....v......U.Z..
     b02:	74 37 af d9 89 ed 2d a3 eb e0 ff d0 91 1d 67 d0     t7....-.......g.
     b12:	81 01 ad e0 dd bc 8e 55 8f 08 86 4e 6f ca 8a e1     .......U...No...
     b22:	63 36 28 b9 09 85 42 7a 11 74 a1 0c f1 b6 bd bb     c6(...Bz.t......
     b32:	d1 0e 4a 8c 1b 1a 1b 38 10 86 86 e5 50 87 a8 b9     ..J....8....P...
     b42:	cf a7 22 20 3a bd 85 2a 48 30 6a dd d4 76 77 44     .." :..*H0j..vwD
     b52:	1d e6 ad 76 ea 63 94 9e ff 2a 76 89 d6 a5 eb 33     ...v.c...*v....3
     b62:	3b 63 4f 15 6b 92 3d a8 e1 c9 04 d4 ab 92 30 4a     ;cO.k.=.......0J
     b72:	02 17 03 02 50 7f 22 1c a1 ca 7e 16 af c3 ec 2d     ....P."...~....-
     b82:	75 92 61 15 7a d8 60 21 c9 51 6e 8c 3a e1 8a f6     u.a.z.`!.Qn.:...
     b92:	0e 96 ba b4 11 cb 50 87 2a 5c 0c 75 f7 b9 6f b5     ......P.*\.u..o.
     ba2:	26 7b 92 e8 a0 b2 84 f8 93 14 d5 41 77 c1 d9 54     &{.........Aw..T
     bb2:	1a b9 b5 37 8f 94 08 88 18 e9 a4 22 2a f9 8c 00     ...7......."*...
     bc2:	2e 90 54 03 10 8e 6b e2 08 99 5a 91 d1 1d 3e b4     ..T...k...Z...>.
     bd2:	c4 4c c8 d2 16 54 4a 4e 75 6e 42 5f ec 82 17 2d     .L...TJNunB_...-
     be2:	f6 31 05 31 3e c3 62 06 b6 68 00 5d 71 86 98 aa     .1.1>.b..h.]q...
     bf2:	4b 65 01 86 62 96 dc b1 92 24 fb 21 1b 4b 7a e6     Ke..b....$.!.Kz.
     c02:	32 64 4e e9 2a 6e 04 49 47 96 59 1a 7d cc ed 99     2dN.*n.IG.Y.}...
     c12:	47 70 a0 1d a1 d3 80 15 82 02 33 8e e1 1d 6b 6a     Gp........3...kj
     c22:	36 00 03 62 c8 91 3a 99 26 30 73 13 10 64 de 88     6..b..:.&0s..d..
     c32:	07 80 b1 4c e4 8a 47 0e 62 5a 89 8c 2b 7c 48 44     ...L..G.bZ..+|HD
     c42:	44 63 21 df d1 c6 3f 37 99 9d 75 b8 f5 48 41 f0     Dc!...?7..u..HA.
     c52:	0a 68 80 30 91 64 54 71 ff 23 25 5c ae 9d 3b 0b     .h.0.dTq.#%\..;.
     c62:	e3 bb 4c 35 04 55 ce 11 0e 66 bb 03 0f 86 64 ad     ..L5.U...f....d.
     c72:	dd c5 b1 3a 13 35 d5 3c 66 f8 d1 ae 18 ab 58 5b     ...:.5.<f.....X[
     c82:	39 44 7c bc e6 27 86 02 54 a5 5b 98 a1 20 07 79     9D|..'..T.[.. .y
     c92:	94 b7 b4 93 18 36 62 21 4a 6b 52 50 33 85 a4 14     .....6b!JkRP3...
     ca2:	11 9a a7 24 66 75 12 ef 0c aa 4d 2b 5a 61 41 ff     ...$fu....M+ZaA.
     cb2:	d4 0d 43 42 b3 20 4f 22 9b e9 d0 a3 20 a8 02 34     ..CB. O".... ..4
     cc2:	a5 60 25 63 27 03 91 45 79 02 73 21 df a3 86 2a     .`%c'..Ey.s!...*
     cd2:	1d fa 55 b1 4a c6 14 81 0c 8d 5c ff 10 02 1b fd     ..U.J.....\.....
     ce2:	44 4f 55 0d ab 5a b6 98 8b 8c 58 2c 04 da 88 c0     DOU..Z....X,....
     cf2:	1a 61 11 16 85 ac 68 ac b3 94 89 f2 a0 12 58 a4     .a....h.......X.
     d02:	12 22 58 2d c0 2b b3 c4 2a d9 c4 ce f1 a5 2b 39     ."X-.+..*.....+9
     d12:	06 7a 04 73 bb bd 4a 96 1b 62 01 01 46 b6 70 14     .z.s..J..b..F.p.
     d22:	45 95 69 1b 5d b2 d6 27 22 1b a1 5b ed f5 1c 8a     E.i.]..'"..[....
     d32:	bd 88 2c 6b 51 d6 13 1c e7 24 a0 e9 8e 89 64 e9     ..,kQ....$....d.
     d42:	d0 cb e2 e5 b6 58 75 62 63 7b e1 96 fe 8d cd b5     .....Xubc{......
     d52:	1f fd 6d b2 ba e5 c4 da 5b e6 46 1d 88 e8 5f 08     ..m.....[.F..._.
     d62:	79 eb 15 5f 22 e6 b8 2b 13 45 35 41 f8 96 9e c2     y.._"..+.E5A....
     d72:	90 b1 ca a3 4b 4b 03 2b 50 63 40 41 10 9a b9 88     ....KK.+Pc@A....
     d82:	75 49 6b c6 c6 9a 96 4c e8 15 6f 5f 6f 75 d6 f6     uIk....L..o_ou..
     d92:	ba 77 a9 a0 02 6f 47 eb a9 d4 fb 9e 96 89 06 0b     .w...oG.........
     da2:	b0 73 fd 6b 94 f3 f6 97 c0 8d dd a9 7d 11 4c 5e     .s.k........}.L^
     db2:	e4 21 38 01 00 3b 25 45 4e 44                       .!8..;%END

00000dbc <bild_balken>:
     dbc:	47 49 46 38 39 61 02 00 0a 00 a2 00 00 a2 a5 ed     GIF89a..........
     dcc:	84 8f e5 66 7c dd 49 60 d6 21 44 da fe 01 02 00     ...f|.I`.!D.....
     ddc:	00 00 00 00 00 21 f9 04 05 14 00 05 00 2c 00 00     .....!.......,..
     dec:	00 00 02 00 0a 00 00 03 0a 48 34 23 12 01 48 00     .........H4#..H.
     dfc:	1d 53 09 00 3b 25 45 4e 44                          .S..;%END

00000e05 <led_off>:
     e05:	47 49 46 38 39 61 11 00 11 00 a2 07 00 57 56 57     GIF89a.......WVW
     e15:	69 69 69 7e 7e 7e 90 91 91 b0 b0 b0 c8 c8 c8 e7     iii~~~..........
     e25:	e7 e7 ff ff ff 21 f9 04 01 00 00 07 00 2c 00 00     .....!.......,..
     e35:	00 00 11 00 11 00 00 03 6f 78 aa 56 45 b0 ac 79     ........ox.VE..y
     e45:	4c 73 70 68 39 ad 19 01 20 06 42 49 2c 56 41 6a     Lsph9... .BI,VAj
     e55:	43 19 90 01 67 05 03 44 68 a5 f0 0a 55 d1 12 8e     C...g..Dh...U...
     e65:	47 cb a5 03 aa 6a 85 c6 2d a7 a3 39 00 48 cc b0     G....j..-..9.H..
     e75:	34 82 40 6b 99 a9 40 04 b0 0a 58 38 66 15 c4 2c     4.@k..@...X8f..,
     e85:	bb 00 02 9f ce 9c 23 75 0f 2d 12 5b 07 08 28 0a     ......#u.-.[..(.
     e95:	2e 79 3b f4 56 10 76 7c 75 7c 27 13 78 2f 5c 55     .y;.V.v|u|'.x/\U
     ea5:	14 0b 37 21 24 84 0b 09 00 3b 25 45 4e 44           ..7!$....;%END

00000eb3 <led_on>:
     eb3:	47 49 46 38 39 61 11 00 11 00 a2 07 00 62 62 62     GIF89a.......bbb
     ec3:	19 ad 21 21 e2 2c a5 a5 a5 64 e6 6b a5 f3 a9 d5     ..!!.,...d.k....
     ed3:	d5 d5 ff ff ff 21 f9 04 01 00 00 07 00 2c 00 00     .....!.......,..
     ee3:	00 00 11 00 11 00 00 03 60 78 aa d6 f3 66 c9 d3     ........`x...f..
     ef3:	ea bb 51 56 12 7a 17 00 30 2c 4d f1 09 a8 d0 85     ..QV.z..0,M.....
     f03:	59 13 08 44 4c a4 6a 48 19 2a 51 ec 73 ba 0e 2e     Y..DL.jH.*Q.s...
     f13:	d8 ae 10 a3 05 44 41 1d 8f 56 13 0d 5e b2 a2 31     .....DA..V..^..1
     f23:	f4 78 a1 7a cc a3 d3 ca 9c 02 0c 4f 6e f7 77 a8     .x.z.......On.w.
     f33:	76 7d 36 4a e8 e4 d3 8e 14 83 b5 c7 43 9d 18 42     v}6J........C..B
     f43:	f8 fc 7b 52 8e e3 f7 0a 09 00 3b 25 45 4e 44        ..{R......;%END

00000f52 <Page3>:
     f52:	62 6f 64 79 7b 6d 61 72 67 69 6e 3a 20 34 30 70     body{margin: 40p
     f62:	78 3b 7d 20 62 6f 64 79 2c 70 2c 64 69 76 2c 68     x;} body,p,div,h
     f72:	31 2c 68 32 2c 74 64 2c 74 68 7b 66 6f 6e 74 2d     1,h2,td,th{font-
     f82:	66 61 6d 69 6c 79 3a 73 61 6e 73 2d 73 65 72 69     family:sans-seri
     f92:	66 3b 66 6f 6e 74 2d 73 69 7a 65 3a 31 31 70 78     f;font-size:11px
     fa2:	7d 68 31 7b 66 6f 6e 74 2d 73 69 7a 65 3a 32 30     }h1{font-size:20
     fb2:	70 78 3b 63 6f 6c 6f 72 3a 77 68 69 74 65 3b 20     px;color:white; 
     fc2:	62 61 63 6b 67 72 6f 75 6e 64 2d 63 6f 6c 6f 72     background-color
     fd2:	3a 23 39 36 42 31 31 43 3b 6d 61 72 67 69 6e 3a     :#96B11C;margin:
     fe2:	31 70 78 3b 70 61 64 64 69 6e 67 3a 35 70 78 3b     1px;padding:5px;
     ff2:	74 65 78 74 2d 61 6c 69 67 6e 3a 63 65 6e 74 65     text-align:cente
    1002:	72 3b 7d 68 32 7b 66 6f 6e 74 2d 73 69 7a 65 3a     r;}h2{font-size:
    1012:	31 38 70 78 3b 63 6f 6c 6f 72 3a 23 39 36 42 31     18px;color:#96B1
    1022:	31 43 7d 70 2c 68 32 7b 6d 61 72 67 69 6e 3a 30     1C}p,h2{margin:0
    1032:	70 78 30 70 78 35 70 78 30 70 78 7d 69 6d 67 7b     px0px5px0px}img{
    1042:	62 6f 72 64 65 72 3a 30 7d 68 72 7b 63 6f 6c 6f     border:0}hr{colo
    1052:	72 3a 73 69 6c 76 65 72 3b 20 62 61 63 6b 67 72     r:silver; backgr
    1062:	6f 75 6e 64 2d 63 6f 6c 6f 72 3a 73 69 6c 76 65     ound-color:silve
    1072:	72 3b 62 6f 72 64 65 72 3a 30 3b 68 65 69 67 68     r;border:0;heigh
    1082:	74 3a 31 70 78 7d 23 6e 61 76 7b 66 6f 6e 74 2d     t:1px}#nav{font-
    1092:	73 69 7a 65 3a 20 31 36 70 78 3b 20 62 61 63 6b     size: 16px; back
    10a2:	67 72 6f 75 6e 64 2d 63 6f 6c 6f 72 3a 73 69 6c     ground-color:sil
    10b2:	76 65 72 3b 6d 61 72 67 69 6e 3a 31 70 78 3b 70     ver;margin:1px;p
    10c2:	61 64 64 69 6e 67 3a 35 70 78 3b 66 6f 6e 74 2d     adding:5px;font-
    10d2:	77 65 69 67 68 74 3a 62 6f 6c 64 7d 23 6e 61 76     weight:bold}#nav
    10e2:	20 61 2c 20 23 74 61 69 6c 20 61 7b 63 6f 6c 6f      a, #tail a{colo
    10f2:	72 3a 77 68 69 74 65 3b 20 70 61 64 64 69 6e 67     r:white; padding
    1102:	3a 31 30 70 78 3b 74 65 78 74 2d 64 65 63 6f 72     :10px;text-decor
    1112:	61 74 69 6f 6e 3a 6e 6f 6e 65 7d 23 6e 61 76 20     ation:none}#nav 
    1122:	61 3a 68 6f 76 65 72 2c 23 74 61 69 6c 20 61 3a     a:hover,#tail a:
    1132:	68 6f 76 65 72 7b 74 65 78 74 2d 64 65 63 6f 72     hover{text-decor
    1142:	61 74 69 6f 6e 3a 75 6e 64 65 72 6c 69 6e 65 7d     ation:underline}
    1152:	23 74 61 69 6c 7b 20 63 6f 6c 6f 72 3a 77 68 69     #tail{ color:whi
    1162:	74 65 3b 20 62 61 63 6b 67 72 6f 75 6e 64 2d 63     te; background-c
    1172:	6f 6c 6f 72 3a 73 69 6c 76 65 72 3b 74 65 78 74     olor:silver;text
    1182:	2d 61 6c 69 67 6e 3a 63 65 6e 74 65 72 3b 70 61     -align:center;pa
    1192:	64 64 69 6e 67 3a 35 70 78 7d 23 6d 61 69 6e 7b     dding:5px}#main{
    11a2:	74 65 78 74 2d 61 6c 69 67 6e 3a 63 65 6e 74 65     text-align:cente
    11b2:	72 3b 6d 61 72 67 69 6e 3a 32 30 70 78 7d 2e 63     r;margin:20px}.c
    11c2:	6c 65 61 72 7b 63 6c 65 61 72 3a 6c 65 66 74 7d     lear{clear:left}
    11d2:	2e 74 65 6d 70 54 62 6c 20 7b 74 61 62 6c 65 2d     .tempTbl {table-
    11e2:	6c 61 79 6f 75 74 3a 61 75 74 6f 3b 62 6f 72 64     layout:auto;bord
    11f2:	65 72 2d 73 70 61 63 69 6e 67 3a 30 7d 2e 74 65     er-spacing:0}.te
    1202:	6d 70 54 62 6c 20 74 64 7b 74 65 78 74 2d 61 6c     mpTbl td{text-al
    1212:	69 67 6e 3a 63 65 6e 74 65 72 3b 70 61 64 64 69     ign:center;paddi
    1222:	6e 67 3a 37 70 78 7d 2e 74 65 6d 70 54 62 6c 20     ng:7px}.tempTbl 
    1232:	74 68 7b 62 61 63 6b 67 72 6f 75 6e 64 2d 63 6f     th{background-co
    1242:	6c 6f 72 3a 73 69 6c 76 65 72 7d 25 45 4e 44 00     lor:silver}%END.

00001252 <Page2>:
    1252:	3c 21 44 4f 43 54 59 50 45 20 68 74 6d 6c 20 50     <!DOCTYPE html P
    1262:	55 42 4c 49 43 20 22 2d 2f 2f 57 33 43 2f 2f 44     UBLIC "-//W3C//D
    1272:	54 44 20 48 54 4d 4c 20 34 2e 30 31 20 54 72 61     TD HTML 4.01 Tra
    1282:	6e 73 69 74 69 6f 6e 61 6c 2f 2f 45 4e 22 20 22     nsitional//EN" "
    1292:	68 74 74 70 3a 2f 2f 77 77 77 2e 77 33 2e 6f 72     http://www.w3.or
    12a2:	67 2f 54 52 2f 68 74 6d 6c 34 2f 6c 6f 6f 73 65     g/TR/html4/loose
    12b2:	2e 64 74 64 22 3e 0d 0a 3c 68 74 6d 6c 3e 3c 68     .dtd">..<html><h
    12c2:	65 61 64 3e 0d 0a 3c 6d 65 74 61 20 68 74 74 70     ead>..<meta http
    12d2:	2d 65 71 75 69 76 3d 22 63 6f 6e 74 65 6e 74 2d     -equiv="content-
    12e2:	74 79 70 65 22 20 63 6f 6e 74 65 6e 74 3d 22 74     type" content="t
    12f2:	65 78 74 2f 68 74 6d 6c 3b 20 63 68 61 72 73 65     ext/html; charse
    1302:	74 3d 49 53 4f 2d 38 38 35 39 2d 31 22 3e 0d 0a     t=ISO-8859-1">..
    1312:	3c 74 69 74 6c 65 3e 41 56 52 20 6d 69 6e 69 20     <title>AVR mini 
    1322:	57 65 62 73 65 72 76 65 72 20 3a 20 53 74 61 74     Webserver : Stat
    1332:	75 73 3c 2f 74 69 74 6c 65 3e 0d 0a 3c 6c 69 6e     us</title>..<lin
    1342:	6b 20 72 65 6c 3d 22 73 74 79 6c 65 73 68 65 65     k rel="styleshee
    1352:	74 22 20 74 79 70 65 3d 22 74 65 78 74 2f 63 73     t" type="text/cs
    1362:	73 22 20 20 68 72 65 66 3d 22 73 74 79 6c 65 73     s"  href="styles
    1372:	2e 63 73 73 22 3e 3c 2f 68 65 61 64 3e 3c 62 6f     .css"></head><bo
    1382:	64 79 3e 3c 68 31 3e 41 56 52 20 6d 69 6e 69 20     dy><h1>AVR mini 
    1392:	57 65 62 73 65 72 76 65 72 20 3a 20 53 74 61 74     Webserver : Stat
    13a2:	75 73 3c 2f 68 31 3e 0d 0a 3c 64 69 76 20 69 64     us</h1>..<div id
    13b2:	3d 22 6e 61 76 22 3e 3c 61 20 68 72 65 66 3d 22     ="nav"><a href="
    13c2:	69 6e 64 65 78 2e 68 74 6d 22 3e 48 6f 6d 65 3c     index.htm">Home<
    13d2:	2f 61 3e 3c 61 20 68 72 65 66 3d 22 73 74 61 74     /a><a href="stat
    13e2:	75 73 2e 68 74 6d 22 3e 53 74 61 74 75 73 3c 2f     us.htm">Status</
    13f2:	61 3e 3c 2f 64 69 76 3e 0d 0a 3c 64 69 76 20 69     a></div>..<div i
    1402:	64 3d 22 6d 61 69 6e 22 3e 0d 0a 43 6f 6d 70 69     d="main">..Compi
    1412:	6c 69 65 72 74 20 61 6d 20 4a 75 6e 20 31 35 20     liert am Jun 15 
    1422:	32 30 31 39 20 75 6d 20 32 32 3a 34 39 3a 33 32     2019 um 22:49:32
    1432:	3c 62 72 3e 3c 62 72 3e 0d 0a 43 6f 6d 70 69 6c     <br><br>..Compil
    1442:	69 65 72 74 20 6d 69 74 20 47 43 43 20 56 65 72     iert mit GCC Ver
    1452:	73 69 6f 6e 20 35 2e 34 2e 30 3c 62 72 3e 3c 62     sion 5.4.0<br><b
    1462:	72 3e 0d 0a 42 65 73 75 63 68 65 72 20 73 65 69     r>..Besucher sei
    1472:	74 20 53 74 61 72 74 20 64 65 73 20 57 65 62 73     t Start des Webs
    1482:	65 72 76 65 72 73 20 28 25 56 41 40 30 39 29 3c     ervers (%VA@09)<
    1492:	62 72 3e 3c 62 72 3e 0d 0a 3c 2f 64 69 76 3e 3c     br><br>..</div><
    14a2:	64 69 76 20 69 64 3d 22 74 61 69 6c 22 3e 3c 61     div id="tail"><a
    14b2:	20 68 72 65 66 3d 22 68 74 74 70 3a 2f 2f 77 77      href="http://ww
    14c2:	77 2e 75 6c 72 69 63 68 72 61 64 69 67 2e 64 65     w.ulrichradig.de
    14d2:	22 3e 77 77 77 2e 75 6c 72 69 63 68 72 61 64 69     ">www.ulrichradi
    14e2:	67 2e 64 65 3c 2f 61 3e 20 55 6c 72 69 63 68 20     g.de</a> Ulrich 
    14f2:	52 61 64 69 67 20 32 30 30 38 3c 2f 64 69 76 3e     Radig 2008</div>
    1502:	0d 0a 3c 2f 62 6f 64 79 3e 3c 2f 68 74 6d 6c 3e     ..</body></html>
    1512:	0d 0a 25 45 4e 44 00                                ..%END.

00001519 <Page1>:
    1519:	3c 21 44 4f 43 54 59 50 45 20 68 74 6d 6c 20 50     <!DOCTYPE html P
    1529:	55 42 4c 49 43 20 22 2d 2f 2f 57 33 43 2f 2f 44     UBLIC "-//W3C//D
    1539:	54 44 20 48 54 4d 4c 20 34 2e 30 31 20 54 72 61     TD HTML 4.01 Tra
    1549:	6e 73 69 74 69 6f 6e 61 6c 2f 2f 45 4e 22 20 22     nsitional//EN" "
    1559:	68 74 74 70 3a 2f 2f 77 77 77 2e 77 33 2e 6f 72     http://www.w3.or
    1569:	67 2f 54 52 2f 68 74 6d 6c 34 2f 6c 6f 6f 73 65     g/TR/html4/loose
    1579:	2e 64 74 64 22 3e 0d 0a 3c 68 74 6d 6c 3e 3c 68     .dtd">..<html><h
    1589:	65 61 64 3e 0d 0a 3c 6d 65 74 61 20 68 74 74 70     ead>..<meta http
    1599:	2d 65 71 75 69 76 3d 22 63 6f 6e 74 65 6e 74 2d     -equiv="content-
    15a9:	74 79 70 65 22 20 63 6f 6e 74 65 6e 74 3d 22 74     type" content="t
    15b9:	65 78 74 2f 68 74 6d 6c 3b 20 63 68 61 72 73 65     ext/html; charse
    15c9:	74 3d 49 53 4f 2d 38 38 35 39 2d 31 22 3e 0d 0a     t=ISO-8859-1">..
    15d9:	3c 74 69 74 6c 65 3e 41 56 52 20 6d 69 6e 69 20     <title>AVR mini 
    15e9:	57 65 62 73 65 72 76 65 72 20 3a 20 48 6f 6d 65     Webserver : Home
    15f9:	3c 2f 74 69 74 6c 65 3e 0d 0a 3c 6c 69 6e 6b 20     </title>..<link 
    1609:	72 65 6c 3d 22 73 74 79 6c 65 73 68 65 65 74 22     rel="stylesheet"
    1619:	20 74 79 70 65 3d 22 74 65 78 74 2f 63 73 73 22      type="text/css"
    1629:	20 20 68 72 65 66 3d 22 73 74 79 6c 65 73 2e 63       href="styles.c
    1639:	73 73 22 3e 3c 2f 68 65 61 64 3e 3c 62 6f 64 79     ss"></head><body
    1649:	3e 0d 0a 3c 68 31 3e 41 56 52 20 6d 69 6e 69 20     >..<h1>AVR mini 
    1659:	57 65 62 73 65 72 76 65 72 20 3a 20 48 6f 6d 65     Webserver : Home
    1669:	3c 2f 68 31 3e 0d 0a 3c 64 69 76 20 69 64 3d 22     </h1>..<div id="
    1679:	6e 61 76 22 3e 3c 61 20 68 72 65 66 3d 22 69 6e     nav"><a href="in
    1689:	64 65 78 2e 68 74 6d 22 3e 48 6f 6d 65 3c 2f 61     dex.htm">Home</a
    1699:	3e 3c 61 20 68 72 65 66 3d 22 73 74 61 74 75 73     ><a href="status
    16a9:	2e 68 74 6d 22 3e 53 74 61 74 75 73 3c 2f 61 3e     .htm">Status</a>
    16b9:	3c 2f 64 69 76 3e 0d 0a 3c 64 69 76 20 69 64 3d     </div>..<div id=
    16c9:	22 6d 61 69 6e 22 3e 3c 68 32 3e 47 6c fc 63 6b     "main"><h2>Gl.ck
    16d9:	77 75 6e 73 63 68 21 3c 2f 68 32 3e 3c 62 72 3e     wunsch!</h2><br>
    16e9:	0d 0a 3c 69 6d 67 20 73 72 63 3d 22 72 61 6b 65     ..<img src="rake
    16f9:	74 2e 67 69 66 22 20 77 69 64 74 68 3d 22 39 30     t.gif" width="90
    1709:	22 20 68 65 69 67 68 74 3d 22 39 32 22 20 61 6c     " height="92" al
    1719:	74 3d 22 22 3e 3c 62 72 3e 3c 62 72 3e 0d 0a 3c     t=""><br><br>..<
    1729:	70 3e 44 75 20 68 61 73 74 20 65 73 20 67 65 73     p>Du hast es ges
    1739:	63 68 61 66 66 74 3a 20 44 65 72 20 57 65 62 73     chafft: Der Webs
    1749:	65 72 76 65 72 20 6c e4 75 66 74 21 3c 2f 70 3e     erver l.uft!</p>
    1759:	3c 62 72 3e 3c 68 72 3e 3c 62 72 3e 0d 0a 3c 64     <br><hr><br>..<d
    1769:	69 76 20 73 74 79 6c 65 3d 22 77 69 64 74 68 3a     iv style="width:
    1779:	32 30 30 70 78 3b 6d 61 72 67 69 6e 3a 20 30 20     200px;margin: 0 
    1789:	61 75 74 6f 3b 22 3e 0d 0a 3c 64 69 76 20 73 74     auto;">..<div st
    1799:	79 6c 65 3d 22 66 6c 6f 61 74 3a 6c 65 66 74 3b     yle="float:left;
    17a9:	77 69 64 74 68 3a 31 30 30 70 78 22 3e 0d 0a 3c     width:100px">..<
    17b9:	66 6f 72 6d 20 6d 65 74 68 6f 64 3d 22 70 6f 73     form method="pos
    17c9:	74 22 20 61 63 74 69 6f 6e 3d 22 69 6e 64 65 78     t" action="index
    17d9:	2e 68 74 6d 22 3e 0d 0a 3c 69 6e 70 75 74 20 6e     .htm">..<input n
    17e9:	61 6d 65 3d 22 4f 55 54 22 20 74 79 70 65 3d 22     ame="OUT" type="
    17f9:	63 68 65 63 6b 62 6f 78 22 20 76 61 6c 75 65 3d     checkbox" value=
    1809:	22 41 22 20 25 50 4f 52 54 41 30 3e 50 6f 72 74     "A" %PORTA0>Port
    1819:	20 41 20 50 69 6e 20 30 3c 62 72 3e 0d 0a 3c 69      A Pin 0<br>..<i
    1829:	6e 70 75 74 20 6e 61 6d 65 3d 22 4f 55 54 22 20     nput name="OUT" 
    1839:	74 79 70 65 3d 22 63 68 65 63 6b 62 6f 78 22 20     type="checkbox" 
    1849:	76 61 6c 75 65 3d 22 42 22 20 25 50 4f 52 54 41     value="B" %PORTA
    1859:	31 3e 50 6f 72 74 20 41 20 50 69 6e 20 31 3c 62     1>Port A Pin 1<b
    1869:	72 3e 0d 0a 3c 69 6e 70 75 74 20 6e 61 6d 65 3d     r>..<input name=
    1879:	22 4f 55 54 22 20 74 79 70 65 3d 22 63 68 65 63     "OUT" type="chec
    1889:	6b 62 6f 78 22 20 76 61 6c 75 65 3d 22 43 22 20     kbox" value="C" 
    1899:	25 50 4f 52 54 41 32 3e 50 6f 72 74 20 41 20 50     %PORTA2>Port A P
    18a9:	69 6e 20 32 3c 62 72 3e 3c 62 72 3e 0d 0a 3c 69     in 2<br><br>..<i
    18b9:	6e 70 75 74 20 6e 61 6d 65 3d 22 53 55 42 22 20     nput name="SUB" 
    18c9:	76 61 6c 75 65 3d 22 53 65 6e 64 65 6e 22 20 74     value="Senden" t
    18d9:	79 70 65 3d 22 73 75 62 6d 69 74 22 3e 0d 0a 3c     ype="submit">..<
    18e9:	2f 66 6f 72 6d 3e 3c 2f 64 69 76 3e 0d 0a 3c 64     /form></div>..<d
    18f9:	69 76 20 73 74 79 6c 65 3d 22 66 6c 6f 61 74 3a     iv style="float:
    1909:	6c 65 66 74 3b 20 77 69 64 74 68 3a 31 30 30 70     left; width:100p
    1919:	78 22 3e 0d 0a 3c 69 6d 67 20 73 72 63 3d 22 25     x">..<img src="%
    1929:	50 49 4e 44 37 22 20 61 6c 74 3d 22 22 3e 20 50     PIND7" alt=""> P
    1939:	6f 72 74 20 44 20 50 69 6e 20 37 3c 62 72 3e 3c     ort D Pin 7<br><
    1949:	69 6d 67 20 73 72 63 3d 22 25 50 49 4e 44 36 22     img src="%PIND6"
    1959:	20 61 6c 74 3d 22 22 3e 20 50 6f 72 74 20 44 20      alt=""> Port D 
    1969:	50 69 6e 20 36 3c 62 72 3e 3c 69 6d 67 20 73 72     Pin 6<br><img sr
    1979:	63 3d 22 25 50 49 4e 44 35 22 20 61 6c 74 3d 22     c="%PIND5" alt="
    1989:	22 3e 20 50 6f 72 74 20 44 20 50 69 6e 20 35 3c     "> Port D Pin 5<
    1999:	62 72 3e 3c 2f 64 69 76 3e 3c 2f 64 69 76 3e 0d     br></div></div>.
    19a9:	0a 3c 64 69 76 20 63 6c 61 73 73 3d 22 63 6c 65     .<div class="cle
    19b9:	61 72 22 3e 3c 2f 64 69 76 3e 0d 0a 3c 62 72 3e     ar"></div>..<br>
    19c9:	3c 68 72 3e 3c 62 72 3e 0d 0a 3c 74 61 62 6c 65     <hr><br>..<table
    19d9:	20 62 6f 72 64 65 72 3d 22 30 22 20 63 6c 61 73      border="0" clas
    19e9:	73 3d 22 74 65 6d 70 54 62 6c 22 20 61 6c 69 67     s="tempTbl" alig
    19f9:	6e 3d 22 63 65 6e 74 65 72 22 20 77 69 64 74 68     n="center" width
    1a09:	3d 22 34 30 30 70 78 3b 22 3e 0d 0a 3c 74 72 3e     ="400px;">..<tr>
    1a19:	0d 0a 3c 74 68 3e 45 69 6e 67 61 6e 67 3c 2f 74     ..<th>Eingang</t
    1a29:	68 3e 0d 0a 3c 74 68 3e 42 61 6c 6b 65 6e 3c 2f     h>..<th>Balken</
    1a39:	74 68 3e 0d 0a 3c 74 68 3e 54 65 6d 70 65 72 61     th>..<th>Tempera
    1a49:	74 75 72 20 5b b0 43 5d 3c 2f 74 68 3e 0d 0a 3c     tur [.C]</th>..<
    1a59:	2f 74 72 3e 3c 74 72 3e 0d 0a 3c 74 64 3e 41 44     /tr><tr>..<td>AD
    1a69:	2d 4b 61 6e 61 6c 30 3c 2f 74 64 3e 0d 0a 3c 74     -Kanal0</td>..<t
    1a79:	64 20 73 74 79 6c 65 3d 22 74 65 78 74 2d 61 6c     d style="text-al
    1a89:	69 67 6e 3a 6c 65 66 74 22 3e 3c 69 6d 67 20 73     ign:left"><img s
    1a99:	72 63 3d 22 69 6e 64 65 78 2d 44 61 74 65 69 65     rc="index-Dateie
    1aa9:	6e 2f 62 61 6c 6b 65 2e 67 69 66 22 20 61 6c 74     n/balke.gif" alt
    1ab9:	3d 22 22 20 68 65 69 67 68 74 3d 22 31 30 22 20     ="" height="10" 
    1ac9:	77 69 64 74 68 3d 22 25 56 41 40 30 30 22 3e 3c     width="%VA@00"><
    1ad9:	2f 74 64 3e 0d 0a 3c 74 64 3e 25 56 41 40 30 30     /td>..<td>%VA@00
    1ae9:	3c 2f 74 64 3e 0d 0a 3c 2f 74 72 3e 3c 74 72 3e     </td>..</tr><tr>
    1af9:	0d 0a 3c 74 64 3e 41 44 2d 4b 61 6e 61 6c 31 3c     ..<td>AD-Kanal1<
    1b09:	2f 74 64 3e 0d 0a 3c 74 64 20 73 74 79 6c 65 3d     /td>..<td style=
    1b19:	22 74 65 78 74 2d 61 6c 69 67 6e 3a 6c 65 66 74     "text-align:left
    1b29:	22 3e 3c 69 6d 67 20 73 72 63 3d 22 69 6e 64 65     "><img src="inde
    1b39:	78 2d 44 61 74 65 69 65 6e 2f 62 61 6c 6b 65 2e     x-Dateien/balke.
    1b49:	67 69 66 22 20 61 6c 74 3d 22 22 20 68 65 69 67     gif" alt="" heig
    1b59:	68 74 3d 22 31 30 22 20 77 69 64 74 68 3d 22 25     ht="10" width="%
    1b69:	56 41 40 30 31 22 3e 3c 2f 74 64 3e 0d 0a 3c 74     VA@01"></td>..<t
    1b79:	64 3e 25 56 41 40 30 31 3c 2f 74 64 3e 0d 0a 3c     d>%VA@01</td>..<
    1b89:	2f 74 72 3e 3c 74 72 3e 0d 0a 3c 74 64 3e 41 44     /tr><tr>..<td>AD
    1b99:	2d 4b 61 6e 61 6c 32 3c 2f 74 64 3e 0d 0a 3c 74     -Kanal2</td>..<t
    1ba9:	64 20 73 74 79 6c 65 3d 22 74 65 78 74 2d 61 6c     d style="text-al
    1bb9:	69 67 6e 3a 6c 65 66 74 22 3e 3c 69 6d 67 20 73     ign:left"><img s
    1bc9:	72 63 3d 22 69 6e 64 65 78 2d 44 61 74 65 69 65     rc="index-Dateie
    1bd9:	6e 2f 62 61 6c 6b 65 2e 67 69 66 22 20 61 6c 74     n/balke.gif" alt
    1be9:	3d 22 22 20 68 65 69 67 68 74 3d 22 31 30 22 20     ="" height="10" 
    1bf9:	77 69 64 74 68 3d 22 25 56 41 40 30 32 22 3e 3c     width="%VA@02"><
    1c09:	2f 74 64 3e 0d 0a 3c 74 64 3e 25 56 41 40 30 32     /td>..<td>%VA@02
    1c19:	3c 2f 74 64 3e 0d 0a 3c 2f 74 72 3e 3c 74 72 3e     </td>..</tr><tr>
    1c29:	0d 0a 3c 74 64 3e 41 44 2d 4b 61 6e 61 6c 33 3c     ..<td>AD-Kanal3<
    1c39:	2f 74 64 3e 0d 0a 3c 74 64 20 73 74 79 6c 65 3d     /td>..<td style=
    1c49:	22 74 65 78 74 2d 61 6c 69 67 6e 3a 6c 65 66 74     "text-align:left
    1c59:	22 3e 3c 69 6d 67 20 73 72 63 3d 22 69 6e 64 65     "><img src="inde
    1c69:	78 2d 44 61 74 65 69 65 6e 2f 62 61 6c 6b 65 2e     x-Dateien/balke.
    1c79:	67 69 66 22 20 61 6c 74 3d 22 22 20 68 65 69 67     gif" alt="" heig
    1c89:	68 74 3d 22 31 30 22 20 77 69 64 74 68 3d 22 25     ht="10" width="%
    1c99:	56 41 40 30 33 22 3e 3c 2f 74 64 3e 0d 0a 3c 74     VA@03"></td>..<t
    1ca9:	64 3e 25 56 41 40 30 33 3c 2f 74 64 3e 0d 0a 3c     d>%VA@03</td>..<
    1cb9:	2f 74 72 3e 0d 0a 3c 2f 74 61 62 6c 65 3e 0d 0a     /tr>..</table>..
    1cc9:	3c 2f 64 69 76 3e 3c 64 69 76 20 69 64 3d 22 74     </div><div id="t
    1cd9:	61 69 6c 22 3e 3c 61 20 68 72 65 66 3d 22 68 74     ail"><a href="ht
    1ce9:	74 70 3a 2f 2f 77 77 77 2e 75 6c 72 69 63 68 72     tp://www.ulrichr
    1cf9:	61 64 69 67 2e 64 65 22 3e 77 77 77 2e 75 6c 72     adig.de">www.ulr
    1d09:	69 63 68 72 61 64 69 67 2e 64 65 3c 2f 61 3e 20     ichradig.de</a> 
    1d19:	55 6c 72 69 63 68 20 52 61 64 69 67 20 32 30 30     Ulrich Radig 200
    1d29:	38 3c 2f 64 69 76 3e 0d 0a 3c 2f 62 6f 64 79 3e     8</div>..</body>
    1d39:	3c 2f 68 74 6d 6c 3e 25 45 4e 44 00                 </html>%END.

00001d45 <__c.2345>:
    1d45:	47 65 74 20 50 4f 4e 47 3a 20 25 69 2e 25 69 2e     Get PONG: %i.%i.
    1d55:	25 69 2e 25 69 0d 0a 00                             %i.%i...

00001d5d <__c.2343>:
    1d5d:	45 52 52 4f 52 0d 0a 0d 0a 00                       ERROR.....

00001d67 <__c.2341>:
    1d67:	52 65 61 64 79 0d 0a 0d 0a 00                       Ready.....

00001d71 <__c.2339>:
    1d71:	0d 0a 00                                            ...

00001d74 <__c.2337>:
    1d74:	47 57 20 20 20 25 31 69 2e 25 31 69 2e 25 31 69     GW   %1i.%1i.%1i
    1d84:	2e 25 31 69 0d 0a 00                                .%1i...

00001d8b <__c.2335>:
    1d8b:	4d 41 53 4b 20 25 31 69 2e 25 31 69 2e 25 31 69     MASK %1i.%1i.%1i
    1d9b:	2e 25 31 69 0d 0a 00                                .%1i...

00001da2 <__c.2333>:
    1da2:	0d 0a 49 50 20 20 20 25 31 69 2e 25 31 69 2e 25     ..IP   %1i.%1i.%
    1db2:	31 69 2e 25 31 69 0d 0a 00                          1i.%1i...

00001dbb <__c.2328>:
    1dbb:	43 6f 6d 70 69 6c 69 65 72 74 20 6d 69 74 20 47     Compiliert mit G
    1dcb:	43 43 20 56 65 72 73 69 6f 6e 20 35 2e 34 2e 30     CC Version 5.4.0
    1ddb:	0d 0a 00                                            ...

00001dde <__c.2326>:
    1dde:	43 6f 6d 70 69 6c 69 65 72 74 20 61 6d 20 4a 75     Compiliert am Ju
    1dee:	6e 20 31 35 20 32 30 31 39 20 75 6d 20 32 32 3a     n 15 2019 um 22:
    1dfe:	34 39 3a 33 34 0d 0a 00                             49:34...

00001e06 <__c.2324>:
    1e06:	0a 0d 53 79 73 74 65 6d 20 52 65 61 64 79 0a 0d     ..System Ready..
	...

00001e17 <enc_configdata>:
    1e17:	04 00 05 1a 06 ff 07 1f 08 00 09 00 0a ff 0b 19     ................
    1e27:	c1 00 c0 0d c2 33 ca ee cb 05 c4 15 c6 12 e4 00     .....3..........
    1e37:	e5 20 e2 18 e3 b1 e0 15 e1 6f 75 00 ff ff 00 01     . .......ou.....
    1e47:	00 14 07 42 ff ff                                   ...B..

00001e4d <__c.1975>:
    1e4d:	53 74 61 72 74 20 54 65 6c 6e 65 74 20 53 65 72     Start Telnet Ser
    1e5d:	76 65 72 3a 0d 0a 00                                ver:...

00001e64 <__ctors_end>:
    1e64:	11 24       	eor	r1, r1
    1e66:	1f be       	out	0x3f, r1	; 63
    1e68:	cf e5       	ldi	r28, 0x5F	; 95
    1e6a:	d8 e0       	ldi	r29, 0x08	; 8
    1e6c:	de bf       	out	0x3e, r29	; 62
    1e6e:	cd bf       	out	0x3d, r28	; 61

00001e70 <__do_copy_data>:
    1e70:	11 e0       	ldi	r17, 0x01	; 1
    1e72:	a0 e6       	ldi	r26, 0x60	; 96
    1e74:	b0 e0       	ldi	r27, 0x00	; 0
    1e76:	e4 e3       	ldi	r30, 0x34	; 52
    1e78:	ff e5       	ldi	r31, 0x5F	; 95
    1e7a:	02 c0       	rjmp	.+4      	; 0x1e80 <__do_copy_data+0x10>
    1e7c:	05 90       	lpm	r0, Z+
    1e7e:	0d 92       	st	X+, r0
    1e80:	a6 39       	cpi	r26, 0x96	; 150
    1e82:	b1 07       	cpc	r27, r17
    1e84:	d9 f7       	brne	.-10     	; 0x1e7c <__do_copy_data+0xc>

00001e86 <__do_clear_bss>:
    1e86:	25 e0       	ldi	r18, 0x05	; 5
    1e88:	a6 e9       	ldi	r26, 0x96	; 150
    1e8a:	b1 e0       	ldi	r27, 0x01	; 1
    1e8c:	01 c0       	rjmp	.+2      	; 0x1e90 <.do_clear_bss_start>

00001e8e <.do_clear_bss_loop>:
    1e8e:	1d 92       	st	X+, r1

00001e90 <.do_clear_bss_start>:
    1e90:	a1 3e       	cpi	r26, 0xE1	; 225
    1e92:	b2 07       	cpc	r27, r18
    1e94:	e1 f7       	brne	.-8      	; 0x1e8e <.do_clear_bss_loop>
    1e96:	0e 94 4b 1a 	call	0x3496	; 0x3496 <main>
    1e9a:	0c 94 98 2f 	jmp	0x5f30	; 0x5f30 <_exit>

00001e9e <__bad_interrupt>:
    1e9e:	0c 94 00 00 	jmp	0	; 0x0 <__vectors>

00001ea2 <decode_base64>:


const PROGMEM char BASE64CODE[] = "ABCDEFGHIJKLMNOPQRSTUVWXYZabcdefghijklmnopqrstuvwxyz0123456789+/=";

void decode_base64 (unsigned char *str1_in,unsigned char *str2_out)
{
    1ea2:	cf 93       	push	r28
    1ea4:	df 93       	push	r29
    1ea6:	fc 01       	movw	r30, r24
	unsigned char *strp;
    unsigned char end_byte = 0;
	
	strp = str2_out;
	
	while (*str1_in != 0)
    1ea8:	90 81       	ld	r25, Z
    1eaa:	99 23       	and	r25, r25
    1eac:	09 f4       	brne	.+2      	; 0x1eb0 <decode_base64+0xe>
    1eae:	62 c0       	rjmp	.+196    	; 0x1f74 <decode_base64+0xd2>
	{
		*str2_out++= (*str1_in & 0xFC)>>2;
    1eb0:	96 95       	lsr	r25
    1eb2:	96 95       	lsr	r25
    1eb4:	db 01       	movw	r26, r22
    1eb6:	9c 93       	st	X, r25
		
		*str2_out = (((*str1_in++)&0x03)<<4); 
    1eb8:	90 81       	ld	r25, Z
    1eba:	93 70       	andi	r25, 0x03	; 3
    1ebc:	92 95       	swap	r25
    1ebe:	90 7f       	andi	r25, 0xF0	; 240
    1ec0:	11 96       	adiw	r26, 0x01	; 1
    1ec2:	9c 93       	st	X, r25
		if (*str1_in==0)
    1ec4:	21 81       	ldd	r18, Z+1	; 0x01
    1ec6:	21 11       	cpse	r18, r1
    1ec8:	15 c0       	rjmp	.+42     	; 0x1ef4 <decode_base64+0x52>
    1eca:	10 c0       	rjmp	.+32     	; 0x1eec <decode_base64+0x4a>
	
	strp = str2_out;
	
	while (*str1_in != 0)
	{
		*str2_out++= (*str1_in & 0xFC)>>2;
    1ecc:	86 95       	lsr	r24
    1ece:	86 95       	lsr	r24
    1ed0:	8c 83       	std	Y+4, r24	; 0x04
		
		*str2_out = (((*str1_in++)&0x03)<<4); 
    1ed2:	e9 01       	movw	r28, r18
    1ed4:	9b 81       	ldd	r25, Y+3	; 0x03
    1ed6:	93 70       	andi	r25, 0x03	; 3
    1ed8:	92 95       	swap	r25
    1eda:	90 7f       	andi	r25, 0xF0	; 240
    1edc:	11 96       	adiw	r26, 0x01	; 1
    1ede:	9c 93       	st	X, r25
    1ee0:	11 97       	sbiw	r26, 0x01	; 1
    1ee2:	33 96       	adiw	r30, 0x03	; 3
		if (*str1_in==0)
    1ee4:	21 81       	ldd	r18, Z+1	; 0x01
    1ee6:	21 11       	cpse	r18, r1
    1ee8:	07 c0       	rjmp	.+14     	; 0x1ef8 <decode_base64+0x56>
    1eea:	01 c0       	rjmp	.+2      	; 0x1eee <decode_base64+0x4c>
    1eec:	db 01       	movw	r26, r22
		{
			str2_out++;
    1eee:	12 96       	adiw	r26, 0x02	; 2
            end_byte = 2;
    1ef0:	82 e0       	ldi	r24, 0x02	; 2
			break;
    1ef2:	48 c0       	rjmp	.+144    	; 0x1f84 <decode_base64+0xe2>
	while (*str1_in != 0)
	{
		*str2_out++= (*str1_in & 0xFC)>>2;
		
		*str2_out = (((*str1_in++)&0x03)<<4); 
		if (*str1_in==0)
    1ef4:	eb 01       	movw	r28, r22
    1ef6:	01 c0       	rjmp	.+2      	; 0x1efa <decode_base64+0x58>
                break;
			}
			else
			{
				*str2_out++	+= ((*str1_in & 0xC0)>>6);
				*str2_out++= *str1_in++ & 0x3F;
    1ef8:	ed 01       	movw	r28, r26
            end_byte = 2;
			break;
		}
		else
		{
			*str2_out++ += ((*str1_in & 0xF0)>>4);
    1efa:	22 95       	swap	r18
    1efc:	2f 70       	andi	r18, 0x0F	; 15
    1efe:	92 0f       	add	r25, r18
    1f00:	99 83       	std	Y+1, r25	; 0x01
    1f02:	9f 01       	movw	r18, r30
			*str2_out = (((*str1_in++)& 0x0F)<<2);
    1f04:	91 81       	ldd	r25, Z+1	; 0x01
    1f06:	9f 70       	andi	r25, 0x0F	; 15
    1f08:	99 0f       	add	r25, r25
    1f0a:	99 0f       	add	r25, r25
    1f0c:	9a 83       	std	Y+2, r25	; 0x02
			if (*str1_in==0)
    1f0e:	82 81       	ldd	r24, Z+2	; 0x02
    1f10:	81 11       	cpse	r24, r1
    1f12:	04 c0       	rjmp	.+8      	; 0x1f1c <decode_base64+0x7a>
			{
				str2_out++;
    1f14:	de 01       	movw	r26, r28
    1f16:	13 96       	adiw	r26, 0x03	; 3
                end_byte = 1;
    1f18:	81 e0       	ldi	r24, 0x01	; 1
                break;
    1f1a:	34 c0       	rjmp	.+104    	; 0x1f84 <decode_base64+0xe2>
			}
			else
			{
				*str2_out++	+= ((*str1_in & 0xC0)>>6);
    1f1c:	82 95       	swap	r24
    1f1e:	86 95       	lsr	r24
    1f20:	86 95       	lsr	r24
    1f22:	83 70       	andi	r24, 0x03	; 3
    1f24:	98 0f       	add	r25, r24
    1f26:	9a 83       	std	Y+2, r25	; 0x02
    1f28:	de 01       	movw	r26, r28
    1f2a:	14 96       	adiw	r26, 0x04	; 4
				*str2_out++= *str1_in++ & 0x3F;
    1f2c:	82 81       	ldd	r24, Z+2	; 0x02
    1f2e:	8f 73       	andi	r24, 0x3F	; 63
    1f30:	8b 83       	std	Y+3, r24	; 0x03
	unsigned char *strp;
    unsigned char end_byte = 0;
	
	strp = str2_out;
	
	while (*str1_in != 0)
    1f32:	83 81       	ldd	r24, Z+3	; 0x03
    1f34:	81 11       	cpse	r24, r1
    1f36:	ca cf       	rjmp	.-108    	; 0x1ecc <decode_base64+0x2a>
    1f38:	2a c0       	rjmp	.+84     	; 0x1f8e <decode_base64+0xec>
const PROGMEM char BASE64CODE[] = "ABCDEFGHIJKLMNOPQRSTUVWXYZabcdefghijklmnopqrstuvwxyz0123456789+/=";

void decode_base64 (unsigned char *str1_in,unsigned char *str2_out)
{
	unsigned char *strp;
    unsigned char end_byte = 0;
    1f3a:	80 e0       	ldi	r24, 0x00	; 0
    1f3c:	eb 01       	movw	r28, r22
	}
	*str2_out = 0;
    
	while(strp != str2_out)
	{
			*strp = pgm_read_byte(&BASE64CODE[(*strp) & 0x3F]);
    1f3e:	e8 81       	ld	r30, Y
    1f40:	ef 73       	andi	r30, 0x3F	; 63
    1f42:	f0 e0       	ldi	r31, 0x00	; 0
    1f44:	ec 5a       	subi	r30, 0xAC	; 172
    1f46:	ff 4f       	sbci	r31, 0xFF	; 255
    1f48:	e4 91       	lpm	r30, Z
    1f4a:	e9 93       	st	Y+, r30
			}
		}
	}
	*str2_out = 0;
    
	while(strp != str2_out)
    1f4c:	ca 17       	cp	r28, r26
    1f4e:	db 07       	cpc	r29, r27
    1f50:	b1 f7       	brne	.-20     	; 0x1f3e <decode_base64+0x9c>
	{
			*strp = pgm_read_byte(&BASE64CODE[(*strp) & 0x3F]);
			strp++;
	}
 
    while (end_byte--)
    1f52:	2f ef       	ldi	r18, 0xFF	; 255
    1f54:	28 0f       	add	r18, r24
    1f56:	88 23       	and	r24, r24
    1f58:	59 f0       	breq	.+22     	; 0x1f70 <decode_base64+0xce>
void decode_base64 (unsigned char *str1_in,unsigned char *str2_out)
{
	unsigned char *strp;
    unsigned char end_byte = 0;
	
	strp = str2_out;
    1f5a:	82 2f       	mov	r24, r18
    1f5c:	fd 01       	movw	r30, r26
			strp++;
	}
 
    while (end_byte--)
    {
        *strp = '=';
    1f5e:	9d e3       	ldi	r25, 0x3D	; 61
    1f60:	91 93       	st	Z+, r25
	{
			*strp = pgm_read_byte(&BASE64CODE[(*strp) & 0x3F]);
			strp++;
	}
 
    while (end_byte--)
    1f62:	81 50       	subi	r24, 0x01	; 1
    1f64:	e8 f7       	brcc	.-6      	; 0x1f60 <decode_base64+0xbe>
    1f66:	82 2f       	mov	r24, r18
    1f68:	90 e0       	ldi	r25, 0x00	; 0
    1f6a:	01 96       	adiw	r24, 0x01	; 1
    1f6c:	a8 0f       	add	r26, r24
    1f6e:	b9 1f       	adc	r27, r25
    {
        *strp = '=';
        strp++;
    }
    *strp = 0; 
    1f70:	1c 92       	st	X, r1
}
    1f72:	12 c0       	rjmp	.+36     	; 0x1f98 <decode_base64+0xf6>
				*str2_out++	+= ((*str1_in & 0xC0)>>6);
				*str2_out++= *str1_in++ & 0x3F;
			}
		}
	}
	*str2_out = 0;
    1f74:	fb 01       	movw	r30, r22
    1f76:	10 82       	st	Z, r1
void decode_base64 (unsigned char *str1_in,unsigned char *str2_out)
{
	unsigned char *strp;
    unsigned char end_byte = 0;
	
	strp = str2_out;
    1f78:	db 01       	movw	r26, r22
    1f7a:	fa cf       	rjmp	.-12     	; 0x1f70 <decode_base64+0xce>
	{
			*strp = pgm_read_byte(&BASE64CODE[(*strp) & 0x3F]);
			strp++;
	}
 
    while (end_byte--)
    1f7c:	2f ef       	ldi	r18, 0xFF	; 255
    1f7e:	28 0f       	add	r18, r24
void decode_base64 (unsigned char *str1_in,unsigned char *str2_out)
{
	unsigned char *strp;
    unsigned char end_byte = 0;
	
	strp = str2_out;
    1f80:	db 01       	movw	r26, r22
    1f82:	eb cf       	rjmp	.-42     	; 0x1f5a <decode_base64+0xb8>
				*str2_out++	+= ((*str1_in & 0xC0)>>6);
				*str2_out++= *str1_in++ & 0x3F;
			}
		}
	}
	*str2_out = 0;
    1f84:	1c 92       	st	X, r1
    
	while(strp != str2_out)
    1f86:	6a 17       	cp	r22, r26
    1f88:	7b 07       	cpc	r23, r27
    1f8a:	c1 f6       	brne	.-80     	; 0x1f3c <decode_base64+0x9a>
    1f8c:	f7 cf       	rjmp	.-18     	; 0x1f7c <decode_base64+0xda>
				*str2_out++	+= ((*str1_in & 0xC0)>>6);
				*str2_out++= *str1_in++ & 0x3F;
			}
		}
	}
	*str2_out = 0;
    1f8e:	1c 82       	std	Y+4, r1	; 0x04
    
	while(strp != str2_out)
    1f90:	6a 17       	cp	r22, r26
    1f92:	7b 07       	cpc	r23, r27
    1f94:	91 f6       	brne	.-92     	; 0x1f3a <decode_base64+0x98>
    1f96:	ec cf       	rjmp	.-40     	; 0x1f70 <decode_base64+0xce>
    {
        *strp = '=';
        strp++;
    }
    *strp = 0; 
}
    1f98:	df 91       	pop	r29
    1f9a:	cf 91       	pop	r28
    1f9c:	08 95       	ret

00001f9e <command_reset>:

//------------------------------------------------------------------------------
//Reset ausfhren
void command_reset (void)
{
	RESET();
    1f9e:	e0 e0       	ldi	r30, 0x00	; 0
    1fa0:	f0 e0       	ldi	r31, 0x00	; 0
    1fa2:	09 94       	ijmp
    1fa4:	08 95       	ret

00001fa6 <command_ntp>:
}

//------------------------------------------------------------------------------
//print/edit NTP Server IP
void command_ntp (void)
{
    1fa6:	08 95       	ret

00001fa8 <command_ntp_refresh>:
}

//------------------------------------------------------------------------------
//Time Refresh via NTP-Server
void command_ntp_refresh (void)
{
    1fa8:	08 95       	ret

00001faa <command_mac>:

//------------------------------------------------------------------------------
//print own mac
void command_mac (void)
{
	usart_write("My MAC: %2x:%2x:%2x:%2x:%2x:%2x\r\n",mymac[0],mymac[1],mymac[2],mymac[3],mymac[4],mymac[5]);
    1faa:	ea e6       	ldi	r30, 0x6A	; 106
    1fac:	f3 e0       	ldi	r31, 0x03	; 3
    1fae:	85 81       	ldd	r24, Z+5	; 0x05
    1fb0:	1f 92       	push	r1
    1fb2:	8f 93       	push	r24
    1fb4:	84 81       	ldd	r24, Z+4	; 0x04
    1fb6:	1f 92       	push	r1
    1fb8:	8f 93       	push	r24
    1fba:	83 81       	ldd	r24, Z+3	; 0x03
    1fbc:	1f 92       	push	r1
    1fbe:	8f 93       	push	r24
    1fc0:	82 81       	ldd	r24, Z+2	; 0x02
    1fc2:	1f 92       	push	r1
    1fc4:	8f 93       	push	r24
    1fc6:	81 81       	ldd	r24, Z+1	; 0x01
    1fc8:	1f 92       	push	r1
    1fca:	8f 93       	push	r24
    1fcc:	80 81       	ld	r24, Z
    1fce:	1f 92       	push	r1
    1fd0:	8f 93       	push	r24
    1fd2:	87 e6       	ldi	r24, 0x67	; 103
    1fd4:	91 e0       	ldi	r25, 0x01	; 1
    1fd6:	9f 93       	push	r25
    1fd8:	8f 93       	push	r24
    1fda:	0e 94 f7 2a 	call	0x55ee	; 0x55ee <usart_write_P>
}
    1fde:	8d b7       	in	r24, 0x3d	; 61
    1fe0:	9e b7       	in	r25, 0x3e	; 62
    1fe2:	0e 96       	adiw	r24, 0x0e	; 14
    1fe4:	0f b6       	in	r0, 0x3f	; 63
    1fe6:	f8 94       	cli
    1fe8:	9e bf       	out	0x3e, r25	; 62
    1fea:	0f be       	out	0x3f, r0	; 63
    1fec:	8d bf       	out	0x3d, r24	; 61
    1fee:	08 95       	ret

00001ff0 <command_ver>:
//------------------------------------------------------------------------------
//print enc28j60 chip version
void command_ver (void)
{
#if USE_ENC28J60
	usart_write("ENC28J60-Version: %1x\r\n", enc28j60_revision);
    1ff0:	80 91 9a 01 	lds	r24, 0x019A	; 0x80019a <enc_revid>
    1ff4:	1f 92       	push	r1
    1ff6:	8f 93       	push	r24
    1ff8:	8f e4       	ldi	r24, 0x4F	; 79
    1ffa:	91 e0       	ldi	r25, 0x01	; 1
    1ffc:	9f 93       	push	r25
    1ffe:	8f 93       	push	r24
    2000:	0e 94 f7 2a 	call	0x55ee	; 0x55ee <usart_write_P>
#endif

#if USE_RTL8019
	usart_write("RTL8019 Ethernetcard\r\n");
#endif
}
    2004:	0f 90       	pop	r0
    2006:	0f 90       	pop	r0
    2008:	0f 90       	pop	r0
    200a:	0f 90       	pop	r0
    200c:	08 95       	ret

0000200e <command_arp>:

//------------------------------------------------------------------------------
//print ARP table
void command_arp (void)
{
    200e:	2f 92       	push	r2
    2010:	3f 92       	push	r3
    2012:	4f 92       	push	r4
    2014:	5f 92       	push	r5
    2016:	6f 92       	push	r6
    2018:	7f 92       	push	r7
    201a:	8f 92       	push	r8
    201c:	9f 92       	push	r9
    201e:	af 92       	push	r10
    2020:	bf 92       	push	r11
    2022:	cf 92       	push	r12
    2024:	df 92       	push	r13
    2026:	ef 92       	push	r14
    2028:	ff 92       	push	r15
    202a:	0f 93       	push	r16
    202c:	1f 93       	push	r17
    202e:	cf 93       	push	r28
    2030:	df 93       	push	r29
    2032:	81 2c       	mov	r8, r1
    2034:	91 2c       	mov	r9, r1
	for (unsigned char index = 0;index<MAX_ARP_ENTRY;index++)
	{
		usart_write("%2i  MAC:%2x",index,arp_entry[index].arp_t_mac[0]);
    2036:	0f 2e       	mov	r0, r31
    2038:	f2 e4       	ldi	r31, 0x42	; 66
    203a:	af 2e       	mov	r10, r31
    203c:	f1 e0       	ldi	r31, 0x01	; 1
    203e:	bf 2e       	mov	r11, r31
    2040:	f0 2d       	mov	r31, r0
		usart_write(".%2x",arp_entry[index].arp_t_mac[1]);
    2042:	0f 2e       	mov	r0, r31
    2044:	fd e3       	ldi	r31, 0x3D	; 61
    2046:	cf 2e       	mov	r12, r31
    2048:	f1 e0       	ldi	r31, 0x01	; 1
    204a:	df 2e       	mov	r13, r31
    204c:	f0 2d       	mov	r31, r0
		usart_write(".%2x",arp_entry[index].arp_t_mac[2]);
    204e:	0f 2e       	mov	r0, r31
    2050:	f8 e3       	ldi	r31, 0x38	; 56
    2052:	ef 2e       	mov	r14, r31
    2054:	f1 e0       	ldi	r31, 0x01	; 1
    2056:	ff 2e       	mov	r15, r31
    2058:	f0 2d       	mov	r31, r0
		usart_write(".%2x",arp_entry[index].arp_t_mac[3]);
    205a:	0f 2e       	mov	r0, r31
    205c:	f3 e3       	ldi	r31, 0x33	; 51
    205e:	6f 2e       	mov	r6, r31
    2060:	f1 e0       	ldi	r31, 0x01	; 1
    2062:	7f 2e       	mov	r7, r31
    2064:	f0 2d       	mov	r31, r0
		usart_write(".%2x",arp_entry[index].arp_t_mac[4]);
    2066:	0f 2e       	mov	r0, r31
    2068:	fe e2       	ldi	r31, 0x2E	; 46
    206a:	4f 2e       	mov	r4, r31
    206c:	f1 e0       	ldi	r31, 0x01	; 1
    206e:	5f 2e       	mov	r5, r31
    2070:	f0 2d       	mov	r31, r0
		usart_write(".%2x",arp_entry[index].arp_t_mac[5]);
    2072:	0f 2e       	mov	r0, r31
    2074:	f9 e2       	ldi	r31, 0x29	; 41
    2076:	2f 2e       	mov	r2, r31
    2078:	f1 e0       	ldi	r31, 0x01	; 1
    207a:	3f 2e       	mov	r3, r31
    207c:	f0 2d       	mov	r31, r0
//print ARP table
void command_arp (void)
{
	for (unsigned char index = 0;index<MAX_ARP_ENTRY;index++)
	{
		usart_write("%2i  MAC:%2x",index,arp_entry[index].arp_t_mac[0]);
    207e:	84 01       	movw	r16, r8
    2080:	00 0f       	add	r16, r16
    2082:	11 1f       	adc	r17, r17
    2084:	e8 01       	movw	r28, r16
    2086:	c8 0d       	add	r28, r8
    2088:	d9 1d       	adc	r29, r9
    208a:	cc 0f       	add	r28, r28
    208c:	dd 1f       	adc	r29, r29
    208e:	cc 0f       	add	r28, r28
    2090:	dd 1f       	adc	r29, r29
    2092:	c4 5d       	subi	r28, 0xD4	; 212
    2094:	dd 4f       	sbci	r29, 0xFD	; 253
    2096:	88 81       	ld	r24, Y
    2098:	1f 92       	push	r1
    209a:	8f 93       	push	r24
    209c:	9f 92       	push	r9
    209e:	8f 92       	push	r8
    20a0:	bf 92       	push	r11
    20a2:	af 92       	push	r10
    20a4:	0e 94 f7 2a 	call	0x55ee	; 0x55ee <usart_write_P>
		usart_write(".%2x",arp_entry[index].arp_t_mac[1]);
    20a8:	89 81       	ldd	r24, Y+1	; 0x01
    20aa:	1f 92       	push	r1
    20ac:	8f 93       	push	r24
    20ae:	df 92       	push	r13
    20b0:	cf 92       	push	r12
    20b2:	0e 94 f7 2a 	call	0x55ee	; 0x55ee <usart_write_P>
		usart_write(".%2x",arp_entry[index].arp_t_mac[2]);
    20b6:	8a 81       	ldd	r24, Y+2	; 0x02
    20b8:	1f 92       	push	r1
    20ba:	8f 93       	push	r24
    20bc:	ff 92       	push	r15
    20be:	ef 92       	push	r14
    20c0:	0e 94 f7 2a 	call	0x55ee	; 0x55ee <usart_write_P>
		usart_write(".%2x",arp_entry[index].arp_t_mac[3]);
    20c4:	8b 81       	ldd	r24, Y+3	; 0x03
    20c6:	1f 92       	push	r1
    20c8:	8f 93       	push	r24
    20ca:	7f 92       	push	r7
    20cc:	6f 92       	push	r6
    20ce:	0e 94 f7 2a 	call	0x55ee	; 0x55ee <usart_write_P>
		usart_write(".%2x",arp_entry[index].arp_t_mac[4]);
    20d2:	8c 81       	ldd	r24, Y+4	; 0x04
    20d4:	1f 92       	push	r1
    20d6:	8f 93       	push	r24
    20d8:	5f 92       	push	r5
    20da:	4f 92       	push	r4
    20dc:	0e 94 f7 2a 	call	0x55ee	; 0x55ee <usart_write_P>
		usart_write(".%2x",arp_entry[index].arp_t_mac[5]);
    20e0:	8d 81       	ldd	r24, Y+5	; 0x05
    20e2:	1f 92       	push	r1
    20e4:	8f 93       	push	r24
    20e6:	3f 92       	push	r3
    20e8:	2f 92       	push	r2
    20ea:	0e 94 f7 2a 	call	0x55ee	; 0x55ee <usart_write_P>
		
		usart_write("  IP:%3i",(arp_entry[index].arp_t_ip&0x000000FF));
    20ee:	8e 81       	ldd	r24, Y+6	; 0x06
    20f0:	9f 81       	ldd	r25, Y+7	; 0x07
    20f2:	a8 85       	ldd	r26, Y+8	; 0x08
    20f4:	b9 85       	ldd	r27, Y+9	; 0x09
    20f6:	99 27       	eor	r25, r25
    20f8:	aa 27       	eor	r26, r26
    20fa:	bb 27       	eor	r27, r27
    20fc:	bf 93       	push	r27
    20fe:	af 93       	push	r26
    2100:	9f 93       	push	r25
    2102:	8f 93       	push	r24
    2104:	20 e2       	ldi	r18, 0x20	; 32
    2106:	31 e0       	ldi	r19, 0x01	; 1
    2108:	3f 93       	push	r19
    210a:	2f 93       	push	r18
    210c:	0e 94 f7 2a 	call	0x55ee	; 0x55ee <usart_write_P>
		usart_write(".%3i",((arp_entry[index].arp_t_ip&0x0000FF00)>>8));
    2110:	8e 81       	ldd	r24, Y+6	; 0x06
    2112:	9f 81       	ldd	r25, Y+7	; 0x07
    2114:	a8 85       	ldd	r26, Y+8	; 0x08
    2116:	b9 85       	ldd	r27, Y+9	; 0x09
    2118:	2d b7       	in	r18, 0x3d	; 61
    211a:	3e b7       	in	r19, 0x3e	; 62
    211c:	20 5e       	subi	r18, 0xE0	; 224
    211e:	3f 4f       	sbci	r19, 0xFF	; 255
    2120:	0f b6       	in	r0, 0x3f	; 63
    2122:	f8 94       	cli
    2124:	3e bf       	out	0x3e, r19	; 62
    2126:	0f be       	out	0x3f, r0	; 63
    2128:	2d bf       	out	0x3d, r18	; 61
    212a:	89 2f       	mov	r24, r25
    212c:	90 e0       	ldi	r25, 0x00	; 0
    212e:	a0 e0       	ldi	r26, 0x00	; 0
    2130:	b0 e0       	ldi	r27, 0x00	; 0
    2132:	bf 93       	push	r27
    2134:	af 93       	push	r26
    2136:	9f 93       	push	r25
    2138:	8f 93       	push	r24
    213a:	8b e1       	ldi	r24, 0x1B	; 27
    213c:	91 e0       	ldi	r25, 0x01	; 1
    213e:	9f 93       	push	r25
    2140:	8f 93       	push	r24
    2142:	0e 94 f7 2a 	call	0x55ee	; 0x55ee <usart_write_P>
		usart_write(".%3i",((arp_entry[index].arp_t_ip&0x00FF0000)>>16));
    2146:	8e 81       	ldd	r24, Y+6	; 0x06
    2148:	9f 81       	ldd	r25, Y+7	; 0x07
    214a:	a8 85       	ldd	r26, Y+8	; 0x08
    214c:	b9 85       	ldd	r27, Y+9	; 0x09
    214e:	8a 2f       	mov	r24, r26
    2150:	90 e0       	ldi	r25, 0x00	; 0
    2152:	a0 e0       	ldi	r26, 0x00	; 0
    2154:	b0 e0       	ldi	r27, 0x00	; 0
    2156:	bf 93       	push	r27
    2158:	af 93       	push	r26
    215a:	9f 93       	push	r25
    215c:	8f 93       	push	r24
    215e:	86 e1       	ldi	r24, 0x16	; 22
    2160:	91 e0       	ldi	r25, 0x01	; 1
    2162:	9f 93       	push	r25
    2164:	8f 93       	push	r24
    2166:	0e 94 f7 2a 	call	0x55ee	; 0x55ee <usart_write_P>
		usart_write(".%3i",((arp_entry[index].arp_t_ip&0xFF000000)>>24));
    216a:	8e 81       	ldd	r24, Y+6	; 0x06
    216c:	9f 81       	ldd	r25, Y+7	; 0x07
    216e:	a8 85       	ldd	r26, Y+8	; 0x08
    2170:	b9 85       	ldd	r27, Y+9	; 0x09
    2172:	8b 2f       	mov	r24, r27
    2174:	99 27       	eor	r25, r25
    2176:	aa 27       	eor	r26, r26
    2178:	bb 27       	eor	r27, r27
    217a:	bf 93       	push	r27
    217c:	af 93       	push	r26
    217e:	9f 93       	push	r25
    2180:	8f 93       	push	r24
    2182:	81 e1       	ldi	r24, 0x11	; 17
    2184:	91 e0       	ldi	r25, 0x01	; 1
    2186:	9f 93       	push	r25
    2188:	8f 93       	push	r24
    218a:	0e 94 f7 2a 	call	0x55ee	; 0x55ee <usart_write_P>
			
		usart_write("  Time:%4i\r\n",arp_entry[index].arp_t_time);
    218e:	8a 85       	ldd	r24, Y+10	; 0x0a
    2190:	9b 85       	ldd	r25, Y+11	; 0x0b
    2192:	9f 93       	push	r25
    2194:	8f 93       	push	r24
    2196:	84 e0       	ldi	r24, 0x04	; 4
    2198:	91 e0       	ldi	r25, 0x01	; 1
    219a:	9f 93       	push	r25
    219c:	8f 93       	push	r24
    219e:	0e 94 f7 2a 	call	0x55ee	; 0x55ee <usart_write_P>
    21a2:	3f ef       	ldi	r19, 0xFF	; 255
    21a4:	83 1a       	sub	r8, r19
    21a6:	93 0a       	sbc	r9, r19

//------------------------------------------------------------------------------
//print ARP table
void command_arp (void)
{
	for (unsigned char index = 0;index<MAX_ARP_ENTRY;index++)
    21a8:	8d b7       	in	r24, 0x3d	; 61
    21aa:	9e b7       	in	r25, 0x3e	; 62
    21ac:	46 96       	adiw	r24, 0x16	; 22
    21ae:	0f b6       	in	r0, 0x3f	; 63
    21b0:	f8 94       	cli
    21b2:	9e bf       	out	0x3e, r25	; 62
    21b4:	0f be       	out	0x3f, r0	; 63
    21b6:	8d bf       	out	0x3d, r24	; 61
    21b8:	95 e0       	ldi	r25, 0x05	; 5
    21ba:	89 16       	cp	r8, r25
    21bc:	91 04       	cpc	r9, r1
    21be:	09 f0       	breq	.+2      	; 0x21c2 <command_arp+0x1b4>
    21c0:	5e cf       	rjmp	.-324    	; 0x207e <command_arp+0x70>
		usart_write(".%3i",((arp_entry[index].arp_t_ip&0x00FF0000)>>16));
		usart_write(".%3i",((arp_entry[index].arp_t_ip&0xFF000000)>>24));
			
		usart_write("  Time:%4i\r\n",arp_entry[index].arp_t_time);
	}
}
    21c2:	df 91       	pop	r29
    21c4:	cf 91       	pop	r28
    21c6:	1f 91       	pop	r17
    21c8:	0f 91       	pop	r16
    21ca:	ff 90       	pop	r15
    21cc:	ef 90       	pop	r14
    21ce:	df 90       	pop	r13
    21d0:	cf 90       	pop	r12
    21d2:	bf 90       	pop	r11
    21d4:	af 90       	pop	r10
    21d6:	9f 90       	pop	r9
    21d8:	8f 90       	pop	r8
    21da:	7f 90       	pop	r7
    21dc:	6f 90       	pop	r6
    21de:	5f 90       	pop	r5
    21e0:	4f 90       	pop	r4
    21e2:	3f 90       	pop	r3
    21e4:	2f 90       	pop	r2
    21e6:	08 95       	ret

000021e8 <command_tcp>:

//------------------------------------------------------------------------------
//print ARP table
void command_tcp (void)
{
    21e8:	2f 92       	push	r2
    21ea:	3f 92       	push	r3
    21ec:	4f 92       	push	r4
    21ee:	5f 92       	push	r5
    21f0:	6f 92       	push	r6
    21f2:	7f 92       	push	r7
    21f4:	8f 92       	push	r8
    21f6:	9f 92       	push	r9
    21f8:	af 92       	push	r10
    21fa:	bf 92       	push	r11
    21fc:	cf 92       	push	r12
    21fe:	df 92       	push	r13
    2200:	ef 92       	push	r14
    2202:	ff 92       	push	r15
    2204:	0f 93       	push	r16
    2206:	1f 93       	push	r17
    2208:	cf 93       	push	r28
    220a:	df 93       	push	r29
    220c:	00 e0       	ldi	r16, 0x00	; 0
    220e:	10 e0       	ldi	r17, 0x00	; 0
	for (unsigned char index = 0;index<MAX_TCP_ENTRY;index++)
	{
		usart_write("%2i",index);
    2210:	0f 2e       	mov	r0, r31
    2212:	f0 e0       	ldi	r31, 0x00	; 0
    2214:	af 2e       	mov	r10, r31
    2216:	f1 e0       	ldi	r31, 0x01	; 1
    2218:	bf 2e       	mov	r11, r31
    221a:	f0 2d       	mov	r31, r0
		usart_write("  IP:%3i",(tcp_entry[index].ip&0x000000FF));
    221c:	0f 2e       	mov	r0, r31
    221e:	f7 ef       	ldi	r31, 0xF7	; 247
    2220:	cf 2e       	mov	r12, r31
    2222:	f0 e0       	ldi	r31, 0x00	; 0
    2224:	df 2e       	mov	r13, r31
    2226:	f0 2d       	mov	r31, r0
		usart_write(".%3i",((tcp_entry[index].ip&0x0000FF00)>>8));
    2228:	0f 2e       	mov	r0, r31
    222a:	f2 ef       	ldi	r31, 0xF2	; 242
    222c:	ef 2e       	mov	r14, r31
    222e:	f0 e0       	ldi	r31, 0x00	; 0
    2230:	ff 2e       	mov	r15, r31
    2232:	f0 2d       	mov	r31, r0
		usart_write(".%3i",((tcp_entry[index].ip&0x00FF0000)>>16));
    2234:	0f 2e       	mov	r0, r31
    2236:	fd ee       	ldi	r31, 0xED	; 237
    2238:	8f 2e       	mov	r8, r31
    223a:	f0 e0       	ldi	r31, 0x00	; 0
    223c:	9f 2e       	mov	r9, r31
    223e:	f0 2d       	mov	r31, r0
		usart_write(".%3i",((tcp_entry[index].ip&0xFF000000)>>24));
    2240:	0f 2e       	mov	r0, r31
    2242:	f8 ee       	ldi	r31, 0xE8	; 232
    2244:	6f 2e       	mov	r6, r31
    2246:	f0 e0       	ldi	r31, 0x00	; 0
    2248:	7f 2e       	mov	r7, r31
    224a:	f0 2d       	mov	r31, r0
		usart_write("  PORT:%4i",HTONS(tcp_entry[index].src_port));
    224c:	0f 2e       	mov	r0, r31
    224e:	fd ed       	ldi	r31, 0xDD	; 221
    2250:	4f 2e       	mov	r4, r31
    2252:	f0 e0       	ldi	r31, 0x00	; 0
    2254:	5f 2e       	mov	r5, r31
    2256:	f0 2d       	mov	r31, r0
		usart_write("  Time:%4i\r\n",tcp_entry[index].time);
    2258:	0f 2e       	mov	r0, r31
    225a:	f0 ed       	ldi	r31, 0xD0	; 208
    225c:	2f 2e       	mov	r2, r31
    225e:	f0 e0       	ldi	r31, 0x00	; 0
    2260:	3f 2e       	mov	r3, r31
    2262:	f0 2d       	mov	r31, r0
//print ARP table
void command_tcp (void)
{
	for (unsigned char index = 0;index<MAX_TCP_ENTRY;index++)
	{
		usart_write("%2i",index);
    2264:	1f 93       	push	r17
    2266:	0f 93       	push	r16
    2268:	bf 92       	push	r11
    226a:	af 92       	push	r10
    226c:	0e 94 f7 2a 	call	0x55ee	; 0x55ee <usart_write_P>
		usart_write("  IP:%3i",(tcp_entry[index].ip&0x000000FF));
    2270:	26 e1       	ldi	r18, 0x16	; 22
    2272:	20 9f       	mul	r18, r16
    2274:	e0 01       	movw	r28, r0
    2276:	21 9f       	mul	r18, r17
    2278:	d0 0d       	add	r29, r0
    227a:	11 24       	eor	r1, r1
    227c:	c2 58       	subi	r28, 0x82	; 130
    227e:	dd 4f       	sbci	r29, 0xFD	; 253
    2280:	88 81       	ld	r24, Y
    2282:	99 81       	ldd	r25, Y+1	; 0x01
    2284:	aa 81       	ldd	r26, Y+2	; 0x02
    2286:	bb 81       	ldd	r27, Y+3	; 0x03
    2288:	99 27       	eor	r25, r25
    228a:	aa 27       	eor	r26, r26
    228c:	bb 27       	eor	r27, r27
    228e:	bf 93       	push	r27
    2290:	af 93       	push	r26
    2292:	9f 93       	push	r25
    2294:	8f 93       	push	r24
    2296:	df 92       	push	r13
    2298:	cf 92       	push	r12
    229a:	0e 94 f7 2a 	call	0x55ee	; 0x55ee <usart_write_P>
		usart_write(".%3i",((tcp_entry[index].ip&0x0000FF00)>>8));
    229e:	88 81       	ld	r24, Y
    22a0:	99 81       	ldd	r25, Y+1	; 0x01
    22a2:	aa 81       	ldd	r26, Y+2	; 0x02
    22a4:	bb 81       	ldd	r27, Y+3	; 0x03
    22a6:	89 2f       	mov	r24, r25
    22a8:	90 e0       	ldi	r25, 0x00	; 0
    22aa:	a0 e0       	ldi	r26, 0x00	; 0
    22ac:	b0 e0       	ldi	r27, 0x00	; 0
    22ae:	bf 93       	push	r27
    22b0:	af 93       	push	r26
    22b2:	9f 93       	push	r25
    22b4:	8f 93       	push	r24
    22b6:	ff 92       	push	r15
    22b8:	ef 92       	push	r14
    22ba:	0e 94 f7 2a 	call	0x55ee	; 0x55ee <usart_write_P>
		usart_write(".%3i",((tcp_entry[index].ip&0x00FF0000)>>16));
    22be:	88 81       	ld	r24, Y
    22c0:	99 81       	ldd	r25, Y+1	; 0x01
    22c2:	aa 81       	ldd	r26, Y+2	; 0x02
    22c4:	bb 81       	ldd	r27, Y+3	; 0x03
    22c6:	8a 2f       	mov	r24, r26
    22c8:	90 e0       	ldi	r25, 0x00	; 0
    22ca:	a0 e0       	ldi	r26, 0x00	; 0
    22cc:	b0 e0       	ldi	r27, 0x00	; 0
    22ce:	bf 93       	push	r27
    22d0:	af 93       	push	r26
    22d2:	9f 93       	push	r25
    22d4:	8f 93       	push	r24
    22d6:	9f 92       	push	r9
    22d8:	8f 92       	push	r8
    22da:	0e 94 f7 2a 	call	0x55ee	; 0x55ee <usart_write_P>
		usart_write(".%3i",((tcp_entry[index].ip&0xFF000000)>>24));
    22de:	88 81       	ld	r24, Y
    22e0:	99 81       	ldd	r25, Y+1	; 0x01
    22e2:	aa 81       	ldd	r26, Y+2	; 0x02
    22e4:	bb 81       	ldd	r27, Y+3	; 0x03
    22e6:	8b 2f       	mov	r24, r27
    22e8:	99 27       	eor	r25, r25
    22ea:	aa 27       	eor	r26, r26
    22ec:	bb 27       	eor	r27, r27
    22ee:	bf 93       	push	r27
    22f0:	af 93       	push	r26
    22f2:	9f 93       	push	r25
    22f4:	8f 93       	push	r24
    22f6:	7f 92       	push	r7
    22f8:	6f 92       	push	r6
    22fa:	0e 94 f7 2a 	call	0x55ee	; 0x55ee <usart_write_P>
		usart_write("  PORT:%4i",HTONS(tcp_entry[index].src_port));
    22fe:	2c 81       	ldd	r18, Y+4	; 0x04
    2300:	3d 81       	ldd	r19, Y+5	; 0x05
    2302:	8c 81       	ldd	r24, Y+4	; 0x04
    2304:	9d 81       	ldd	r25, Y+5	; 0x05
    2306:	32 2f       	mov	r19, r18
    2308:	22 27       	eor	r18, r18
    230a:	89 2f       	mov	r24, r25
    230c:	99 27       	eor	r25, r25
    230e:	82 2b       	or	r24, r18
    2310:	93 2b       	or	r25, r19
    2312:	9f 93       	push	r25
    2314:	8f 93       	push	r24
    2316:	5f 92       	push	r5
    2318:	4f 92       	push	r4
    231a:	0e 94 f7 2a 	call	0x55ee	; 0x55ee <usart_write_P>
		usart_write("  Time:%4i\r\n",tcp_entry[index].time);
    231e:	8b 89       	ldd	r24, Y+19	; 0x13
    2320:	2d b7       	in	r18, 0x3d	; 61
    2322:	3e b7       	in	r19, 0x3e	; 62
    2324:	20 5e       	subi	r18, 0xE0	; 224
    2326:	3f 4f       	sbci	r19, 0xFF	; 255
    2328:	0f b6       	in	r0, 0x3f	; 63
    232a:	f8 94       	cli
    232c:	3e bf       	out	0x3e, r19	; 62
    232e:	0f be       	out	0x3f, r0	; 63
    2330:	2d bf       	out	0x3d, r18	; 61
    2332:	1f 92       	push	r1
    2334:	8f 93       	push	r24
    2336:	3f 92       	push	r3
    2338:	2f 92       	push	r2
    233a:	0e 94 f7 2a 	call	0x55ee	; 0x55ee <usart_write_P>
    233e:	0f 5f       	subi	r16, 0xFF	; 255
    2340:	1f 4f       	sbci	r17, 0xFF	; 255

//------------------------------------------------------------------------------
//print ARP table
void command_tcp (void)
{
	for (unsigned char index = 0;index<MAX_TCP_ENTRY;index++)
    2342:	0f 90       	pop	r0
    2344:	0f 90       	pop	r0
    2346:	0f 90       	pop	r0
    2348:	0f 90       	pop	r0
    234a:	05 30       	cpi	r16, 0x05	; 5
    234c:	11 05       	cpc	r17, r1
    234e:	09 f0       	breq	.+2      	; 0x2352 <command_tcp+0x16a>
    2350:	89 cf       	rjmp	.-238    	; 0x2264 <command_tcp+0x7c>
		usart_write(".%3i",((tcp_entry[index].ip&0x00FF0000)>>16));
		usart_write(".%3i",((tcp_entry[index].ip&0xFF000000)>>24));
		usart_write("  PORT:%4i",HTONS(tcp_entry[index].src_port));
		usart_write("  Time:%4i\r\n",tcp_entry[index].time);
	}
}
    2352:	df 91       	pop	r29
    2354:	cf 91       	pop	r28
    2356:	1f 91       	pop	r17
    2358:	0f 91       	pop	r16
    235a:	ff 90       	pop	r15
    235c:	ef 90       	pop	r14
    235e:	df 90       	pop	r13
    2360:	cf 90       	pop	r12
    2362:	bf 90       	pop	r11
    2364:	af 90       	pop	r10
    2366:	9f 90       	pop	r9
    2368:	8f 90       	pop	r8
    236a:	7f 90       	pop	r7
    236c:	6f 90       	pop	r6
    236e:	5f 90       	pop	r5
    2370:	4f 90       	pop	r4
    2372:	3f 90       	pop	r3
    2374:	2f 90       	pop	r2
    2376:	08 95       	ret

00002378 <command_setvar>:

//------------------------------------------------------------------------------
//ndern einer Variable
void command_setvar (void)
{
	var_array[variable[0]] = variable[1];
    2378:	a9 e6       	ldi	r26, 0x69	; 105
    237a:	b2 e0       	ldi	r27, 0x02	; 2
    237c:	ed 91       	ld	r30, X+
    237e:	fc 91       	ld	r31, X
    2380:	11 97       	sbiw	r26, 0x01	; 1
    2382:	12 96       	adiw	r26, 0x02	; 2
    2384:	8d 91       	ld	r24, X+
    2386:	9c 91       	ld	r25, X
    2388:	13 97       	sbiw	r26, 0x03	; 3
    238a:	ee 0f       	add	r30, r30
    238c:	ff 1f       	adc	r31, r31
    238e:	eb 55       	subi	r30, 0x5B	; 91
    2390:	ff 4f       	sbci	r31, 0xFF	; 255
    2392:	91 83       	std	Z+1, r25	; 0x01
    2394:	80 83       	st	Z, r24
	usart_write("Inhalt der Variable[%2i] = %2i\r\n",variable[0],var_array[variable[0]]);
    2396:	ed 91       	ld	r30, X+
    2398:	fc 91       	ld	r31, X
    239a:	11 97       	sbiw	r26, 0x01	; 1
    239c:	8d 91       	ld	r24, X+
    239e:	9c 91       	ld	r25, X
    23a0:	ee 0f       	add	r30, r30
    23a2:	ff 1f       	adc	r31, r31
    23a4:	eb 55       	subi	r30, 0x5B	; 91
    23a6:	ff 4f       	sbci	r31, 0xFF	; 255
    23a8:	21 81       	ldd	r18, Z+1	; 0x01
    23aa:	2f 93       	push	r18
    23ac:	20 81       	ld	r18, Z
    23ae:	2f 93       	push	r18
    23b0:	9f 93       	push	r25
    23b2:	8f 93       	push	r24
    23b4:	8f ea       	ldi	r24, 0xAF	; 175
    23b6:	90 e0       	ldi	r25, 0x00	; 0
    23b8:	9f 93       	push	r25
    23ba:	8f 93       	push	r24
    23bc:	0e 94 f7 2a 	call	0x55ee	; 0x55ee <usart_write_P>
}
    23c0:	0f 90       	pop	r0
    23c2:	0f 90       	pop	r0
    23c4:	0f 90       	pop	r0
    23c6:	0f 90       	pop	r0
    23c8:	0f 90       	pop	r0
    23ca:	0f 90       	pop	r0
    23cc:	08 95       	ret

000023ce <command_time>:

//------------------------------------------------------------------------------
//print Time
void command_time (void)
{
    23ce:	4f 92       	push	r4
    23d0:	5f 92       	push	r5
    23d2:	6f 92       	push	r6
    23d4:	7f 92       	push	r7
    23d6:	8f 92       	push	r8
    23d8:	9f 92       	push	r9
    23da:	af 92       	push	r10
    23dc:	bf 92       	push	r11
    23de:	cf 92       	push	r12
    23e0:	df 92       	push	r13
    23e2:	ef 92       	push	r14
    23e4:	ff 92       	push	r15
	unsigned char hh = (time/3600)%24;
    23e6:	80 90 04 03 	lds	r8, 0x0304	; 0x800304 <time>
    23ea:	90 90 05 03 	lds	r9, 0x0305	; 0x800305 <time+0x1>
    23ee:	a0 90 06 03 	lds	r10, 0x0306	; 0x800306 <time+0x2>
    23f2:	b0 90 07 03 	lds	r11, 0x0307	; 0x800307 <time+0x3>
	unsigned char mm = (time/60)%60;
    23f6:	40 90 04 03 	lds	r4, 0x0304	; 0x800304 <time>
    23fa:	50 90 05 03 	lds	r5, 0x0305	; 0x800305 <time+0x1>
    23fe:	60 90 06 03 	lds	r6, 0x0306	; 0x800306 <time+0x2>
    2402:	70 90 07 03 	lds	r7, 0x0307	; 0x800307 <time+0x3>
	unsigned char ss = time %60;
    2406:	60 91 04 03 	lds	r22, 0x0304	; 0x800304 <time>
    240a:	70 91 05 03 	lds	r23, 0x0305	; 0x800305 <time+0x1>
    240e:	80 91 06 03 	lds	r24, 0x0306	; 0x800306 <time+0x2>
    2412:	90 91 07 03 	lds	r25, 0x0307	; 0x800307 <time+0x3>
	usart_write ("\n\rTIME: %2i:%2i:%2i\r\n",hh,mm,ss);
    2416:	0f 2e       	mov	r0, r31
    2418:	fc e3       	ldi	r31, 0x3C	; 60
    241a:	cf 2e       	mov	r12, r31
    241c:	d1 2c       	mov	r13, r1
    241e:	e1 2c       	mov	r14, r1
    2420:	f1 2c       	mov	r15, r1
    2422:	f0 2d       	mov	r31, r0
    2424:	a7 01       	movw	r20, r14
    2426:	96 01       	movw	r18, r12
    2428:	0e 94 b5 2c 	call	0x596a	; 0x596a <__udivmodsi4>
    242c:	1f 92       	push	r1
    242e:	6f 93       	push	r22
    2430:	c3 01       	movw	r24, r6
    2432:	b2 01       	movw	r22, r4
    2434:	a7 01       	movw	r20, r14
    2436:	96 01       	movw	r18, r12
    2438:	0e 94 b5 2c 	call	0x596a	; 0x596a <__udivmodsi4>
    243c:	ca 01       	movw	r24, r20
    243e:	b9 01       	movw	r22, r18
    2440:	a7 01       	movw	r20, r14
    2442:	96 01       	movw	r18, r12
    2444:	0e 94 b5 2c 	call	0x596a	; 0x596a <__udivmodsi4>
    2448:	1f 92       	push	r1
    244a:	6f 93       	push	r22
    244c:	c5 01       	movw	r24, r10
    244e:	b4 01       	movw	r22, r8
    2450:	20 e1       	ldi	r18, 0x10	; 16
    2452:	3e e0       	ldi	r19, 0x0E	; 14
    2454:	40 e0       	ldi	r20, 0x00	; 0
    2456:	50 e0       	ldi	r21, 0x00	; 0
    2458:	0e 94 b5 2c 	call	0x596a	; 0x596a <__udivmodsi4>
    245c:	ca 01       	movw	r24, r20
    245e:	b9 01       	movw	r22, r18
    2460:	28 e1       	ldi	r18, 0x18	; 24
    2462:	30 e0       	ldi	r19, 0x00	; 0
    2464:	40 e0       	ldi	r20, 0x00	; 0
    2466:	50 e0       	ldi	r21, 0x00	; 0
    2468:	0e 94 b5 2c 	call	0x596a	; 0x596a <__udivmodsi4>
    246c:	1f 92       	push	r1
    246e:	6f 93       	push	r22
    2470:	89 e9       	ldi	r24, 0x99	; 153
    2472:	90 e0       	ldi	r25, 0x00	; 0
    2474:	9f 93       	push	r25
    2476:	8f 93       	push	r24
    2478:	0e 94 f7 2a 	call	0x55ee	; 0x55ee <usart_write_P>
}
    247c:	8d b7       	in	r24, 0x3d	; 61
    247e:	9e b7       	in	r25, 0x3e	; 62
    2480:	08 96       	adiw	r24, 0x08	; 8
    2482:	0f b6       	in	r0, 0x3f	; 63
    2484:	f8 94       	cli
    2486:	9e bf       	out	0x3e, r25	; 62
    2488:	0f be       	out	0x3f, r0	; 63
    248a:	8d bf       	out	0x3d, r24	; 61
    248c:	ff 90       	pop	r15
    248e:	ef 90       	pop	r14
    2490:	df 90       	pop	r13
    2492:	cf 90       	pop	r12
    2494:	bf 90       	pop	r11
    2496:	af 90       	pop	r10
    2498:	9f 90       	pop	r9
    249a:	8f 90       	pop	r8
    249c:	7f 90       	pop	r7
    249e:	6f 90       	pop	r6
    24a0:	5f 90       	pop	r5
    24a2:	4f 90       	pop	r4
    24a4:	08 95       	ret

000024a6 <command_help>:
}

//------------------------------------------------------------------------------
//print helptext
void command_help (void)
{
    24a6:	ef 92       	push	r14
    24a8:	ff 92       	push	r15
    24aa:	1f 93       	push	r17
    24ac:	cf 93       	push	r28
    24ae:	df 93       	push	r29
    24b0:	ca ed       	ldi	r28, 0xDA	; 218
    24b2:	d1 e0       	ldi	r29, 0x01	; 1
	PGM_P helptest_pointer = helptext;
	
	do
	{
		data = pgm_read_byte(helptest_pointer++);
		usart_write("%c",data);
    24b4:	0f 2e       	mov	r0, r31
    24b6:	f6 e9       	ldi	r31, 0x96	; 150
    24b8:	ef 2e       	mov	r14, r31
    24ba:	f0 e0       	ldi	r31, 0x00	; 0
    24bc:	ff 2e       	mov	r15, r31
    24be:	f0 2d       	mov	r31, r0
	unsigned char data;
	PGM_P helptest_pointer = helptext;
	
	do
	{
		data = pgm_read_byte(helptest_pointer++);
    24c0:	fe 01       	movw	r30, r28
    24c2:	14 91       	lpm	r17, Z
		usart_write("%c",data);
    24c4:	1f 92       	push	r1
    24c6:	1f 93       	push	r17
    24c8:	ff 92       	push	r15
    24ca:	ef 92       	push	r14
    24cc:	0e 94 f7 2a 	call	0x55ee	; 0x55ee <usart_write_P>
    24d0:	21 96       	adiw	r28, 0x01	; 1
	}while(data != 0);
    24d2:	0f 90       	pop	r0
    24d4:	0f 90       	pop	r0
    24d6:	0f 90       	pop	r0
    24d8:	0f 90       	pop	r0
    24da:	11 11       	cpse	r17, r1
    24dc:	f1 cf       	rjmp	.-30     	; 0x24c0 <command_help+0x1a>
#endif
}
    24de:	df 91       	pop	r29
    24e0:	cf 91       	pop	r28
    24e2:	1f 91       	pop	r17
    24e4:	ff 90       	pop	r15
    24e6:	ef 90       	pop	r14
    24e8:	08 95       	ret

000024ea <command_ping>:
}

//------------------------------------------------------------------------------
// Sende "Ping" an angegebene Adresse
void command_ping (void)
{
    24ea:	ef 92       	push	r14
    24ec:	ff 92       	push	r15
    24ee:	0f 93       	push	r16
    24f0:	1f 93       	push	r17
    24f2:	cf 93       	push	r28
    24f4:	df 93       	push	r29
	if (*((unsigned int*)&variable[0]) != 0x00000000)
    24f6:	80 91 69 02 	lds	r24, 0x0269	; 0x800269 <variable>
    24fa:	90 91 6a 02 	lds	r25, 0x026A	; 0x80026a <variable+0x1>
    24fe:	89 2b       	or	r24, r25
    2500:	09 f4       	brne	.+2      	; 0x2504 <command_ping+0x1a>
    2502:	48 c0       	rjmp	.+144    	; 0x2594 <command_ping+0xaa>
	{
		(*((unsigned long*)&ping.ip1[0])) = ((variable[0])+((unsigned long)(variable[1])<<8)+((unsigned long)(variable[2])<<16)+((unsigned long)(variable[3])<<24));
    2504:	a9 e6       	ldi	r26, 0x69	; 105
    2506:	b2 e0       	ldi	r27, 0x02	; 2
    2508:	ed 91       	ld	r30, X+
    250a:	fc 91       	ld	r31, X
    250c:	11 97       	sbiw	r26, 0x01	; 1
    250e:	12 96       	adiw	r26, 0x02	; 2
    2510:	8d 91       	ld	r24, X+
    2512:	9c 91       	ld	r25, X
    2514:	13 97       	sbiw	r26, 0x03	; 3
    2516:	14 96       	adiw	r26, 0x04	; 4
    2518:	4d 91       	ld	r20, X+
    251a:	5c 91       	ld	r21, X
    251c:	15 97       	sbiw	r26, 0x05	; 5
    251e:	16 96       	adiw	r26, 0x06	; 6
    2520:	2d 91       	ld	r18, X+
    2522:	3c 91       	ld	r19, X
    2524:	17 97       	sbiw	r26, 0x07	; 7
    2526:	a0 e0       	ldi	r26, 0x00	; 0
    2528:	b0 e0       	ldi	r27, 0x00	; 0
    252a:	ba 2f       	mov	r27, r26
    252c:	a9 2f       	mov	r26, r25
    252e:	98 2f       	mov	r25, r24
    2530:	88 27       	eor	r24, r24
    2532:	60 e0       	ldi	r22, 0x00	; 0
    2534:	70 e0       	ldi	r23, 0x00	; 0
    2536:	ba 01       	movw	r22, r20
    2538:	55 27       	eor	r21, r21
    253a:	44 27       	eor	r20, r20
    253c:	84 0f       	add	r24, r20
    253e:	95 1f       	adc	r25, r21
    2540:	a6 1f       	adc	r26, r22
    2542:	b7 1f       	adc	r27, r23
    2544:	8e 0f       	add	r24, r30
    2546:	9f 1f       	adc	r25, r31
    2548:	a1 1d       	adc	r26, r1
    254a:	b1 1d       	adc	r27, r1
    254c:	a9 01       	movw	r20, r18
    254e:	60 e0       	ldi	r22, 0x00	; 0
    2550:	70 e0       	ldi	r23, 0x00	; 0
    2552:	74 2f       	mov	r23, r20
    2554:	66 27       	eor	r22, r22
    2556:	55 27       	eor	r21, r21
    2558:	44 27       	eor	r20, r20
    255a:	8c 01       	movw	r16, r24
    255c:	9d 01       	movw	r18, r26
    255e:	04 0f       	add	r16, r20
    2560:	15 1f       	adc	r17, r21
    2562:	26 1f       	adc	r18, r22
    2564:	37 1f       	adc	r19, r23
    2566:	c9 01       	movw	r24, r18
    2568:	b8 01       	movw	r22, r16
    256a:	c9 ec       	ldi	r28, 0xC9	; 201
    256c:	d5 e0       	ldi	r29, 0x05	; 5
    256e:	08 83       	st	Y, r16
    2570:	19 83       	std	Y+1, r17	; 0x01
    2572:	2a 83       	std	Y+2, r18	; 0x02
    2574:	3b 83       	std	Y+3, r19	; 0x03
		//ARP Request senden
		arp_request ( (*(unsigned long*)&ping.ip1[0]));
    2576:	0e 94 d4 27 	call	0x4fa8	; 0x4fa8 <arp_request>
		
		//ICMP-Nachricht Type=8 Code=0: Echo-Anfrage
		//TODO: Sequenznummer, Identifier 
		icmp_send( (*(unsigned long*)&ping.ip1[0]),0x08,0x00,1,1);
    257a:	68 81       	ld	r22, Y
    257c:	79 81       	ldd	r23, Y+1	; 0x01
    257e:	8a 81       	ldd	r24, Y+2	; 0x02
    2580:	9b 81       	ldd	r25, Y+3	; 0x03
    2582:	ee 24       	eor	r14, r14
    2584:	e3 94       	inc	r14
    2586:	f1 2c       	mov	r15, r1
    2588:	01 e0       	ldi	r16, 0x01	; 1
    258a:	10 e0       	ldi	r17, 0x00	; 0
    258c:	20 e0       	ldi	r18, 0x00	; 0
    258e:	48 e0       	ldi	r20, 0x08	; 8
    2590:	0e 94 f5 21 	call	0x43ea	; 0x43ea <icmp_send>
	}
}
    2594:	df 91       	pop	r29
    2596:	cf 91       	pop	r28
    2598:	1f 91       	pop	r17
    259a:	0f 91       	pop	r16
    259c:	ff 90       	pop	r15
    259e:	ef 90       	pop	r14
    25a0:	08 95       	ret

000025a2 <extract_cmd>:
#endif

//------------------------------------------------------------------------------
//Commando auswerten
unsigned char extract_cmd (char *string_pointer)
{
    25a2:	cf 92       	push	r12
    25a4:	df 92       	push	r13
    25a6:	ff 92       	push	r15
    25a8:	0f 93       	push	r16
    25aa:	1f 93       	push	r17
    25ac:	cf 93       	push	r28
    25ae:	df 93       	push	r29
    25b0:	00 d0       	rcall	.+0      	; 0x25b2 <extract_cmd+0x10>
    25b2:	cd b7       	in	r28, 0x3d	; 61
    25b4:	de b7       	in	r29, 0x3e	; 62
    25b6:	9a 83       	std	Y+2, r25	; 0x02
    25b8:	89 83       	std	Y+1, r24	; 0x01
	//Stringzeiger;
	char *string_pointer_tmp;
	unsigned char cmd_index = 0;
 
    string_pointer_tmp = strsep(&string_pointer," "); 
    25ba:	69 ee       	ldi	r22, 0xE9	; 233
    25bc:	70 e0       	ldi	r23, 0x00	; 0
    25be:	ce 01       	movw	r24, r28
    25c0:	01 96       	adiw	r24, 0x01	; 1
    25c2:	0e 94 bf 2e 	call	0x5d7e	; 0x5d7e <strsep>
    25c6:	8c 01       	movw	r16, r24
//Commando auswerten
unsigned char extract_cmd (char *string_pointer)
{
	//Stringzeiger;
	char *string_pointer_tmp;
	unsigned char cmd_index = 0;
    25c8:	f1 2c       	mov	r15, r1
 
    string_pointer_tmp = strsep(&string_pointer," "); 

	//Kommando in Tabelle suchen
	while(strcasecmp(COMMAND_TABELLE[cmd_index].cmd,string_pointer_tmp))
    25ca:	0d c0       	rjmp	.+26     	; 0x25e6 <extract_cmd+0x44>
    {
        //Abruch Whileschleife und Unterprogramm verlassen 
        if (COMMAND_TABELLE[++cmd_index].cmd == 0) return(0);
    25cc:	f3 94       	inc	r15
    25ce:	ef 2d       	mov	r30, r15
    25d0:	f0 e0       	ldi	r31, 0x00	; 0
    25d2:	ee 0f       	add	r30, r30
    25d4:	ff 1f       	adc	r31, r31
    25d6:	ee 0f       	add	r30, r30
    25d8:	ff 1f       	adc	r31, r31
    25da:	e0 5a       	subi	r30, 0xA0	; 160
    25dc:	ff 4f       	sbci	r31, 0xFF	; 255
    25de:	80 81       	ld	r24, Z
    25e0:	91 81       	ldd	r25, Z+1	; 0x01
    25e2:	89 2b       	or	r24, r25
    25e4:	b9 f1       	breq	.+110    	; 0x2654 <extract_cmd+0xb2>
	unsigned char cmd_index = 0;
 
    string_pointer_tmp = strsep(&string_pointer," "); 

	//Kommando in Tabelle suchen
	while(strcasecmp(COMMAND_TABELLE[cmd_index].cmd,string_pointer_tmp))
    25e6:	cf 2c       	mov	r12, r15
    25e8:	d1 2c       	mov	r13, r1
    25ea:	f6 01       	movw	r30, r12
    25ec:	ee 0f       	add	r30, r30
    25ee:	ff 1f       	adc	r31, r31
    25f0:	ee 0f       	add	r30, r30
    25f2:	ff 1f       	adc	r31, r31
    25f4:	e0 5a       	subi	r30, 0xA0	; 160
    25f6:	ff 4f       	sbci	r31, 0xFF	; 255
    25f8:	b8 01       	movw	r22, r16
    25fa:	80 81       	ld	r24, Z
    25fc:	91 81       	ldd	r25, Z+1	; 0x01
    25fe:	0e 94 45 2e 	call	0x5c8a	; 0x5c8a <strcasecmp>
    2602:	89 2b       	or	r24, r25
    2604:	19 f7       	brne	.-58     	; 0x25cc <extract_cmd+0x2a>
    2606:	00 e0       	ldi	r16, 0x00	; 0
    2608:	10 e0       	ldi	r17, 0x00	; 0
    }
    
    //Variablen finden und auswerten
	for (unsigned char a = 0; a<MAX_VAR;a++)
	{ 
        string_pointer_tmp = strsep(&string_pointer,"., ");  
    260a:	67 ee       	ldi	r22, 0xE7	; 231
    260c:	70 e0       	ldi	r23, 0x00	; 0
    260e:	ce 01       	movw	r24, r28
    2610:	01 96       	adiw	r24, 0x01	; 1
    2612:	0e 94 bf 2e 	call	0x5d7e	; 0x5d7e <strsep>
		variable[a] = strtol(string_pointer_tmp,NULL,0);
    2616:	40 e0       	ldi	r20, 0x00	; 0
    2618:	50 e0       	ldi	r21, 0x00	; 0
    261a:	60 e0       	ldi	r22, 0x00	; 0
    261c:	70 e0       	ldi	r23, 0x00	; 0
    261e:	0e 94 d7 2c 	call	0x59ae	; 0x59ae <strtol>
    2622:	f8 01       	movw	r30, r16
    2624:	ee 0f       	add	r30, r30
    2626:	ff 1f       	adc	r31, r31
    2628:	e7 59       	subi	r30, 0x97	; 151
    262a:	fd 4f       	sbci	r31, 0xFD	; 253
    262c:	71 83       	std	Z+1, r23	; 0x01
    262e:	60 83       	st	Z, r22
    2630:	0f 5f       	subi	r16, 0xFF	; 255
    2632:	1f 4f       	sbci	r17, 0xFF	; 255
        //Abruch Whileschleife und Unterprogramm verlassen 
        if (COMMAND_TABELLE[++cmd_index].cmd == 0) return(0);
    }
    
    //Variablen finden und auswerten
	for (unsigned char a = 0; a<MAX_VAR;a++)
    2634:	0a 30       	cpi	r16, 0x0A	; 10
    2636:	11 05       	cpc	r17, r1
    2638:	41 f7       	brne	.-48     	; 0x260a <extract_cmd+0x68>
        string_pointer_tmp = strsep(&string_pointer,"., ");  
		variable[a] = strtol(string_pointer_tmp,NULL,0);
	}

    //Kommando ausfhren
	COMMAND_TABELLE[cmd_index].fp();
    263a:	f6 01       	movw	r30, r12
    263c:	ee 0f       	add	r30, r30
    263e:	ff 1f       	adc	r31, r31
    2640:	ee 0f       	add	r30, r30
    2642:	ff 1f       	adc	r31, r31
    2644:	e0 5a       	subi	r30, 0xA0	; 160
    2646:	ff 4f       	sbci	r31, 0xFF	; 255
    2648:	02 80       	ldd	r0, Z+2	; 0x02
    264a:	f3 81       	ldd	r31, Z+3	; 0x03
    264c:	e0 2d       	mov	r30, r0
    264e:	09 95       	icall
	return(1); 
    2650:	81 e0       	ldi	r24, 0x01	; 1
    2652:	01 c0       	rjmp	.+2      	; 0x2656 <extract_cmd+0xb4>

	//Kommando in Tabelle suchen
	while(strcasecmp(COMMAND_TABELLE[cmd_index].cmd,string_pointer_tmp))
    {
        //Abruch Whileschleife und Unterprogramm verlassen 
        if (COMMAND_TABELLE[++cmd_index].cmd == 0) return(0);
    2654:	80 e0       	ldi	r24, 0x00	; 0
	}

    //Kommando ausfhren
	COMMAND_TABELLE[cmd_index].fp();
	return(1); 
}
    2656:	0f 90       	pop	r0
    2658:	0f 90       	pop	r0
    265a:	df 91       	pop	r29
    265c:	cf 91       	pop	r28
    265e:	1f 91       	pop	r17
    2660:	0f 91       	pop	r16
    2662:	ff 90       	pop	r15
    2664:	df 90       	pop	r13
    2666:	cf 90       	pop	r12
    2668:	08 95       	ret

0000266a <write_eeprom_ip>:
}

//------------------------------------------------------------------------------
//
void write_eeprom_ip (unsigned int eeprom_adresse)
{
    266a:	0f 93       	push	r16
    266c:	1f 93       	push	r17
    266e:	cf 93       	push	r28
    2670:	df 93       	push	r29
	if (*((unsigned int*)&variable[0]) != 0x00000000)
    2672:	20 91 69 02 	lds	r18, 0x0269	; 0x800269 <variable>
    2676:	30 91 6a 02 	lds	r19, 0x026A	; 0x80026a <variable+0x1>
    267a:	23 2b       	or	r18, r19
    267c:	a9 f0       	breq	.+42     	; 0x26a8 <write_eeprom_ip+0x3e>
    267e:	8c 01       	movw	r16, r24
    2680:	c0 e0       	ldi	r28, 0x00	; 0
    2682:	d0 e0       	ldi	r29, 0x00	; 0
	{	
		//value ins EEPROM schreiben
		for (unsigned char count = 0; count<4;count++)
		{
			eeprom_busy_wait ();
    2684:	e1 99       	sbic	0x1c, 1	; 28
    2686:	fe cf       	rjmp	.-4      	; 0x2684 <write_eeprom_ip+0x1a>
			eeprom_write_byte((unsigned char *)(eeprom_adresse + count),variable[count]);
    2688:	fe 01       	movw	r30, r28
    268a:	ee 0f       	add	r30, r30
    268c:	ff 1f       	adc	r31, r31
    268e:	e7 59       	subi	r30, 0x97	; 151
    2690:	fd 4f       	sbci	r31, 0xFD	; 253
    2692:	60 81       	ld	r22, Z
    2694:	71 81       	ldd	r23, Z+1	; 0x01
    2696:	c8 01       	movw	r24, r16
    2698:	8c 0f       	add	r24, r28
    269a:	9d 1f       	adc	r25, r29
    269c:	0e 94 2a 2f 	call	0x5e54	; 0x5e54 <eeprom_write_byte>
    26a0:	21 96       	adiw	r28, 0x01	; 1
void write_eeprom_ip (unsigned int eeprom_adresse)
{
	if (*((unsigned int*)&variable[0]) != 0x00000000)
	{	
		//value ins EEPROM schreiben
		for (unsigned char count = 0; count<4;count++)
    26a2:	c4 30       	cpi	r28, 0x04	; 4
    26a4:	d1 05       	cpc	r29, r1
    26a6:	71 f7       	brne	.-36     	; 0x2684 <write_eeprom_ip+0x1a>
		{
			eeprom_busy_wait ();
			eeprom_write_byte((unsigned char *)(eeprom_adresse + count),variable[count]);
		}
	}
}
    26a8:	df 91       	pop	r29
    26aa:	cf 91       	pop	r28
    26ac:	1f 91       	pop	r17
    26ae:	0f 91       	pop	r16
    26b0:	08 95       	ret

000026b2 <command_ip>:
}

//------------------------------------------------------------------------------
//print/edit own IP
void command_ip (void)
{
    26b2:	cf 93       	push	r28
    26b4:	df 93       	push	r29
	write_eeprom_ip(IP_EEPROM_STORE);
    26b6:	8e e1       	ldi	r24, 0x1E	; 30
    26b8:	90 e0       	ldi	r25, 0x00	; 0
    26ba:	0e 94 35 13 	call	0x266a	; 0x266a <write_eeprom_ip>
	(*((unsigned long*)&myip[0])) = get_eeprom_value(IP_EEPROM_STORE,MYIP);
    26be:	40 ec       	ldi	r20, 0xC0	; 192
    26c0:	58 ea       	ldi	r21, 0xA8	; 168
    26c2:	60 e0       	ldi	r22, 0x00	; 0
    26c4:	73 e6       	ldi	r23, 0x63	; 99
    26c6:	8e e1       	ldi	r24, 0x1E	; 30
    26c8:	90 e0       	ldi	r25, 0x00	; 0
    26ca:	0e 94 a2 1d 	call	0x3b44	; 0x3b44 <get_eeprom_value>
    26ce:	cf ec       	ldi	r28, 0xCF	; 207
    26d0:	d5 e0       	ldi	r29, 0x05	; 5
    26d2:	68 83       	st	Y, r22
    26d4:	79 83       	std	Y+1, r23	; 0x01
    26d6:	8a 83       	std	Y+2, r24	; 0x02
    26d8:	9b 83       	std	Y+3, r25	; 0x03
	usart_write("My IP: %1i.%1i.%1i.%1i\r\n",myip[0],myip[1],myip[2],myip[3]);
    26da:	8b 81       	ldd	r24, Y+3	; 0x03
    26dc:	1f 92       	push	r1
    26de:	8f 93       	push	r24
    26e0:	8a 81       	ldd	r24, Y+2	; 0x02
    26e2:	1f 92       	push	r1
    26e4:	8f 93       	push	r24
    26e6:	89 81       	ldd	r24, Y+1	; 0x01
    26e8:	1f 92       	push	r1
    26ea:	8f 93       	push	r24
    26ec:	88 81       	ld	r24, Y
    26ee:	1f 92       	push	r1
    26f0:	8f 93       	push	r24
    26f2:	81 ec       	ldi	r24, 0xC1	; 193
    26f4:	91 e0       	ldi	r25, 0x01	; 1
    26f6:	9f 93       	push	r25
    26f8:	8f 93       	push	r24
    26fa:	0e 94 f7 2a 	call	0x55ee	; 0x55ee <usart_write_P>
	//Broadcast-Adresse berechnen
	(*((unsigned long*)&broadcast_ip[0])) = (((*((unsigned long*)&myip[0])) & (*((unsigned long*)&netmask[0]))) | (~(*((unsigned long*)&netmask[0]))));
    26fe:	80 91 d7 05 	lds	r24, 0x05D7	; 0x8005d7 <netmask>
    2702:	90 91 d8 05 	lds	r25, 0x05D8	; 0x8005d8 <netmask+0x1>
    2706:	a0 91 d9 05 	lds	r26, 0x05D9	; 0x8005d9 <netmask+0x2>
    270a:	b0 91 da 05 	lds	r27, 0x05DA	; 0x8005da <netmask+0x3>
    270e:	48 81       	ld	r20, Y
    2710:	59 81       	ldd	r21, Y+1	; 0x01
    2712:	6a 81       	ldd	r22, Y+2	; 0x02
    2714:	7b 81       	ldd	r23, Y+3	; 0x03
    2716:	48 23       	and	r20, r24
    2718:	59 23       	and	r21, r25
    271a:	6a 23       	and	r22, r26
    271c:	7b 23       	and	r23, r27
    271e:	80 95       	com	r24
    2720:	90 95       	com	r25
    2722:	a0 95       	com	r26
    2724:	b0 95       	com	r27
    2726:	84 2b       	or	r24, r20
    2728:	95 2b       	or	r25, r21
    272a:	a6 2b       	or	r26, r22
    272c:	b7 2b       	or	r27, r23
    272e:	80 93 db 05 	sts	0x05DB, r24	; 0x8005db <broadcast_ip>
    2732:	90 93 dc 05 	sts	0x05DC, r25	; 0x8005dc <broadcast_ip+0x1>
    2736:	a0 93 dd 05 	sts	0x05DD, r26	; 0x8005dd <broadcast_ip+0x2>
    273a:	b0 93 de 05 	sts	0x05DE, r27	; 0x8005de <broadcast_ip+0x3>

}
    273e:	8d b7       	in	r24, 0x3d	; 61
    2740:	9e b7       	in	r25, 0x3e	; 62
    2742:	0a 96       	adiw	r24, 0x0a	; 10
    2744:	0f b6       	in	r0, 0x3f	; 63
    2746:	f8 94       	cli
    2748:	9e bf       	out	0x3e, r25	; 62
    274a:	0f be       	out	0x3f, r0	; 63
    274c:	8d bf       	out	0x3d, r24	; 61
    274e:	df 91       	pop	r29
    2750:	cf 91       	pop	r28
    2752:	08 95       	ret

00002754 <command_net>:
}

//------------------------------------------------------------------------------
//print/edit Netmask
void command_net (void)
{
    2754:	cf 93       	push	r28
    2756:	df 93       	push	r29
	write_eeprom_ip(NETMASK_EEPROM_STORE);
    2758:	82 e2       	ldi	r24, 0x22	; 34
    275a:	90 e0       	ldi	r25, 0x00	; 0
    275c:	0e 94 35 13 	call	0x266a	; 0x266a <write_eeprom_ip>
	(*((unsigned long*)&netmask[0])) = get_eeprom_value(NETMASK_EEPROM_STORE,NETMASK);
    2760:	4f ef       	ldi	r20, 0xFF	; 255
    2762:	5f ef       	ldi	r21, 0xFF	; 255
    2764:	6f ef       	ldi	r22, 0xFF	; 255
    2766:	70 e0       	ldi	r23, 0x00	; 0
    2768:	82 e2       	ldi	r24, 0x22	; 34
    276a:	90 e0       	ldi	r25, 0x00	; 0
    276c:	0e 94 a2 1d 	call	0x3b44	; 0x3b44 <get_eeprom_value>
    2770:	c7 ed       	ldi	r28, 0xD7	; 215
    2772:	d5 e0       	ldi	r29, 0x05	; 5
    2774:	68 83       	st	Y, r22
    2776:	79 83       	std	Y+1, r23	; 0x01
    2778:	8a 83       	std	Y+2, r24	; 0x02
    277a:	9b 83       	std	Y+3, r25	; 0x03
	usart_write("NETMASK: %1i.%1i.%1i.%1i\r\n",netmask[0],netmask[1],netmask[2],netmask[3]);
    277c:	8b 81       	ldd	r24, Y+3	; 0x03
    277e:	1f 92       	push	r1
    2780:	8f 93       	push	r24
    2782:	8a 81       	ldd	r24, Y+2	; 0x02
    2784:	1f 92       	push	r1
    2786:	8f 93       	push	r24
    2788:	89 81       	ldd	r24, Y+1	; 0x01
    278a:	1f 92       	push	r1
    278c:	8f 93       	push	r24
    278e:	88 81       	ld	r24, Y
    2790:	1f 92       	push	r1
    2792:	8f 93       	push	r24
    2794:	86 ea       	ldi	r24, 0xA6	; 166
    2796:	91 e0       	ldi	r25, 0x01	; 1
    2798:	9f 93       	push	r25
    279a:	8f 93       	push	r24
    279c:	0e 94 f7 2a 	call	0x55ee	; 0x55ee <usart_write_P>
	//Broadcast-Adresse berechnen
    (*((unsigned long*)&broadcast_ip[0])) = (((*((unsigned long*)&myip[0])) & (*((unsigned long*)&netmask[0]))) | (~(*((unsigned long*)&netmask[0]))));
    27a0:	88 81       	ld	r24, Y
    27a2:	99 81       	ldd	r25, Y+1	; 0x01
    27a4:	aa 81       	ldd	r26, Y+2	; 0x02
    27a6:	bb 81       	ldd	r27, Y+3	; 0x03
    27a8:	40 91 cf 05 	lds	r20, 0x05CF	; 0x8005cf <myip>
    27ac:	50 91 d0 05 	lds	r21, 0x05D0	; 0x8005d0 <myip+0x1>
    27b0:	60 91 d1 05 	lds	r22, 0x05D1	; 0x8005d1 <myip+0x2>
    27b4:	70 91 d2 05 	lds	r23, 0x05D2	; 0x8005d2 <myip+0x3>
    27b8:	48 23       	and	r20, r24
    27ba:	59 23       	and	r21, r25
    27bc:	6a 23       	and	r22, r26
    27be:	7b 23       	and	r23, r27
    27c0:	80 95       	com	r24
    27c2:	90 95       	com	r25
    27c4:	a0 95       	com	r26
    27c6:	b0 95       	com	r27
    27c8:	84 2b       	or	r24, r20
    27ca:	95 2b       	or	r25, r21
    27cc:	a6 2b       	or	r26, r22
    27ce:	b7 2b       	or	r27, r23
    27d0:	80 93 db 05 	sts	0x05DB, r24	; 0x8005db <broadcast_ip>
    27d4:	90 93 dc 05 	sts	0x05DC, r25	; 0x8005dc <broadcast_ip+0x1>
    27d8:	a0 93 dd 05 	sts	0x05DD, r26	; 0x8005dd <broadcast_ip+0x2>
    27dc:	b0 93 de 05 	sts	0x05DE, r27	; 0x8005de <broadcast_ip+0x3>
}
    27e0:	8d b7       	in	r24, 0x3d	; 61
    27e2:	9e b7       	in	r25, 0x3e	; 62
    27e4:	0a 96       	adiw	r24, 0x0a	; 10
    27e6:	0f b6       	in	r0, 0x3f	; 63
    27e8:	f8 94       	cli
    27ea:	9e bf       	out	0x3e, r25	; 62
    27ec:	0f be       	out	0x3f, r0	; 63
    27ee:	8d bf       	out	0x3d, r24	; 61
    27f0:	df 91       	pop	r29
    27f2:	cf 91       	pop	r28
    27f4:	08 95       	ret

000027f6 <command_router>:

//------------------------------------------------------------------------------
//print/edit Router IP
void command_router (void)
{
	write_eeprom_ip(ROUTER_IP_EEPROM_STORE);
    27f6:	86 e2       	ldi	r24, 0x26	; 38
    27f8:	90 e0       	ldi	r25, 0x00	; 0
    27fa:	0e 94 35 13 	call	0x266a	; 0x266a <write_eeprom_ip>
	(*((unsigned long*)&router_ip[0])) = get_eeprom_value(ROUTER_IP_EEPROM_STORE,ROUTER_IP);
    27fe:	40 ec       	ldi	r20, 0xC0	; 192
    2800:	58 ea       	ldi	r21, 0xA8	; 168
    2802:	60 e0       	ldi	r22, 0x00	; 0
    2804:	71 e0       	ldi	r23, 0x01	; 1
    2806:	86 e2       	ldi	r24, 0x26	; 38
    2808:	90 e0       	ldi	r25, 0x00	; 0
    280a:	0e 94 a2 1d 	call	0x3b44	; 0x3b44 <get_eeprom_value>
    280e:	e3 ed       	ldi	r30, 0xD3	; 211
    2810:	f5 e0       	ldi	r31, 0x05	; 5
    2812:	60 83       	st	Z, r22
    2814:	71 83       	std	Z+1, r23	; 0x01
    2816:	82 83       	std	Z+2, r24	; 0x02
    2818:	93 83       	std	Z+3, r25	; 0x03
	usart_write("Router IP: %1i.%1i.%1i.%1i\r\n",router_ip[0],router_ip[1],router_ip[2],router_ip[3]);
    281a:	83 81       	ldd	r24, Z+3	; 0x03
    281c:	1f 92       	push	r1
    281e:	8f 93       	push	r24
    2820:	82 81       	ldd	r24, Z+2	; 0x02
    2822:	1f 92       	push	r1
    2824:	8f 93       	push	r24
    2826:	81 81       	ldd	r24, Z+1	; 0x01
    2828:	1f 92       	push	r1
    282a:	8f 93       	push	r24
    282c:	80 81       	ld	r24, Z
    282e:	1f 92       	push	r1
    2830:	8f 93       	push	r24
    2832:	89 e8       	ldi	r24, 0x89	; 137
    2834:	91 e0       	ldi	r25, 0x01	; 1
    2836:	9f 93       	push	r25
    2838:	8f 93       	push	r24
    283a:	0e 94 f7 2a 	call	0x55ee	; 0x55ee <usart_write_P>
}
    283e:	8d b7       	in	r24, 0x3d	; 61
    2840:	9e b7       	in	r25, 0x3e	; 62
    2842:	0a 96       	adiw	r24, 0x0a	; 10
    2844:	0f b6       	in	r0, 0x3f	; 63
    2846:	f8 94       	cli
    2848:	9e bf       	out	0x3e, r25	; 62
    284a:	0f be       	out	0x3f, r0	; 63
    284c:	8d bf       	out	0x3d, r24	; 61
    284e:	08 95       	ret

00002850 <httpd_init>:
//----------------------------------------------------------------------------
//Initialisierung des Httpd Testservers
void httpd_init (void)
{
	//HTTP_AUTH_STRING 
	decode_base64((unsigned char*)HTTP_AUTH_STRING,http_auth_passwort);
    2850:	68 e0       	ldi	r22, 0x08	; 8
    2852:	73 e0       	ldi	r23, 0x03	; 3
    2854:	8c e2       	ldi	r24, 0x2C	; 44
    2856:	91 e0       	ldi	r25, 0x01	; 1
    2858:	0e 94 51 0f 	call	0x1ea2	; 0x1ea2 <decode_base64>

	//Serverport und Anwendung eintragen
	add_tcp_app (HTTPD_PORT, (void(*)(unsigned char))httpd);
    285c:	65 ed       	ldi	r22, 0xD5	; 213
    285e:	79 e1       	ldi	r23, 0x19	; 25
    2860:	80 e5       	ldi	r24, 0x50	; 80
    2862:	90 e0       	ldi	r25, 0x00	; 0
    2864:	0e 94 a3 1e 	call	0x3d46	; 0x3d46 <add_tcp_app>
    2868:	08 95       	ret

0000286a <httpd_stack_clear>:

//----------------------------------------------------------------------------
//HTTPD_STACK lschen
void httpd_stack_clear (unsigned char index)
{
	http_entry[index].http_header_type = TEXT_HTML;
    286a:	9d e0       	ldi	r25, 0x0D	; 13
    286c:	89 9f       	mul	r24, r25
    286e:	f0 01       	movw	r30, r0
    2870:	11 24       	eor	r1, r1
    2872:	df 01       	movw	r26, r30
    2874:	a2 5d       	subi	r26, 0xD2	; 210
    2876:	bc 4f       	sbci	r27, 0xFC	; 252
    2878:	8c 91       	ld	r24, X
	http_entry[index].first_switch = 0;
    287a:	81 7e       	andi	r24, 0xE1	; 225
	http_entry[index].http_auth = HTTP_AUTH_DEFAULT;
	http_entry[index].new_page_pointer = 0;
    287c:	ea 5d       	subi	r30, 0xDA	; 218
    287e:	fc 4f       	sbci	r31, 0xFC	; 252
    2880:	13 82       	std	Z+3, r1	; 0x03
    2882:	12 82       	std	Z+2, r1	; 0x02
	http_entry[index].old_page_pointer = 0;
    2884:	11 82       	std	Z+1, r1	; 0x01
    2886:	10 82       	st	Z, r1
	http_entry[index].post = 0;
    2888:	83 60       	ori	r24, 0x03	; 3
    288a:	8f 7d       	andi	r24, 0xDF	; 223
    288c:	8c 93       	st	X, r24
	http_entry[index].auth_ptr = http_auth_passwort;
    288e:	88 e0       	ldi	r24, 0x08	; 8
    2890:	93 e0       	ldi	r25, 0x03	; 3
    2892:	95 83       	std	Z+5, r25	; 0x05
    2894:	84 83       	std	Z+4, r24	; 0x04
	http_entry[index].post_ptr = post_in;
    2896:	8e eb       	ldi	r24, 0xBE	; 190
    2898:	90 e0       	ldi	r25, 0x00	; 0
    289a:	92 87       	std	Z+10, r25	; 0x0a
    289c:	81 87       	std	Z+9, r24	; 0x09
	http_entry[index].post_ready_ptr = post_ready;
    289e:	89 eb       	ldi	r24, 0xB9	; 185
    28a0:	90 e0       	ldi	r25, 0x00	; 0
    28a2:	94 87       	std	Z+12, r25	; 0x0c
    28a4:	83 87       	std	Z+11, r24	; 0x0b
	http_entry[index].hdr_end_pointer = rx_header_end;
    28a6:	80 ea       	ldi	r24, 0xA0	; 160
    28a8:	90 e0       	ldi	r25, 0x00	; 0
    28aa:	97 83       	std	Z+7, r25	; 0x07
    28ac:	86 83       	std	Z+6, r24	; 0x06
    28ae:	08 95       	ret

000028b0 <httpd_header_check>:
}

//----------------------------------------------------------------------------
//Eintreffenden Header vom Client checken
void httpd_header_check (unsigned char index)
{
    28b0:	2f 92       	push	r2
    28b2:	3f 92       	push	r3
    28b4:	4f 92       	push	r4
    28b6:	5f 92       	push	r5
    28b8:	6f 92       	push	r6
    28ba:	7f 92       	push	r7
    28bc:	8f 92       	push	r8
    28be:	9f 92       	push	r9
    28c0:	af 92       	push	r10
    28c2:	bf 92       	push	r11
    28c4:	cf 92       	push	r12
    28c6:	df 92       	push	r13
    28c8:	ef 92       	push	r14
    28ca:	ff 92       	push	r15
    28cc:	0f 93       	push	r16
    28ce:	1f 93       	push	r17
    28d0:	cf 93       	push	r28
    28d2:	df 93       	push	r29
    28d4:	98 2e       	mov	r9, r24
	unsigned int a = 0;
	
	if(strcasestr_P((char*)&eth_buffer[TCP_DATA_START_VAR],PSTR("POST"))!=0)
    28d6:	80 91 9e 03 	lds	r24, 0x039E	; 0x80039e <eth_buffer+0x2e>
    28da:	80 7f       	andi	r24, 0xF0	; 240
    28dc:	a8 2e       	mov	r10, r24
    28de:	b1 2c       	mov	r11, r1
    28e0:	b5 94       	asr	r11
    28e2:	a7 94       	ror	r10
    28e4:	b5 94       	asr	r11
    28e6:	a7 94       	ror	r10
    28e8:	35 01       	movw	r6, r10
    28ea:	22 e2       	ldi	r18, 0x22	; 34
    28ec:	62 0e       	add	r6, r18
    28ee:	71 1c       	adc	r7, r1
    28f0:	6d e8       	ldi	r22, 0x8D	; 141
    28f2:	73 e0       	ldi	r23, 0x03	; 3
    28f4:	c3 01       	movw	r24, r6
    28f6:	80 59       	subi	r24, 0x90	; 144
    28f8:	9c 4f       	sbci	r25, 0xFC	; 252
    28fa:	0e 94 7d 2e 	call	0x5cfa	; 0x5cfa <strcasestr_P>
    28fe:	89 2b       	or	r24, r25
    2900:	49 f0       	breq	.+18     	; 0x2914 <httpd_header_check+0x64>
		{
		http_entry[index].post = 1;
    2902:	3d e0       	ldi	r19, 0x0D	; 13
    2904:	93 9e       	mul	r9, r19
    2906:	f0 01       	movw	r30, r0
    2908:	11 24       	eor	r1, r1
    290a:	e2 5d       	subi	r30, 0xD2	; 210
    290c:	fc 4f       	sbci	r31, 0xFC	; 252
    290e:	80 81       	ld	r24, Z
    2910:	80 62       	ori	r24, 0x20	; 32
    2912:	80 83       	st	Z, r24
		}
	
	//finden der Authorization und das Ende im Header auch ber mehrere Packete hinweg!!	
	if(*http_entry[index].hdr_end_pointer != 0)
    2914:	09 2d       	mov	r16, r9
    2916:	10 e0       	ldi	r17, 0x00	; 0
    2918:	4d e0       	ldi	r20, 0x0D	; 13
    291a:	94 9e       	mul	r9, r20
    291c:	f0 01       	movw	r30, r0
    291e:	11 24       	eor	r1, r1
    2920:	ea 5d       	subi	r30, 0xDA	; 218
    2922:	fc 4f       	sbci	r31, 0xFC	; 252
    2924:	06 80       	ldd	r0, Z+6	; 0x06
    2926:	f7 81       	ldd	r31, Z+7	; 0x07
    2928:	e0 2d       	mov	r30, r0
    292a:	80 81       	ld	r24, Z
    292c:	88 23       	and	r24, r24
    292e:	09 f4       	brne	.+2      	; 0x2932 <httpd_header_check+0x82>
    2930:	67 c0       	rjmp	.+206    	; 0x2a00 <httpd_header_check+0x150>
	{		
		for(a=TCP_DATA_START_VAR;a<(TCP_DATA_END_VAR);a++)
    2932:	c3 01       	movw	r24, r6
    2934:	e0 e7       	ldi	r30, 0x70	; 112
    2936:	f3 e0       	ldi	r31, 0x03	; 3
    2938:	20 89       	ldd	r18, Z+16	; 0x10
    293a:	30 e0       	ldi	r19, 0x00	; 0
    293c:	32 2f       	mov	r19, r18
    293e:	22 27       	eor	r18, r18
    2940:	41 89       	ldd	r20, Z+17	; 0x11
    2942:	24 0f       	add	r18, r20
    2944:	31 1d       	adc	r19, r1
    2946:	2e 5d       	subi	r18, 0xDE	; 222
    2948:	3f 4f       	sbci	r19, 0xFF	; 255
    294a:	2a 19       	sub	r18, r10
    294c:	3b 09       	sbc	r19, r11
    294e:	62 16       	cp	r6, r18
    2950:	73 06       	cpc	r7, r19
    2952:	08 f0       	brcs	.+2      	; 0x2956 <httpd_header_check+0xa6>
    2954:	55 c0       	rjmp	.+170    	; 0x2a00 <httpd_header_check+0x150>
    2956:	e5 01       	movw	r28, r10
    2958:	ce 56       	subi	r28, 0x6E	; 110
    295a:	dc 4f       	sbci	r29, 0xFC	; 252
		{	
			HTTP_DEBUG("%c",eth_buffer[a]);
			
			if(!http_entry[index].http_auth) 
    295c:	4d e0       	ldi	r20, 0x0D	; 13
    295e:	40 9f       	mul	r20, r16
    2960:	f0 01       	movw	r30, r0
    2962:	41 9f       	mul	r20, r17
    2964:	f0 0d       	add	r31, r0
    2966:	11 24       	eor	r1, r1
    2968:	df 01       	movw	r26, r30
    296a:	a2 5d       	subi	r26, 0xD2	; 210
    296c:	bc 4f       	sbci	r27, 0xFC	; 252
    296e:	7d 01       	movw	r14, r26
			{
				if (eth_buffer[a] != *http_entry[index].auth_ptr++)
    2970:	ea 5d       	subi	r30, 0xDA	; 218
    2972:	fc 4f       	sbci	r31, 0xFC	; 252
    2974:	bf 01       	movw	r22, r30
    2976:	6c 5f       	subi	r22, 0xFC	; 252
    2978:	7f 4f       	sbci	r23, 0xFF	; 255
				{
					http_entry[index].auth_ptr = http_auth_passwort;
    297a:	0f 2e       	mov	r0, r31
    297c:	f8 e0       	ldi	r31, 0x08	; 8
    297e:	4f 2e       	mov	r4, r31
    2980:	f3 e0       	ldi	r31, 0x03	; 3
    2982:	5f 2e       	mov	r5, r31
    2984:	f0 2d       	mov	r31, r0
					http_entry[index].http_auth = 1;
					HTTP_DEBUG("  <---LOGIN OK!--->\r\n");
				}
			}
			
			if (eth_buffer[a] != *http_entry[index].hdr_end_pointer++)
    2986:	36 96       	adiw	r30, 0x06	; 6
			{
				http_entry[index].hdr_end_pointer = rx_header_end;
    2988:	0f 2e       	mov	r0, r31
    298a:	f0 ea       	ldi	r31, 0xA0	; 160
    298c:	cf 2e       	mov	r12, r31
    298e:	f0 e0       	ldi	r31, 0x00	; 0
    2990:	df 2e       	mov	r13, r31
    2992:	f0 2d       	mov	r31, r0
	{		
		for(a=TCP_DATA_START_VAR;a<(TCP_DATA_END_VAR);a++)
		{	
			HTTP_DEBUG("%c",eth_buffer[a]);
			
			if(!http_entry[index].http_auth) 
    2994:	d7 01       	movw	r26, r14
    2996:	4c 91       	ld	r20, X
    2998:	40 fd       	sbrc	r20, 0
    299a:	1c c0       	rjmp	.+56     	; 0x29d4 <httpd_header_check+0x124>
			{
				if (eth_buffer[a] != *http_entry[index].auth_ptr++)
    299c:	88 80       	ld	r8, Y
    299e:	db 01       	movw	r26, r22
    29a0:	2d 90       	ld	r2, X+
    29a2:	3c 90       	ld	r3, X
    29a4:	11 97       	sbiw	r26, 0x01	; 1
    29a6:	a1 01       	movw	r20, r2
    29a8:	4f 5f       	subi	r20, 0xFF	; 255
    29aa:	5f 4f       	sbci	r21, 0xFF	; 255
    29ac:	4d 93       	st	X+, r20
    29ae:	5c 93       	st	X, r21
    29b0:	d1 01       	movw	r26, r2
    29b2:	4c 91       	ld	r20, X
    29b4:	84 16       	cp	r8, r20
    29b6:	19 f0       	breq	.+6      	; 0x29be <httpd_header_check+0x10e>
				{
					http_entry[index].auth_ptr = http_auth_passwort;
    29b8:	db 01       	movw	r26, r22
    29ba:	4d 92       	st	X+, r4
    29bc:	5c 92       	st	X, r5
				}
				if(*http_entry[index].auth_ptr == 0) 
    29be:	db 01       	movw	r26, r22
    29c0:	4d 91       	ld	r20, X+
    29c2:	5c 91       	ld	r21, X
    29c4:	da 01       	movw	r26, r20
    29c6:	4c 91       	ld	r20, X
    29c8:	41 11       	cpse	r20, r1
    29ca:	04 c0       	rjmp	.+8      	; 0x29d4 <httpd_header_check+0x124>
				{
					http_entry[index].http_auth = 1;
    29cc:	d7 01       	movw	r26, r14
    29ce:	4c 91       	ld	r20, X
    29d0:	41 60       	ori	r20, 0x01	; 1
    29d2:	4c 93       	st	X, r20
					HTTP_DEBUG("  <---LOGIN OK!--->\r\n");
				}
			}
			
			if (eth_buffer[a] != *http_entry[index].hdr_end_pointer++)
    29d4:	89 90       	ld	r8, Y+
    29d6:	a0 81       	ld	r26, Z
    29d8:	b1 81       	ldd	r27, Z+1	; 0x01
    29da:	ad 01       	movw	r20, r26
    29dc:	4f 5f       	subi	r20, 0xFF	; 255
    29de:	5f 4f       	sbci	r21, 0xFF	; 255
    29e0:	51 83       	std	Z+1, r21	; 0x01
    29e2:	40 83       	st	Z, r20
    29e4:	4c 91       	ld	r20, X
    29e6:	84 16       	cp	r8, r20
    29e8:	11 f0       	breq	.+4      	; 0x29ee <httpd_header_check+0x13e>
			{
				http_entry[index].hdr_end_pointer = rx_header_end;
    29ea:	d1 82       	std	Z+1, r13	; 0x01
    29ec:	c0 82       	st	Z, r12
			}
			
			//Das Headerende wird mit (CR+LF+CR+LF) angezeigt!
			if(*http_entry[index].hdr_end_pointer == 0) 
    29ee:	a0 81       	ld	r26, Z
    29f0:	b1 81       	ldd	r27, Z+1	; 0x01
    29f2:	4c 91       	ld	r20, X
    29f4:	44 23       	and	r20, r20
    29f6:	21 f0       	breq	.+8      	; 0x2a00 <httpd_header_check+0x150>
		}
	
	//finden der Authorization und das Ende im Header auch ber mehrere Packete hinweg!!	
	if(*http_entry[index].hdr_end_pointer != 0)
	{		
		for(a=TCP_DATA_START_VAR;a<(TCP_DATA_END_VAR);a++)
    29f8:	01 96       	adiw	r24, 0x01	; 1
    29fa:	82 17       	cp	r24, r18
    29fc:	93 07       	cpc	r25, r19
    29fe:	50 f2       	brcs	.-108    	; 0x2994 <httpd_header_check+0xe4>
			}
		}
	}
	
	//Einzelne Postpacket (z.B. bei firefox)
	if(http_entry[index].http_auth && http_entry[index].post == 1)
    2a00:	8d e0       	ldi	r24, 0x0D	; 13
    2a02:	80 9f       	mul	r24, r16
    2a04:	f0 01       	movw	r30, r0
    2a06:	81 9f       	mul	r24, r17
    2a08:	f0 0d       	add	r31, r0
    2a0a:	11 24       	eor	r1, r1
    2a0c:	e2 5d       	subi	r30, 0xD2	; 210
    2a0e:	fc 4f       	sbci	r31, 0xFC	; 252
    2a10:	80 81       	ld	r24, Z
    2a12:	80 ff       	sbrs	r24, 0
    2a14:	8e c0       	rjmp	.+284    	; 0x2b32 <httpd_header_check+0x282>
    2a16:	8d e0       	ldi	r24, 0x0D	; 13
    2a18:	80 9f       	mul	r24, r16
    2a1a:	f0 01       	movw	r30, r0
    2a1c:	81 9f       	mul	r24, r17
    2a1e:	f0 0d       	add	r31, r0
    2a20:	11 24       	eor	r1, r1
    2a22:	e2 5d       	subi	r30, 0xD2	; 210
    2a24:	fc 4f       	sbci	r31, 0xFC	; 252
    2a26:	80 81       	ld	r24, Z
    2a28:	85 ff       	sbrs	r24, 5
    2a2a:	83 c0       	rjmp	.+262    	; 0x2b32 <httpd_header_check+0x282>
	{
		for(a = TCP_DATA_START_VAR;a<(TCP_DATA_END_VAR);a++)
    2a2c:	e0 e7       	ldi	r30, 0x70	; 112
    2a2e:	f3 e0       	ldi	r31, 0x03	; 3
    2a30:	20 89       	ldd	r18, Z+16	; 0x10
    2a32:	30 e0       	ldi	r19, 0x00	; 0
    2a34:	32 2f       	mov	r19, r18
    2a36:	22 27       	eor	r18, r18
    2a38:	81 89       	ldd	r24, Z+17	; 0x11
    2a3a:	28 0f       	add	r18, r24
    2a3c:	31 1d       	adc	r19, r1
    2a3e:	2e 5d       	subi	r18, 0xDE	; 222
    2a40:	3f 4f       	sbci	r19, 0xFF	; 255
    2a42:	2a 19       	sub	r18, r10
    2a44:	3b 09       	sbc	r19, r11
    2a46:	62 16       	cp	r6, r18
    2a48:	73 06       	cpc	r7, r19
    2a4a:	08 f0       	brcs	.+2      	; 0x2a4e <httpd_header_check+0x19e>
    2a4c:	72 c0       	rjmp	.+228    	; 0x2b32 <httpd_header_check+0x282>
    2a4e:	c5 01       	movw	r24, r10
    2a50:	8e 56       	subi	r24, 0x6E	; 110
    2a52:	9c 4f       	sbci	r25, 0xFC	; 252
		{	
			//Schaltanweisung finden!
			if (eth_buffer[a] != *http_entry[index].post_ptr++)
    2a54:	4d e0       	ldi	r20, 0x0D	; 13
    2a56:	40 9f       	mul	r20, r16
    2a58:	d0 01       	movw	r26, r0
    2a5a:	41 9f       	mul	r20, r17
    2a5c:	b0 0d       	add	r27, r0
    2a5e:	11 24       	eor	r1, r1
    2a60:	aa 5d       	subi	r26, 0xDA	; 218
    2a62:	bc 4f       	sbci	r27, 0xFC	; 252
    2a64:	fd 01       	movw	r30, r26
    2a66:	39 96       	adiw	r30, 0x09	; 9
			{
				http_entry[index].post_ptr = post_in;
    2a68:	4e eb       	ldi	r20, 0xBE	; 190
    2a6a:	50 e0       	ldi	r21, 0x00	; 0
				http_entry[index].post_ptr = post_in;
				//Schaltanweisung wurde gefunden
			}
		
			//Submit schliet die suche ab!
			if (eth_buffer[a] != *http_entry[index].post_ready_ptr++)
    2a6c:	1b 96       	adiw	r26, 0x0b	; 11
			{
				http_entry[index].post_ready_ptr = post_ready;
    2a6e:	0f 2e       	mov	r0, r31
    2a70:	f9 eb       	ldi	r31, 0xB9	; 185
    2a72:	ef 2e       	mov	r14, r31
    2a74:	f0 e0       	ldi	r31, 0x00	; 0
    2a76:	ff 2e       	mov	r15, r31
    2a78:	f0 2d       	mov	r31, r0
	if(http_entry[index].http_auth && http_entry[index].post == 1)
	{
		for(a = TCP_DATA_START_VAR;a<(TCP_DATA_END_VAR);a++)
		{	
			//Schaltanweisung finden!
			if (eth_buffer[a] != *http_entry[index].post_ptr++)
    2a7a:	ec 01       	movw	r28, r24
    2a7c:	d9 90       	ld	r13, Y+
    2a7e:	ce 01       	movw	r24, r28
    2a80:	c0 81       	ld	r28, Z
    2a82:	d1 81       	ldd	r29, Z+1	; 0x01
    2a84:	be 01       	movw	r22, r28
    2a86:	6f 5f       	subi	r22, 0xFF	; 255
    2a88:	7f 4f       	sbci	r23, 0xFF	; 255
    2a8a:	71 83       	std	Z+1, r23	; 0x01
    2a8c:	60 83       	st	Z, r22
    2a8e:	68 81       	ld	r22, Y
    2a90:	d6 16       	cp	r13, r22
    2a92:	11 f0       	breq	.+4      	; 0x2a98 <httpd_header_check+0x1e8>
			{
				http_entry[index].post_ptr = post_in;
    2a94:	51 83       	std	Z+1, r21	; 0x01
    2a96:	40 83       	st	Z, r20
			}
			if(*http_entry[index].post_ptr == 0) 
    2a98:	c0 81       	ld	r28, Z
    2a9a:	d1 81       	ldd	r29, Z+1	; 0x01
    2a9c:	68 81       	ld	r22, Y
    2a9e:	61 11       	cpse	r22, r1
    2aa0:	1b c0       	rjmp	.+54     	; 0x2ad8 <httpd_header_check+0x228>
			{
				switch (eth_buffer[a+1])
    2aa2:	ec 01       	movw	r28, r24
    2aa4:	68 81       	ld	r22, Y
    2aa6:	62 34       	cpi	r22, 0x42	; 66
    2aa8:	51 f0       	breq	.+20     	; 0x2abe <httpd_header_check+0x20e>
    2aaa:	63 34       	cpi	r22, 0x43	; 67
    2aac:	71 f0       	breq	.+28     	; 0x2aca <httpd_header_check+0x21a>
    2aae:	61 34       	cpi	r22, 0x41	; 65
    2ab0:	89 f4       	brne	.+34     	; 0x2ad4 <httpd_header_check+0x224>
				  {
				    case ('A'):
					  PORT_tmp = PORT_tmp + 1;
    2ab2:	60 91 96 01 	lds	r22, 0x0196	; 0x800196 <__data_end>
    2ab6:	6f 5f       	subi	r22, 0xFF	; 255
    2ab8:	60 93 96 01 	sts	0x0196, r22	; 0x800196 <__data_end>
				      break;
    2abc:	0b c0       	rjmp	.+22     	; 0x2ad4 <httpd_header_check+0x224>
				
				    case ('B'):
					  PORT_tmp = PORT_tmp + 2;
    2abe:	60 91 96 01 	lds	r22, 0x0196	; 0x800196 <__data_end>
    2ac2:	6e 5f       	subi	r22, 0xFE	; 254
    2ac4:	60 93 96 01 	sts	0x0196, r22	; 0x800196 <__data_end>
				      break;
    2ac8:	05 c0       	rjmp	.+10     	; 0x2ad4 <httpd_header_check+0x224>
				
				    case ('C'):
					  PORT_tmp = PORT_tmp + 4;
    2aca:	60 91 96 01 	lds	r22, 0x0196	; 0x800196 <__data_end>
    2ace:	6c 5f       	subi	r22, 0xFC	; 252
    2ad0:	60 93 96 01 	sts	0x0196, r22	; 0x800196 <__data_end>
                    case 'W':
                        wol_enable = 1;
						break;
                    #endif //USE_WOL
				  }
				http_entry[index].post_ptr = post_in;
    2ad4:	51 83       	std	Z+1, r21	; 0x01
    2ad6:	40 83       	st	Z, r20
				//Schaltanweisung wurde gefunden
			}
		
			//Submit schliet die suche ab!
			if (eth_buffer[a] != *http_entry[index].post_ready_ptr++)
    2ad8:	cd 91       	ld	r28, X+
    2ada:	dc 91       	ld	r29, X
    2adc:	11 97       	sbiw	r26, 0x01	; 1
    2ade:	be 01       	movw	r22, r28
    2ae0:	6f 5f       	subi	r22, 0xFF	; 255
    2ae2:	7f 4f       	sbci	r23, 0xFF	; 255
    2ae4:	11 96       	adiw	r26, 0x01	; 1
    2ae6:	7c 93       	st	X, r23
    2ae8:	6e 93       	st	-X, r22
    2aea:	68 81       	ld	r22, Y
    2aec:	d6 16       	cp	r13, r22
    2aee:	19 f0       	breq	.+6      	; 0x2af6 <httpd_header_check+0x246>
			{
				http_entry[index].post_ready_ptr = post_ready;
    2af0:	11 96       	adiw	r26, 0x01	; 1
    2af2:	fc 92       	st	X, r15
    2af4:	ee 92       	st	-X, r14
			}
			if(*http_entry[index].post_ready_ptr == 0) 
    2af6:	cd 91       	ld	r28, X+
    2af8:	dc 91       	ld	r29, X
    2afa:	11 97       	sbiw	r26, 0x01	; 1
    2afc:	68 81       	ld	r22, Y
    2afe:	61 11       	cpse	r22, r1
    2b00:	11 c0       	rjmp	.+34     	; 0x2b24 <httpd_header_check+0x274>
			{
				http_entry[index].post = 0;
    2b02:	8d e0       	ldi	r24, 0x0D	; 13
    2b04:	80 9f       	mul	r24, r16
    2b06:	f0 01       	movw	r30, r0
    2b08:	81 9f       	mul	r24, r17
    2b0a:	f0 0d       	add	r31, r0
    2b0c:	11 24       	eor	r1, r1
    2b0e:	e2 5d       	subi	r30, 0xD2	; 210
    2b10:	fc 4f       	sbci	r31, 0xFC	; 252
    2b12:	80 81       	ld	r24, Z
    2b14:	8f 7d       	andi	r24, 0xDF	; 223
    2b16:	80 83       	st	Z, r24
				PORTA = PORT_tmp;
    2b18:	80 91 96 01 	lds	r24, 0x0196	; 0x800196 <__data_end>
    2b1c:	8b bb       	out	0x1b, r24	; 27
                PORT_tmp = 0;
    2b1e:	10 92 96 01 	sts	0x0196, r1	; 0x800196 <__data_end>
				break;
    2b22:	07 c0       	rjmp	.+14     	; 0x2b32 <httpd_header_check+0x282>
	}
	
	//Einzelne Postpacket (z.B. bei firefox)
	if(http_entry[index].http_auth && http_entry[index].post == 1)
	{
		for(a = TCP_DATA_START_VAR;a<(TCP_DATA_END_VAR);a++)
    2b24:	df ef       	ldi	r29, 0xFF	; 255
    2b26:	6d 1a       	sub	r6, r29
    2b28:	7d 0a       	sbc	r7, r29
    2b2a:	62 16       	cp	r6, r18
    2b2c:	73 06       	cpc	r7, r19
    2b2e:	08 f4       	brcc	.+2      	; 0x2b32 <httpd_header_check+0x282>
    2b30:	a4 cf       	rjmp	.-184    	; 0x2a7a <httpd_header_check+0x1ca>
	}	
	
	//Welche datei wird angefordert? Wird diese in der Flashspeichertabelle gefunden?
	unsigned char page_index = 0;
	
	if (!http_entry[index].new_page_pointer)
    2b32:	8d e0       	ldi	r24, 0x0D	; 13
    2b34:	80 9f       	mul	r24, r16
    2b36:	f0 01       	movw	r30, r0
    2b38:	81 9f       	mul	r24, r17
    2b3a:	f0 0d       	add	r31, r0
    2b3c:	11 24       	eor	r1, r1
    2b3e:	ea 5d       	subi	r30, 0xDA	; 218
    2b40:	fc 4f       	sbci	r31, 0xFC	; 252
    2b42:	82 81       	ldd	r24, Z+2	; 0x02
    2b44:	93 81       	ldd	r25, Z+3	; 0x03
    2b46:	89 2b       	or	r24, r25
    2b48:	09 f0       	breq	.+2      	; 0x2b4c <httpd_header_check+0x29c>
    2b4a:	db c0       	rjmp	.+438    	; 0x2d02 <httpd_header_check+0x452>
	{
		for(a = TCP_DATA_START_VAR+5;a<(TCP_DATA_END_VAR);a++)
    2b4c:	a0 e7       	ldi	r26, 0x70	; 112
    2b4e:	b3 e0       	ldi	r27, 0x03	; 3
    2b50:	9e 96       	adiw	r26, 0x2e	; 46
    2b52:	ec 91       	ld	r30, X
    2b54:	9e 97       	sbiw	r26, 0x2e	; 46
    2b56:	e0 7f       	andi	r30, 0xF0	; 240
    2b58:	f0 e0       	ldi	r31, 0x00	; 0
    2b5a:	f5 95       	asr	r31
    2b5c:	e7 95       	ror	r30
    2b5e:	f5 95       	asr	r31
    2b60:	e7 95       	ror	r30
    2b62:	cf 01       	movw	r24, r30
    2b64:	87 96       	adiw	r24, 0x27	; 39
    2b66:	50 96       	adiw	r26, 0x10	; 16
    2b68:	2c 91       	ld	r18, X
    2b6a:	50 97       	sbiw	r26, 0x10	; 16
    2b6c:	30 e0       	ldi	r19, 0x00	; 0
    2b6e:	32 2f       	mov	r19, r18
    2b70:	22 27       	eor	r18, r18
    2b72:	51 96       	adiw	r26, 0x11	; 17
    2b74:	4c 91       	ld	r20, X
    2b76:	24 0f       	add	r18, r20
    2b78:	31 1d       	adc	r19, r1
    2b7a:	2e 5d       	subi	r18, 0xDE	; 222
    2b7c:	3f 4f       	sbci	r19, 0xFF	; 255
    2b7e:	2e 1b       	sub	r18, r30
    2b80:	3f 0b       	sbc	r19, r31
    2b82:	82 17       	cp	r24, r18
    2b84:	93 07       	cpc	r25, r19
    2b86:	a8 f4       	brcc	.+42     	; 0x2bb2 <httpd_header_check+0x302>
		{
			if (eth_buffer[a] == '\r')
    2b88:	dc 01       	movw	r26, r24
    2b8a:	a0 59       	subi	r26, 0x90	; 144
    2b8c:	bc 4f       	sbci	r27, 0xFC	; 252
    2b8e:	4c 91       	ld	r20, X
    2b90:	4d 30       	cpi	r20, 0x0D	; 13
    2b92:	49 f4       	brne	.+18     	; 0x2ba6 <httpd_header_check+0x2f6>
    2b94:	03 c0       	rjmp	.+6      	; 0x2b9c <httpd_header_check+0x2ec>
    2b96:	41 91       	ld	r20, Z+
    2b98:	4d 30       	cpi	r20, 0x0D	; 13
    2b9a:	39 f4       	brne	.+14     	; 0x2baa <httpd_header_check+0x2fa>
			{
				eth_buffer[a] = '\0';
    2b9c:	fc 01       	movw	r30, r24
    2b9e:	e0 59       	subi	r30, 0x90	; 144
    2ba0:	fc 4f       	sbci	r31, 0xFC	; 252
    2ba2:	10 82       	st	Z, r1
				break;
    2ba4:	06 c0       	rjmp	.+12     	; 0x2bb2 <httpd_header_check+0x302>
    2ba6:	e8 56       	subi	r30, 0x68	; 104
    2ba8:	fc 4f       	sbci	r31, 0xFC	; 252
	//Welche datei wird angefordert? Wird diese in der Flashspeichertabelle gefunden?
	unsigned char page_index = 0;
	
	if (!http_entry[index].new_page_pointer)
	{
		for(a = TCP_DATA_START_VAR+5;a<(TCP_DATA_END_VAR);a++)
    2baa:	01 96       	adiw	r24, 0x01	; 1
    2bac:	82 17       	cp	r24, r18
    2bae:	93 07       	cpc	r25, r19
    2bb0:	90 f3       	brcs	.-28     	; 0x2b96 <httpd_header_check+0x2e6>
				break;
			}
		}
	
		// Initialize pointer to avoid problems when communcation is not finished after webpage transmssion
		http_entry[index].new_page_pointer = 0;
    2bb2:	8d e0       	ldi	r24, 0x0D	; 13
    2bb4:	80 9f       	mul	r24, r16
    2bb6:	f0 01       	movw	r30, r0
    2bb8:	81 9f       	mul	r24, r17
    2bba:	f0 0d       	add	r31, r0
    2bbc:	11 24       	eor	r1, r1
    2bbe:	ea 5d       	subi	r30, 0xDA	; 218
    2bc0:	fc 4f       	sbci	r31, 0xFC	; 252
    2bc2:	13 82       	std	Z+3, r1	; 0x03
    2bc4:	12 82       	std	Z+2, r1	; 0x02

		while(WEBPAGE_TABLE[page_index].filename)
    2bc6:	c0 90 c3 00 	lds	r12, 0x00C3	; 0x8000c3 <WEBPAGE_TABLE>
    2bca:	d0 90 c4 00 	lds	r13, 0x00C4	; 0x8000c4 <WEBPAGE_TABLE+0x1>
    2bce:	c1 14       	cp	r12, r1
    2bd0:	d1 04       	cpc	r13, r1
    2bd2:	09 f4       	brne	.+2      	; 0x2bd6 <httpd_header_check+0x326>
    2bd4:	96 c0       	rjmp	.+300    	; 0x2d02 <httpd_header_check+0x452>
		{
			if (strcasestr((char*)&eth_buffer[TCP_DATA_START_VAR],WEBPAGE_TABLE[page_index].filename)!=0) 
    2bd6:	80 91 9e 03 	lds	r24, 0x039E	; 0x80039e <eth_buffer+0x2e>
    2bda:	80 7f       	andi	r24, 0xF0	; 240
    2bdc:	e8 2e       	mov	r14, r24
    2bde:	f1 2c       	mov	r15, r1
    2be0:	c7 01       	movw	r24, r14
    2be2:	95 95       	asr	r25
    2be4:	87 95       	ror	r24
    2be6:	95 95       	asr	r25
    2be8:	87 95       	ror	r24
    2bea:	9c 01       	movw	r18, r24
    2bec:	2e 56       	subi	r18, 0x6E	; 110
    2bee:	3c 4f       	sbci	r19, 0xFC	; 252
    2bf0:	79 01       	movw	r14, r18
    2bf2:	c0 e0       	ldi	r28, 0x00	; 0
    2bf4:	d0 e0       	ldi	r29, 0x00	; 0
    2bf6:	b1 2c       	mov	r11, r1
    2bf8:	b6 01       	movw	r22, r12
    2bfa:	c7 01       	movw	r24, r14
    2bfc:	0e 94 58 2e 	call	0x5cb0	; 0x5cb0 <strcasestr>
    2c00:	89 2b       	or	r24, r25
    2c02:	09 f4       	brne	.+2      	; 0x2c06 <httpd_header_check+0x356>
    2c04:	6e c0       	rjmp	.+220    	; 0x2ce2 <httpd_header_check+0x432>
				{
					HTTP_DEBUG("\r\n\r\nDatei gefunden: ");
					HTTP_DEBUG("%s",(char*)WEBPAGE_TABLE[page_index].filename);
					HTTP_DEBUG("<----------------\r\n\r\n");	
					
					if (strcasestr(WEBPAGE_TABLE[page_index].filename,".jpg")!=0)
    2c06:	67 e3       	ldi	r22, 0x37	; 55
    2c08:	71 e0       	ldi	r23, 0x01	; 1
    2c0a:	c6 01       	movw	r24, r12
    2c0c:	0e 94 58 2e 	call	0x5cb0	; 0x5cb0 <strcasestr>
    2c10:	89 2b       	or	r24, r25
    2c12:	69 f0       	breq	.+26     	; 0x2c2e <httpd_header_check+0x37e>
						if (strcasestr(WEBPAGE_TABLE[page_index].filename,"camera")!=0)
						{	
							http_entry[index].cam = 1;
						}
						#endif //USE_CAM
						http_entry[index].http_header_type = IMAGE_JPEG;
    2c14:	8d e0       	ldi	r24, 0x0D	; 13
    2c16:	80 9f       	mul	r24, r16
    2c18:	f0 01       	movw	r30, r0
    2c1a:	81 9f       	mul	r24, r17
    2c1c:	f0 0d       	add	r31, r0
    2c1e:	11 24       	eor	r1, r1
    2c20:	e2 5d       	subi	r30, 0xD2	; 210
    2c22:	fc 4f       	sbci	r31, 0xFC	; 252
    2c24:	80 81       	ld	r24, Z
    2c26:	81 7f       	andi	r24, 0xF1	; 241
    2c28:	88 60       	ori	r24, 0x08	; 8
    2c2a:	80 83       	st	Z, r24
    2c2c:	47 c0       	rjmp	.+142    	; 0x2cbc <httpd_header_check+0x40c>
					}
					else if (strcasestr(WEBPAGE_TABLE[page_index].filename,".gif")!=0)
    2c2e:	6c e7       	ldi	r22, 0x7C	; 124
    2c30:	71 e0       	ldi	r23, 0x01	; 1
    2c32:	c6 01       	movw	r24, r12
    2c34:	0e 94 58 2e 	call	0x5cb0	; 0x5cb0 <strcasestr>
    2c38:	89 2b       	or	r24, r25
    2c3a:	69 f0       	breq	.+26     	; 0x2c56 <httpd_header_check+0x3a6>
					{
						http_entry[index].http_header_type = IMAGE_GIF;
    2c3c:	8d e0       	ldi	r24, 0x0D	; 13
    2c3e:	80 9f       	mul	r24, r16
    2c40:	f0 01       	movw	r30, r0
    2c42:	81 9f       	mul	r24, r17
    2c44:	f0 0d       	add	r31, r0
    2c46:	11 24       	eor	r1, r1
    2c48:	e2 5d       	subi	r30, 0xD2	; 210
    2c4a:	fc 4f       	sbci	r31, 0xFC	; 252
    2c4c:	80 81       	ld	r24, Z
    2c4e:	81 7f       	andi	r24, 0xF1	; 241
    2c50:	8a 60       	ori	r24, 0x0A	; 10
    2c52:	80 83       	st	Z, r24
    2c54:	33 c0       	rjmp	.+102    	; 0x2cbc <httpd_header_check+0x40c>
					}	
					else if (strcasestr(WEBPAGE_TABLE[page_index].filename,".htm")!=0)
    2c56:	6d e5       	ldi	r22, 0x5D	; 93
    2c58:	71 e0       	ldi	r23, 0x01	; 1
    2c5a:	c6 01       	movw	r24, r12
    2c5c:	0e 94 58 2e 	call	0x5cb0	; 0x5cb0 <strcasestr>
    2c60:	89 2b       	or	r24, r25
    2c62:	69 f0       	breq	.+26     	; 0x2c7e <httpd_header_check+0x3ce>
					{
						http_entry[index].http_header_type = TEXT_HTML;	
    2c64:	8d e0       	ldi	r24, 0x0D	; 13
    2c66:	80 9f       	mul	r24, r16
    2c68:	f0 01       	movw	r30, r0
    2c6a:	81 9f       	mul	r24, r17
    2c6c:	f0 0d       	add	r31, r0
    2c6e:	11 24       	eor	r1, r1
    2c70:	e2 5d       	subi	r30, 0xD2	; 210
    2c72:	fc 4f       	sbci	r31, 0xFC	; 252
    2c74:	80 81       	ld	r24, Z
    2c76:	81 7f       	andi	r24, 0xF1	; 241
    2c78:	82 60       	ori	r24, 0x02	; 2
    2c7a:	80 83       	st	Z, r24
    2c7c:	1f c0       	rjmp	.+62     	; 0x2cbc <httpd_header_check+0x40c>
					}
					else if (strcasestr(WEBPAGE_TABLE[page_index].filename,".css")!=0)
    2c7e:	68 e6       	ldi	r22, 0x68	; 104
    2c80:	71 e0       	ldi	r23, 0x01	; 1
    2c82:	c6 01       	movw	r24, r12
    2c84:	0e 94 58 2e 	call	0x5cb0	; 0x5cb0 <strcasestr>
    2c88:	89 2b       	or	r24, r25
    2c8a:	69 f0       	breq	.+26     	; 0x2ca6 <httpd_header_check+0x3f6>
					{
						http_entry[index].http_header_type = TEXT_CSS;	
    2c8c:	8d e0       	ldi	r24, 0x0D	; 13
    2c8e:	80 9f       	mul	r24, r16
    2c90:	f0 01       	movw	r30, r0
    2c92:	81 9f       	mul	r24, r17
    2c94:	f0 0d       	add	r31, r0
    2c96:	11 24       	eor	r1, r1
    2c98:	e2 5d       	subi	r30, 0xD2	; 210
    2c9a:	fc 4f       	sbci	r31, 0xFC	; 252
    2c9c:	80 81       	ld	r24, Z
    2c9e:	81 7f       	andi	r24, 0xF1	; 241
    2ca0:	86 60       	ori	r24, 0x06	; 6
    2ca2:	80 83       	st	Z, r24
    2ca4:	0b c0       	rjmp	.+22     	; 0x2cbc <httpd_header_check+0x40c>
					}
					else
					{
						http_entry[index].http_header_type = TEXT_PLAIN;
    2ca6:	8d e0       	ldi	r24, 0x0D	; 13
    2ca8:	80 9f       	mul	r24, r16
    2caa:	f0 01       	movw	r30, r0
    2cac:	81 9f       	mul	r24, r17
    2cae:	f0 0d       	add	r31, r0
    2cb0:	11 24       	eor	r1, r1
    2cb2:	e2 5d       	subi	r30, 0xD2	; 210
    2cb4:	fc 4f       	sbci	r31, 0xFC	; 252
    2cb6:	80 81       	ld	r24, Z
    2cb8:	81 7f       	andi	r24, 0xF1	; 241
    2cba:	80 83       	st	Z, r24
					}
					
					http_entry[index].new_page_pointer = WEBPAGE_TABLE[page_index].page_pointer;
    2cbc:	8d e0       	ldi	r24, 0x0D	; 13
    2cbe:	80 9f       	mul	r24, r16
    2cc0:	f0 01       	movw	r30, r0
    2cc2:	81 9f       	mul	r24, r17
    2cc4:	f0 0d       	add	r31, r0
    2cc6:	11 24       	eor	r1, r1
    2cc8:	ea 5d       	subi	r30, 0xDA	; 218
    2cca:	fc 4f       	sbci	r31, 0xFC	; 252
    2ccc:	cc 0f       	add	r28, r28
    2cce:	dd 1f       	adc	r29, r29
    2cd0:	cc 0f       	add	r28, r28
    2cd2:	dd 1f       	adc	r29, r29
    2cd4:	cd 53       	subi	r28, 0x3D	; 61
    2cd6:	df 4f       	sbci	r29, 0xFF	; 255
    2cd8:	8a 81       	ldd	r24, Y+2	; 0x02
    2cda:	9b 81       	ldd	r25, Y+3	; 0x03
    2cdc:	93 83       	std	Z+3, r25	; 0x03
    2cde:	82 83       	std	Z+2, r24	; 0x02
					break;
    2ce0:	10 c0       	rjmp	.+32     	; 0x2d02 <httpd_header_check+0x452>
				}
			page_index++;
    2ce2:	b3 94       	inc	r11
		}
	
		// Initialize pointer to avoid problems when communcation is not finished after webpage transmssion
		http_entry[index].new_page_pointer = 0;

		while(WEBPAGE_TABLE[page_index].filename)
    2ce4:	cb 2d       	mov	r28, r11
    2ce6:	d0 e0       	ldi	r29, 0x00	; 0
    2ce8:	fe 01       	movw	r30, r28
    2cea:	ee 0f       	add	r30, r30
    2cec:	ff 1f       	adc	r31, r31
    2cee:	ee 0f       	add	r30, r30
    2cf0:	ff 1f       	adc	r31, r31
    2cf2:	ed 53       	subi	r30, 0x3D	; 61
    2cf4:	ff 4f       	sbci	r31, 0xFF	; 255
    2cf6:	c0 80       	ld	r12, Z
    2cf8:	d1 80       	ldd	r13, Z+1	; 0x01
    2cfa:	c1 14       	cp	r12, r1
    2cfc:	d1 04       	cpc	r13, r1
    2cfe:	09 f0       	breq	.+2      	; 0x2d02 <httpd_header_check+0x452>
    2d00:	7b cf       	rjmp	.-266    	; 0x2bf8 <httpd_header_check+0x348>
		}
	}

	//Wurde das Ende vom Header nicht erreicht
	//kommen noch weitere Stcke vom Header!
	if ((*http_entry[index].hdr_end_pointer != 0) || (http_entry[index].post == 1))
    2d02:	8d e0       	ldi	r24, 0x0D	; 13
    2d04:	80 9f       	mul	r24, r16
    2d06:	f0 01       	movw	r30, r0
    2d08:	81 9f       	mul	r24, r17
    2d0a:	f0 0d       	add	r31, r0
    2d0c:	11 24       	eor	r1, r1
    2d0e:	ea 5d       	subi	r30, 0xDA	; 218
    2d10:	fc 4f       	sbci	r31, 0xFC	; 252
    2d12:	06 80       	ldd	r0, Z+6	; 0x06
    2d14:	f7 81       	ldd	r31, Z+7	; 0x07
    2d16:	e0 2d       	mov	r30, r0
    2d18:	80 81       	ld	r24, Z
    2d1a:	81 11       	cpse	r24, r1
    2d1c:	0b c0       	rjmp	.+22     	; 0x2d34 <httpd_header_check+0x484>
    2d1e:	8d e0       	ldi	r24, 0x0D	; 13
    2d20:	80 9f       	mul	r24, r16
    2d22:	f0 01       	movw	r30, r0
    2d24:	81 9f       	mul	r24, r17
    2d26:	f0 0d       	add	r31, r0
    2d28:	11 24       	eor	r1, r1
    2d2a:	e2 5d       	subi	r30, 0xD2	; 210
    2d2c:	fc 4f       	sbci	r31, 0xFC	; 252
    2d2e:	80 81       	ld	r24, Z
    2d30:	85 ff       	sbrs	r24, 5
    2d32:	14 c0       	rjmp	.+40     	; 0x2d5c <httpd_header_check+0x4ac>
	{
		//Der Empfang wird Quitiert und es wird auf weiteres Headerstck gewartet
		tcp_entry[index].status =  ACK_FLAG;
    2d34:	86 e1       	ldi	r24, 0x16	; 22
    2d36:	80 9f       	mul	r24, r16
    2d38:	e0 01       	movw	r28, r0
    2d3a:	81 9f       	mul	r24, r17
    2d3c:	d0 0d       	add	r29, r0
    2d3e:	11 24       	eor	r1, r1
    2d40:	c2 58       	subi	r28, 0x82	; 130
    2d42:	dd 4f       	sbci	r29, 0xFD	; 253
    2d44:	80 e1       	ldi	r24, 0x10	; 16
    2d46:	88 8b       	std	Y+16, r24	; 0x10
		create_new_tcp_packet(0,index);
    2d48:	69 2d       	mov	r22, r9
    2d4a:	80 e0       	ldi	r24, 0x00	; 0
    2d4c:	90 e0       	ldi	r25, 0x00	; 0
    2d4e:	0e 94 a7 23 	call	0x474e	; 0x474e <create_new_tcp_packet>
		//Warten auf weitere Headerpackete
		tcp_entry[index].app_status = 1;
    2d52:	81 e0       	ldi	r24, 0x01	; 1
    2d54:	90 e0       	ldi	r25, 0x00	; 0
    2d56:	9a 8b       	std	Y+18, r25	; 0x12
    2d58:	89 8b       	std	Y+17, r24	; 0x11
		return;
    2d5a:	34 c1       	rjmp	.+616    	; 0x2fc4 <httpd_header_check+0x714>
	}	
	
	//Wurde das Passwort in den ganzen Headerpacketen gefunden?
	//Wenn nicht dann ausfhren und Passwort anfordern!
	if((!http_entry[index].http_auth) && tcp_entry[index].status&PSH_FLAG)
    2d5c:	8d e0       	ldi	r24, 0x0D	; 13
    2d5e:	80 9f       	mul	r24, r16
    2d60:	f0 01       	movw	r30, r0
    2d62:	81 9f       	mul	r24, r17
    2d64:	f0 0d       	add	r31, r0
    2d66:	11 24       	eor	r1, r1
    2d68:	e2 5d       	subi	r30, 0xD2	; 210
    2d6a:	fc 4f       	sbci	r31, 0xFC	; 252
    2d6c:	80 81       	ld	r24, Z
    2d6e:	80 fd       	sbrc	r24, 0
    2d70:	3b c0       	rjmp	.+118    	; 0x2de8 <httpd_header_check+0x538>
    2d72:	86 e1       	ldi	r24, 0x16	; 22
    2d74:	80 9f       	mul	r24, r16
    2d76:	f0 01       	movw	r30, r0
    2d78:	81 9f       	mul	r24, r17
    2d7a:	f0 0d       	add	r31, r0
    2d7c:	11 24       	eor	r1, r1
    2d7e:	e2 58       	subi	r30, 0x82	; 130
    2d80:	fd 4f       	sbci	r31, 0xFD	; 253
    2d82:	80 89       	ldd	r24, Z+16	; 0x10
    2d84:	83 ff       	sbrs	r24, 3
    2d86:	30 c0       	rjmp	.+96     	; 0x2de8 <httpd_header_check+0x538>
	{	
		//HTTP_AUTH_Header senden!
		http_entry[index].new_page_pointer = Page0;
    2d88:	8d e0       	ldi	r24, 0x0D	; 13
    2d8a:	80 9f       	mul	r24, r16
    2d8c:	f0 01       	movw	r30, r0
    2d8e:	81 9f       	mul	r24, r17
    2d90:	f0 0d       	add	r31, r0
    2d92:	11 24       	eor	r1, r1
    2d94:	ea 5d       	subi	r30, 0xDA	; 218
    2d96:	fc 4f       	sbci	r31, 0xFC	; 252
    2d98:	82 e9       	ldi	r24, 0x92	; 146
    2d9a:	93 e0       	ldi	r25, 0x03	; 3
    2d9c:	93 83       	std	Z+3, r25	; 0x03
    2d9e:	82 83       	std	Z+2, r24	; 0x02
		memcpy_P((char*)&eth_buffer[TCP_DATA_START_VAR],http_header2,(sizeof(http_header2)-1));
    2da0:	80 91 9e 03 	lds	r24, 0x039E	; 0x80039e <eth_buffer+0x2e>
    2da4:	80 7f       	andi	r24, 0xF0	; 240
    2da6:	90 e0       	ldi	r25, 0x00	; 0
    2da8:	95 95       	asr	r25
    2daa:	87 95       	ror	r24
    2dac:	95 95       	asr	r25
    2dae:	87 95       	ror	r24
    2db0:	41 e8       	ldi	r20, 0x81	; 129
    2db2:	50 e0       	ldi	r21, 0x00	; 0
    2db4:	6f ee       	ldi	r22, 0xEF	; 239
    2db6:	74 e0       	ldi	r23, 0x04	; 4
    2db8:	8e 56       	subi	r24, 0x6E	; 110
    2dba:	9c 4f       	sbci	r25, 0xFC	; 252
    2dbc:	0e 94 14 2e 	call	0x5c28	; 0x5c28 <memcpy_P>
		tcp_entry[index].status =  ACK_FLAG | PSH_FLAG;
    2dc0:	86 e1       	ldi	r24, 0x16	; 22
    2dc2:	80 9f       	mul	r24, r16
    2dc4:	e0 01       	movw	r28, r0
    2dc6:	81 9f       	mul	r24, r17
    2dc8:	d0 0d       	add	r29, r0
    2dca:	11 24       	eor	r1, r1
    2dcc:	c2 58       	subi	r28, 0x82	; 130
    2dce:	dd 4f       	sbci	r29, 0xFD	; 253
    2dd0:	88 e1       	ldi	r24, 0x18	; 24
    2dd2:	88 8b       	std	Y+16, r24	; 0x10
		create_new_tcp_packet((sizeof(http_header2)-1),index);
    2dd4:	69 2d       	mov	r22, r9
    2dd6:	81 e8       	ldi	r24, 0x81	; 129
    2dd8:	90 e0       	ldi	r25, 0x00	; 0
    2dda:	0e 94 a7 23 	call	0x474e	; 0x474e <create_new_tcp_packet>
		tcp_entry[index].app_status = 2;
    2dde:	82 e0       	ldi	r24, 0x02	; 2
    2de0:	90 e0       	ldi	r25, 0x00	; 0
    2de2:	9a 8b       	std	Y+18, r25	; 0x12
    2de4:	89 8b       	std	Y+17, r24	; 0x11
		return;
    2de6:	ee c0       	rjmp	.+476    	; 0x2fc4 <httpd_header_check+0x714>
	}
	
	//Standart INDEX.HTM Seite wenn keine andere gefunden wurde
	if (!http_entry[index].new_page_pointer)
    2de8:	8d e0       	ldi	r24, 0x0D	; 13
    2dea:	80 9f       	mul	r24, r16
    2dec:	f0 01       	movw	r30, r0
    2dee:	81 9f       	mul	r24, r17
    2df0:	f0 0d       	add	r31, r0
    2df2:	11 24       	eor	r1, r1
    2df4:	ea 5d       	subi	r30, 0xDA	; 218
    2df6:	fc 4f       	sbci	r31, 0xFC	; 252
    2df8:	82 81       	ldd	r24, Z+2	; 0x02
    2dfa:	93 81       	ldd	r25, Z+3	; 0x03
    2dfc:	89 2b       	or	r24, r25
    2dfe:	e1 f4       	brne	.+56     	; 0x2e38 <httpd_header_check+0x588>
	{
		//Besucher Counter
		var_array[MAX_VAR_ARRAY-1]++;
    2e00:	e5 ea       	ldi	r30, 0xA5	; 165
    2e02:	f0 e0       	ldi	r31, 0x00	; 0
    2e04:	82 89       	ldd	r24, Z+18	; 0x12
    2e06:	93 89       	ldd	r25, Z+19	; 0x13
    2e08:	01 96       	adiw	r24, 0x01	; 1
    2e0a:	93 8b       	std	Z+19, r25	; 0x13
    2e0c:	82 8b       	std	Z+18, r24	; 0x12
		
		http_entry[index].new_page_pointer = Page1;
    2e0e:	8d e0       	ldi	r24, 0x0D	; 13
    2e10:	80 9f       	mul	r24, r16
    2e12:	f0 01       	movw	r30, r0
    2e14:	81 9f       	mul	r24, r17
    2e16:	f0 0d       	add	r31, r0
    2e18:	11 24       	eor	r1, r1
    2e1a:	df 01       	movw	r26, r30
    2e1c:	aa 5d       	subi	r26, 0xDA	; 218
    2e1e:	bc 4f       	sbci	r27, 0xFC	; 252
    2e20:	89 e1       	ldi	r24, 0x19	; 25
    2e22:	95 e1       	ldi	r25, 0x15	; 21
    2e24:	13 96       	adiw	r26, 0x03	; 3
    2e26:	9c 93       	st	X, r25
    2e28:	8e 93       	st	-X, r24
    2e2a:	12 97       	sbiw	r26, 0x02	; 2
		http_entry[index].http_header_type = TEXT_HTML;
    2e2c:	e2 5d       	subi	r30, 0xD2	; 210
    2e2e:	fc 4f       	sbci	r31, 0xFC	; 252
    2e30:	80 81       	ld	r24, Z
    2e32:	81 7f       	andi	r24, 0xF1	; 241
    2e34:	82 60       	ori	r24, 0x02	; 2
    2e36:	80 83       	st	Z, r24
	}	
	
	tcp_entry[index].app_status = 2;
    2e38:	86 e1       	ldi	r24, 0x16	; 22
    2e3a:	80 9f       	mul	r24, r16
    2e3c:	f0 01       	movw	r30, r0
    2e3e:	81 9f       	mul	r24, r17
    2e40:	f0 0d       	add	r31, r0
    2e42:	11 24       	eor	r1, r1
    2e44:	e2 58       	subi	r30, 0x82	; 130
    2e46:	fd 4f       	sbci	r31, 0xFD	; 253
    2e48:	82 e0       	ldi	r24, 0x02	; 2
    2e4a:	90 e0       	ldi	r25, 0x00	; 0
    2e4c:	92 8b       	std	Z+18, r25	; 0x12
    2e4e:	81 8b       	std	Z+17, r24	; 0x11
	
	//Seiten Header wird gesendet
	switch(http_entry[index].http_header_type){
    2e50:	8d e0       	ldi	r24, 0x0D	; 13
    2e52:	80 9f       	mul	r24, r16
    2e54:	f0 01       	movw	r30, r0
    2e56:	81 9f       	mul	r24, r17
    2e58:	f0 0d       	add	r31, r0
    2e5a:	11 24       	eor	r1, r1
    2e5c:	e2 5d       	subi	r30, 0xD2	; 210
    2e5e:	fc 4f       	sbci	r31, 0xFC	; 252
    2e60:	80 81       	ld	r24, Z
    2e62:	86 95       	lsr	r24
    2e64:	87 70       	andi	r24, 0x07	; 7
    2e66:	83 30       	cpi	r24, 0x03	; 3
    2e68:	09 f4       	brne	.+2      	; 0x2e6c <httpd_header_check+0x5bc>
    2e6a:	8d c0       	rjmp	.+282    	; 0x2f86 <httpd_header_check+0x6d6>
    2e6c:	28 f4       	brcc	.+10     	; 0x2e78 <httpd_header_check+0x5c8>
    2e6e:	88 23       	and	r24, r24
    2e70:	51 f0       	breq	.+20     	; 0x2e86 <httpd_header_check+0x5d6>
    2e72:	81 30       	cpi	r24, 0x01	; 1
    2e74:	41 f1       	breq	.+80     	; 0x2ec6 <httpd_header_check+0x616>
    2e76:	a6 c0       	rjmp	.+332    	; 0x2fc4 <httpd_header_check+0x714>
    2e78:	84 30       	cpi	r24, 0x04	; 4
    2e7a:	09 f4       	brne	.+2      	; 0x2e7e <httpd_header_check+0x5ce>
    2e7c:	44 c0       	rjmp	.+136    	; 0x2f06 <httpd_header_check+0x656>
    2e7e:	85 30       	cpi	r24, 0x05	; 5
    2e80:	09 f4       	brne	.+2      	; 0x2e84 <httpd_header_check+0x5d4>
    2e82:	61 c0       	rjmp	.+194    	; 0x2f46 <httpd_header_check+0x696>
    2e84:	9f c0       	rjmp	.+318    	; 0x2fc4 <httpd_header_check+0x714>
		case TEXT_PLAIN:
			memcpy_P((char*)&eth_buffer[TCP_DATA_START_VAR],http_header0,(sizeof(http_header0)-1));
    2e86:	80 91 9e 03 	lds	r24, 0x039E	; 0x80039e <eth_buffer+0x2e>
    2e8a:	80 7f       	andi	r24, 0xF0	; 240
    2e8c:	90 e0       	ldi	r25, 0x00	; 0
    2e8e:	95 95       	asr	r25
    2e90:	87 95       	ror	r24
    2e92:	95 95       	asr	r25
    2e94:	87 95       	ror	r24
    2e96:	48 e5       	ldi	r20, 0x58	; 88
    2e98:	50 e0       	ldi	r21, 0x00	; 0
    2e9a:	69 ec       	ldi	r22, 0xC9	; 201
    2e9c:	75 e0       	ldi	r23, 0x05	; 5
    2e9e:	8e 56       	subi	r24, 0x6E	; 110
    2ea0:	9c 4f       	sbci	r25, 0xFC	; 252
    2ea2:	0e 94 14 2e 	call	0x5c28	; 0x5c28 <memcpy_P>
			tcp_entry[index].status =  ACK_FLAG | PSH_FLAG;
    2ea6:	86 e1       	ldi	r24, 0x16	; 22
    2ea8:	80 9f       	mul	r24, r16
    2eaa:	f0 01       	movw	r30, r0
    2eac:	81 9f       	mul	r24, r17
    2eae:	f0 0d       	add	r31, r0
    2eb0:	11 24       	eor	r1, r1
    2eb2:	e2 58       	subi	r30, 0x82	; 130
    2eb4:	fd 4f       	sbci	r31, 0xFD	; 253
    2eb6:	88 e1       	ldi	r24, 0x18	; 24
    2eb8:	80 8b       	std	Z+16, r24	; 0x10
			create_new_tcp_packet((sizeof(http_header0)-1),index);
    2eba:	69 2d       	mov	r22, r9
    2ebc:	88 e5       	ldi	r24, 0x58	; 88
    2ebe:	90 e0       	ldi	r25, 0x00	; 0
    2ec0:	0e 94 a7 23 	call	0x474e	; 0x474e <create_new_tcp_packet>
		break;
    2ec4:	7f c0       	rjmp	.+254    	; 0x2fc4 <httpd_header_check+0x714>
		case TEXT_HTML:
			memcpy_P((char*)&eth_buffer[TCP_DATA_START_VAR],http_header1,(sizeof(http_header1)-1));
    2ec6:	80 91 9e 03 	lds	r24, 0x039E	; 0x80039e <eth_buffer+0x2e>
    2eca:	80 7f       	andi	r24, 0xF0	; 240
    2ecc:	90 e0       	ldi	r25, 0x00	; 0
    2ece:	95 95       	asr	r25
    2ed0:	87 95       	ror	r24
    2ed2:	95 95       	asr	r25
    2ed4:	87 95       	ror	r24
    2ed6:	47 e5       	ldi	r20, 0x57	; 87
    2ed8:	50 e0       	ldi	r21, 0x00	; 0
    2eda:	61 e7       	ldi	r22, 0x71	; 113
    2edc:	75 e0       	ldi	r23, 0x05	; 5
    2ede:	8e 56       	subi	r24, 0x6E	; 110
    2ee0:	9c 4f       	sbci	r25, 0xFC	; 252
    2ee2:	0e 94 14 2e 	call	0x5c28	; 0x5c28 <memcpy_P>
			tcp_entry[index].status =  ACK_FLAG | PSH_FLAG;
    2ee6:	86 e1       	ldi	r24, 0x16	; 22
    2ee8:	80 9f       	mul	r24, r16
    2eea:	f0 01       	movw	r30, r0
    2eec:	81 9f       	mul	r24, r17
    2eee:	f0 0d       	add	r31, r0
    2ef0:	11 24       	eor	r1, r1
    2ef2:	e2 58       	subi	r30, 0x82	; 130
    2ef4:	fd 4f       	sbci	r31, 0xFD	; 253
    2ef6:	88 e1       	ldi	r24, 0x18	; 24
    2ef8:	80 8b       	std	Z+16, r24	; 0x10
			create_new_tcp_packet((sizeof(http_header1)-1),index);
    2efa:	69 2d       	mov	r22, r9
    2efc:	87 e5       	ldi	r24, 0x57	; 87
    2efe:	90 e0       	ldi	r25, 0x00	; 0
    2f00:	0e 94 a7 23 	call	0x474e	; 0x474e <create_new_tcp_packet>
		break;
    2f04:	5f c0       	rjmp	.+190    	; 0x2fc4 <httpd_header_check+0x714>
		case IMAGE_JPEG:
			memcpy_P((char*)&eth_buffer[TCP_DATA_START_VAR],http_header3,(sizeof(http_header3)-1));
    2f06:	80 91 9e 03 	lds	r24, 0x039E	; 0x80039e <eth_buffer+0x2e>
    2f0a:	80 7f       	andi	r24, 0xF0	; 240
    2f0c:	90 e0       	ldi	r25, 0x00	; 0
    2f0e:	95 95       	asr	r25
    2f10:	87 95       	ror	r24
    2f12:	95 95       	asr	r25
    2f14:	87 95       	ror	r24
    2f16:	48 e5       	ldi	r20, 0x58	; 88
    2f18:	50 e0       	ldi	r21, 0x00	; 0
    2f1a:	66 e9       	ldi	r22, 0x96	; 150
    2f1c:	74 e0       	ldi	r23, 0x04	; 4
    2f1e:	8e 56       	subi	r24, 0x6E	; 110
    2f20:	9c 4f       	sbci	r25, 0xFC	; 252
    2f22:	0e 94 14 2e 	call	0x5c28	; 0x5c28 <memcpy_P>
			tcp_entry[index].status =  ACK_FLAG | PSH_FLAG;
    2f26:	86 e1       	ldi	r24, 0x16	; 22
    2f28:	80 9f       	mul	r24, r16
    2f2a:	f0 01       	movw	r30, r0
    2f2c:	81 9f       	mul	r24, r17
    2f2e:	f0 0d       	add	r31, r0
    2f30:	11 24       	eor	r1, r1
    2f32:	e2 58       	subi	r30, 0x82	; 130
    2f34:	fd 4f       	sbci	r31, 0xFD	; 253
    2f36:	88 e1       	ldi	r24, 0x18	; 24
    2f38:	80 8b       	std	Z+16, r24	; 0x10
			create_new_tcp_packet((sizeof(http_header3)-1),index);
    2f3a:	69 2d       	mov	r22, r9
    2f3c:	88 e5       	ldi	r24, 0x58	; 88
    2f3e:	90 e0       	ldi	r25, 0x00	; 0
    2f40:	0e 94 a7 23 	call	0x474e	; 0x474e <create_new_tcp_packet>
		break;
    2f44:	3f c0       	rjmp	.+126    	; 0x2fc4 <httpd_header_check+0x714>
		case IMAGE_GIF:
			memcpy_P((char*)&eth_buffer[TCP_DATA_START_VAR],http_header4,(sizeof(http_header4)-1));
    2f46:	80 91 9e 03 	lds	r24, 0x039E	; 0x80039e <eth_buffer+0x2e>
    2f4a:	80 7f       	andi	r24, 0xF0	; 240
    2f4c:	90 e0       	ldi	r25, 0x00	; 0
    2f4e:	95 95       	asr	r25
    2f50:	87 95       	ror	r24
    2f52:	95 95       	asr	r25
    2f54:	87 95       	ror	r24
    2f56:	47 e7       	ldi	r20, 0x77	; 119
    2f58:	50 e0       	ldi	r21, 0x00	; 0
    2f5a:	6e e1       	ldi	r22, 0x1E	; 30
    2f5c:	74 e0       	ldi	r23, 0x04	; 4
    2f5e:	8e 56       	subi	r24, 0x6E	; 110
    2f60:	9c 4f       	sbci	r25, 0xFC	; 252
    2f62:	0e 94 14 2e 	call	0x5c28	; 0x5c28 <memcpy_P>
			tcp_entry[index].status =  ACK_FLAG | PSH_FLAG;
    2f66:	86 e1       	ldi	r24, 0x16	; 22
    2f68:	80 9f       	mul	r24, r16
    2f6a:	f0 01       	movw	r30, r0
    2f6c:	81 9f       	mul	r24, r17
    2f6e:	f0 0d       	add	r31, r0
    2f70:	11 24       	eor	r1, r1
    2f72:	e2 58       	subi	r30, 0x82	; 130
    2f74:	fd 4f       	sbci	r31, 0xFD	; 253
    2f76:	88 e1       	ldi	r24, 0x18	; 24
    2f78:	80 8b       	std	Z+16, r24	; 0x10
			create_new_tcp_packet((sizeof(http_header4)-1),index);
    2f7a:	69 2d       	mov	r22, r9
    2f7c:	87 e7       	ldi	r24, 0x77	; 119
    2f7e:	90 e0       	ldi	r25, 0x00	; 0
    2f80:	0e 94 a7 23 	call	0x474e	; 0x474e <create_new_tcp_packet>
		break;
    2f84:	1f c0       	rjmp	.+62     	; 0x2fc4 <httpd_header_check+0x714>
		case TEXT_CSS:
			memcpy_P((char*)&eth_buffer[TCP_DATA_START_VAR],http_header5,(sizeof(http_header5)-1));
    2f86:	80 91 9e 03 	lds	r24, 0x039E	; 0x80039e <eth_buffer+0x2e>
    2f8a:	80 7f       	andi	r24, 0xF0	; 240
    2f8c:	90 e0       	ldi	r25, 0x00	; 0
    2f8e:	95 95       	asr	r25
    2f90:	87 95       	ror	r24
    2f92:	95 95       	asr	r25
    2f94:	87 95       	ror	r24
    2f96:	46 e7       	ldi	r20, 0x76	; 118
    2f98:	50 e0       	ldi	r21, 0x00	; 0
    2f9a:	67 ea       	ldi	r22, 0xA7	; 167
    2f9c:	73 e0       	ldi	r23, 0x03	; 3
    2f9e:	8e 56       	subi	r24, 0x6E	; 110
    2fa0:	9c 4f       	sbci	r25, 0xFC	; 252
    2fa2:	0e 94 14 2e 	call	0x5c28	; 0x5c28 <memcpy_P>
			tcp_entry[index].status =  ACK_FLAG | PSH_FLAG;
    2fa6:	86 e1       	ldi	r24, 0x16	; 22
    2fa8:	80 9f       	mul	r24, r16
    2faa:	f0 01       	movw	r30, r0
    2fac:	81 9f       	mul	r24, r17
    2fae:	f0 0d       	add	r31, r0
    2fb0:	11 24       	eor	r1, r1
    2fb2:	e2 58       	subi	r30, 0x82	; 130
    2fb4:	fd 4f       	sbci	r31, 0xFD	; 253
    2fb6:	88 e1       	ldi	r24, 0x18	; 24
    2fb8:	80 8b       	std	Z+16, r24	; 0x10
			create_new_tcp_packet((sizeof(http_header5)-1),index);
    2fba:	69 2d       	mov	r22, r9
    2fbc:	86 e7       	ldi	r24, 0x76	; 118
    2fbe:	90 e0       	ldi	r25, 0x00	; 0
    2fc0:	0e 94 a7 23 	call	0x474e	; 0x474e <create_new_tcp_packet>
		break;
	}
	return;
}
    2fc4:	df 91       	pop	r29
    2fc6:	cf 91       	pop	r28
    2fc8:	1f 91       	pop	r17
    2fca:	0f 91       	pop	r16
    2fcc:	ff 90       	pop	r15
    2fce:	ef 90       	pop	r14
    2fd0:	df 90       	pop	r13
    2fd2:	cf 90       	pop	r12
    2fd4:	bf 90       	pop	r11
    2fd6:	af 90       	pop	r10
    2fd8:	9f 90       	pop	r9
    2fda:	8f 90       	pop	r8
    2fdc:	7f 90       	pop	r7
    2fde:	6f 90       	pop	r6
    2fe0:	5f 90       	pop	r5
    2fe2:	4f 90       	pop	r4
    2fe4:	3f 90       	pop	r3
    2fe6:	2f 90       	pop	r2
    2fe8:	08 95       	ret

00002fea <httpd_data_send>:

//----------------------------------------------------------------------------
//Daten Packete an Client schicken
void httpd_data_send (unsigned char index)
{	
    2fea:	4f 92       	push	r4
    2fec:	5f 92       	push	r5
    2fee:	6f 92       	push	r6
    2ff0:	7f 92       	push	r7
    2ff2:	8f 92       	push	r8
    2ff4:	9f 92       	push	r9
    2ff6:	af 92       	push	r10
    2ff8:	bf 92       	push	r11
    2ffa:	cf 92       	push	r12
    2ffc:	df 92       	push	r13
    2ffe:	ef 92       	push	r14
    3000:	ff 92       	push	r15
    3002:	0f 93       	push	r16
    3004:	1f 93       	push	r17
    3006:	cf 93       	push	r28
    3008:	df 93       	push	r29
    300a:	cd b7       	in	r28, 0x3d	; 61
    300c:	de b7       	in	r29, 0x3e	; 62
    300e:	2a 97       	sbiw	r28, 0x0a	; 10
    3010:	0f b6       	in	r0, 0x3f	; 63
    3012:	f8 94       	cli
    3014:	de bf       	out	0x3e, r29	; 62
    3016:	0f be       	out	0x3f, r0	; 63
    3018:	cd bf       	out	0x3d, r28	; 61
    301a:	58 2e       	mov	r5, r24
	unsigned char str_len;
	
	char var_conversion_buffer[CONVERSION_BUFFER_LEN];
	
	//Passwort wurde im Header nicht gefunden
	if(!http_entry[index].http_auth)
    301c:	68 2e       	mov	r6, r24
    301e:	71 2c       	mov	r7, r1
    3020:	2d e0       	ldi	r18, 0x0D	; 13
    3022:	82 9f       	mul	r24, r18
    3024:	f0 01       	movw	r30, r0
    3026:	11 24       	eor	r1, r1
    3028:	e2 5d       	subi	r30, 0xD2	; 210
    302a:	fc 4f       	sbci	r31, 0xFC	; 252
    302c:	80 81       	ld	r24, Z
    302e:	80 fd       	sbrc	r24, 0
    3030:	0c c0       	rjmp	.+24     	; 0x304a <httpd_data_send+0x60>
	{
		http_entry[index].new_page_pointer = Page0;
    3032:	8d e0       	ldi	r24, 0x0D	; 13
    3034:	86 9d       	mul	r24, r6
    3036:	f0 01       	movw	r30, r0
    3038:	87 9d       	mul	r24, r7
    303a:	f0 0d       	add	r31, r0
    303c:	11 24       	eor	r1, r1
    303e:	ea 5d       	subi	r30, 0xDA	; 218
    3040:	fc 4f       	sbci	r31, 0xFC	; 252
    3042:	82 e9       	ldi	r24, 0x92	; 146
    3044:	93 e0       	ldi	r25, 0x03	; 3
    3046:	93 83       	std	Z+3, r25	; 0x03
    3048:	82 83       	std	Z+2, r24	; 0x02
		return;	
	}
	#endif //USE_CAM***************************************************************

	//kein Packet empfangen Retransmission des alten Packetes
	if (tcp_entry[index].status == 0) 
    304a:	86 e1       	ldi	r24, 0x16	; 22
    304c:	86 9d       	mul	r24, r6
    304e:	f0 01       	movw	r30, r0
    3050:	87 9d       	mul	r24, r7
    3052:	f0 0d       	add	r31, r0
    3054:	11 24       	eor	r1, r1
    3056:	e2 58       	subi	r30, 0x82	; 130
    3058:	fd 4f       	sbci	r31, 0xFD	; 253
    305a:	80 89       	ldd	r24, Z+16	; 0x10
    305c:	81 11       	cpse	r24, r1
    305e:	0c c0       	rjmp	.+24     	; 0x3078 <httpd_data_send+0x8e>
	{
		http_entry[index].new_page_pointer = http_entry[index].old_page_pointer;
    3060:	8d e0       	ldi	r24, 0x0D	; 13
    3062:	86 9d       	mul	r24, r6
    3064:	f0 01       	movw	r30, r0
    3066:	87 9d       	mul	r24, r7
    3068:	f0 0d       	add	r31, r0
    306a:	11 24       	eor	r1, r1
    306c:	ea 5d       	subi	r30, 0xDA	; 218
    306e:	fc 4f       	sbci	r31, 0xFC	; 252
    3070:	80 81       	ld	r24, Z
    3072:	91 81       	ldd	r25, Z+1	; 0x01
    3074:	93 83       	std	Z+3, r25	; 0x03
    3076:	82 83       	std	Z+2, r24	; 0x02
	}
	http_entry[index].old_page_pointer = http_entry[index].new_page_pointer;
    3078:	8d e0       	ldi	r24, 0x0D	; 13
    307a:	86 9d       	mul	r24, r6
    307c:	f0 01       	movw	r30, r0
    307e:	87 9d       	mul	r24, r7
    3080:	f0 0d       	add	r31, r0
    3082:	11 24       	eor	r1, r1
    3084:	ea 5d       	subi	r30, 0xDA	; 218
    3086:	fc 4f       	sbci	r31, 0xFC	; 252
    3088:	82 81       	ldd	r24, Z+2	; 0x02
    308a:	93 81       	ldd	r25, Z+3	; 0x03
    308c:	91 83       	std	Z+1, r25	; 0x01
    308e:	80 83       	st	Z, r24

	for (a = 0;a<(MTU_SIZE-(TCP_DATA_START)-150);a++)
    3090:	00 e0       	ldi	r16, 0x00	; 0
    3092:	10 e0       	ldi	r17, 0x00	; 0
	{
		unsigned char b;
		b = pgm_read_byte(http_entry[index].new_page_pointer++);
    3094:	2d e0       	ldi	r18, 0x0D	; 13
    3096:	26 9d       	mul	r18, r6
    3098:	c0 01       	movw	r24, r0
    309a:	27 9d       	mul	r18, r7
    309c:	90 0d       	add	r25, r0
    309e:	11 24       	eor	r1, r1
    30a0:	ac 01       	movw	r20, r24
    30a2:	48 5d       	subi	r20, 0xD8	; 216
    30a4:	5c 4f       	sbci	r21, 0xFC	; 252
    30a6:	6a 01       	movw	r12, r20
				{
					case 'A':
						b = (PINA & (1<<pin));
						break;
					case 'B':
						b = (PINB & (1<<pin));
    30a8:	88 24       	eor	r8, r8
    30aa:	83 94       	inc	r8
    30ac:	91 2c       	mov	r9, r1
			//Einsetzen des Pin Status %PI@xy bis %PI@xy durch "ledon" oder "ledoff"
			//x = 0 : PINA / x = 1 : PINB / x = 2 : PINC / x = 3 : PIND
			if (strncasecmp_P("PIN",http_entry[index].new_page_pointer,3)==0)
			{
				unsigned char pin  = (pgm_read_byte(http_entry[index].new_page_pointer+4)-48);	
				b = 0;
    30ae:	41 2c       	mov	r4, r1
	http_entry[index].old_page_pointer = http_entry[index].new_page_pointer;

	for (a = 0;a<(MTU_SIZE-(TCP_DATA_START)-150);a++)
	{
		unsigned char b;
		b = pgm_read_byte(http_entry[index].new_page_pointer++);
    30b0:	f6 01       	movw	r30, r12
    30b2:	e0 80       	ld	r14, Z
    30b4:	f1 80       	ldd	r15, Z+1	; 0x01
    30b6:	b7 01       	movw	r22, r14
    30b8:	6f 5f       	subi	r22, 0xFF	; 255
    30ba:	7f 4f       	sbci	r23, 0xFF	; 255
    30bc:	71 83       	std	Z+1, r23	; 0x01
    30be:	60 83       	st	Z, r22
    30c0:	f7 01       	movw	r30, r14
    30c2:	84 91       	lpm	r24, Z
		eth_buffer[TCP_DATA_START + a] = b;
    30c4:	58 01       	movw	r10, r16
    30c6:	f6 e3       	ldi	r31, 0x36	; 54
    30c8:	af 0e       	add	r10, r31
    30ca:	b1 1c       	adc	r11, r1
    30cc:	f5 01       	movw	r30, r10
    30ce:	e0 59       	subi	r30, 0x90	; 144
    30d0:	fc 4f       	sbci	r31, 0xFC	; 252
    30d2:	80 83       	st	Z, r24
		
		//Mssen Variablen ins Packet eingesetzt werden? ===> %VA@00 bis %VA@09
		if (b == '%')
    30d4:	85 32       	cpi	r24, 0x25	; 37
    30d6:	09 f0       	breq	.+2      	; 0x30da <httpd_data_send+0xf0>
    30d8:	3c c1       	rjmp	.+632    	; 0x3352 <httpd_data_send+0x368>
		{
			if (strncasecmp_P("VA@",http_entry[index].new_page_pointer,3)==0)
    30da:	43 e0       	ldi	r20, 0x03	; 3
    30dc:	50 e0       	ldi	r21, 0x00	; 0
    30de:	8c e3       	ldi	r24, 0x3C	; 60
    30e0:	91 e0       	ldi	r25, 0x01	; 1
    30e2:	0e 94 24 2e 	call	0x5c48	; 0x5c48 <strncasecmp_P>
    30e6:	89 2b       	or	r24, r25
    30e8:	b1 f5       	brne	.+108    	; 0x3156 <httpd_data_send+0x16c>
			{	
				b = (pgm_read_byte(http_entry[index].new_page_pointer+3)-48)*10;
    30ea:	f7 01       	movw	r30, r14
    30ec:	34 96       	adiw	r30, 0x04	; 4
    30ee:	e4 91       	lpm	r30, Z
    30f0:	ee 0f       	add	r30, r30
    30f2:	e0 56       	subi	r30, 0x60	; 96
    30f4:	8e 2f       	mov	r24, r30
    30f6:	88 0f       	add	r24, r24
    30f8:	88 0f       	add	r24, r24
    30fa:	8e 0f       	add	r24, r30
				b +=(pgm_read_byte(http_entry[index].new_page_pointer+4)-48);	
    30fc:	f7 01       	movw	r30, r14
    30fe:	35 96       	adiw	r30, 0x05	; 5
    3100:	e4 91       	lpm	r30, Z
				itoa (var_array[b],var_conversion_buffer,10);
    3102:	e8 0f       	add	r30, r24
    3104:	e0 53       	subi	r30, 0x30	; 48
    3106:	f0 e0       	ldi	r31, 0x00	; 0
    3108:	ee 0f       	add	r30, r30
    310a:	ff 1f       	adc	r31, r31
    310c:	eb 55       	subi	r30, 0x5B	; 91
    310e:	ff 4f       	sbci	r31, 0xFF	; 255
    } else if (__radix < 2 || __radix > 36) {
	*__s = 0;
	return __s;
    } else {
	extern char *__itoa_ncheck (int, char *, unsigned char);
	return __itoa_ncheck (__val, __s, __radix);
    3110:	4a e0       	ldi	r20, 0x0A	; 10
    3112:	be 01       	movw	r22, r28
    3114:	6f 5f       	subi	r22, 0xFF	; 255
    3116:	7f 4f       	sbci	r23, 0xFF	; 255
    3118:	80 81       	ld	r24, Z
    311a:	91 81       	ldd	r25, Z+1	; 0x01
    311c:	0e 94 e2 2e 	call	0x5dc4	; 0x5dc4 <__itoa_ncheck>
				str_len = strnlen(var_conversion_buffer,CONVERSION_BUFFER_LEN);
    3120:	6a e0       	ldi	r22, 0x0A	; 10
    3122:	70 e0       	ldi	r23, 0x00	; 0
    3124:	ce 01       	movw	r24, r28
    3126:	01 96       	adiw	r24, 0x01	; 1
    3128:	0e 94 b4 2e 	call	0x5d68	; 0x5d68 <strnlen>
    312c:	7c 01       	movw	r14, r24
    312e:	ff 24       	eor	r15, r15
				memmove(&eth_buffer[TCP_DATA_START+a],var_conversion_buffer,str_len);
    3130:	a7 01       	movw	r20, r14
    3132:	be 01       	movw	r22, r28
    3134:	6f 5f       	subi	r22, 0xFF	; 255
    3136:	7f 4f       	sbci	r23, 0xFF	; 255
    3138:	c5 01       	movw	r24, r10
    313a:	80 59       	subi	r24, 0x90	; 144
    313c:	9c 4f       	sbci	r25, 0xFC	; 252
    313e:	0e 94 3c 2e 	call	0x5c78	; 0x5c78 <memcpy>
    3142:	01 50       	subi	r16, 0x01	; 1
    3144:	11 09       	sbc	r17, r1
				a = a + (str_len-1);
    3146:	0e 0d       	add	r16, r14
    3148:	1f 1d       	adc	r17, r15
				http_entry[index].new_page_pointer=http_entry[index].new_page_pointer+5;
    314a:	f6 01       	movw	r30, r12
    314c:	80 81       	ld	r24, Z
    314e:	91 81       	ldd	r25, Z+1	; 0x01
    3150:	05 96       	adiw	r24, 0x05	; 5
    3152:	91 83       	std	Z+1, r25	; 0x01
    3154:	80 83       	st	Z, r24
            }
            #endif
            
			//Einsetzen des Port Status %PORTxy durch "checked" wenn Portx.Piny = 1
			//x: A..G  y: 0..7 
			if (strncasecmp_P("PORT",http_entry[index].new_page_pointer,4)==0)
    3156:	f6 01       	movw	r30, r12
    3158:	e0 80       	ld	r14, Z
    315a:	f1 80       	ldd	r15, Z+1	; 0x01
    315c:	44 e0       	ldi	r20, 0x04	; 4
    315e:	50 e0       	ldi	r21, 0x00	; 0
    3160:	b7 01       	movw	r22, r14
    3162:	80 e4       	ldi	r24, 0x40	; 64
    3164:	91 e0       	ldi	r25, 0x01	; 1
    3166:	0e 94 24 2e 	call	0x5c48	; 0x5c48 <strncasecmp_P>
    316a:	89 2b       	or	r24, r25
    316c:	09 f0       	breq	.+2      	; 0x3170 <httpd_data_send+0x186>
    316e:	66 c0       	rjmp	.+204    	; 0x323c <httpd_data_send+0x252>
			{
				unsigned char pin  = (pgm_read_byte(http_entry[index].new_page_pointer+5)-48);	
    3170:	f7 01       	movw	r30, r14
    3172:	35 96       	adiw	r30, 0x05	; 5
    3174:	e4 91       	lpm	r30, Z
    3176:	80 ed       	ldi	r24, 0xD0	; 208
    3178:	8e 0f       	add	r24, r30
				b = 0;
				switch(pgm_read_byte(http_entry[index].new_page_pointer+4))
    317a:	f7 01       	movw	r30, r14
    317c:	34 96       	adiw	r30, 0x04	; 4
    317e:	e4 91       	lpm	r30, Z
    3180:	e2 34       	cpi	r30, 0x42	; 66
    3182:	99 f0       	breq	.+38     	; 0x31aa <httpd_data_send+0x1c0>
    3184:	18 f4       	brcc	.+6      	; 0x318c <httpd_data_send+0x1a2>
    3186:	e1 34       	cpi	r30, 0x41	; 65
    3188:	31 f0       	breq	.+12     	; 0x3196 <httpd_data_send+0x1ac>
    318a:	2d c0       	rjmp	.+90     	; 0x31e6 <httpd_data_send+0x1fc>
    318c:	e3 34       	cpi	r30, 0x43	; 67
    318e:	b9 f0       	breq	.+46     	; 0x31be <httpd_data_send+0x1d4>
    3190:	e4 34       	cpi	r30, 0x44	; 68
    3192:	f9 f0       	breq	.+62     	; 0x31d2 <httpd_data_send+0x1e8>
    3194:	28 c0       	rjmp	.+80     	; 0x31e6 <httpd_data_send+0x1fc>
				{
					case 'A':
						b = (PORTA & (1<<pin));
    3196:	2b b3       	in	r18, 0x1b	; 27
    3198:	a4 01       	movw	r20, r8
    319a:	02 c0       	rjmp	.+4      	; 0x31a0 <httpd_data_send+0x1b6>
    319c:	44 0f       	add	r20, r20
    319e:	55 1f       	adc	r21, r21
    31a0:	8a 95       	dec	r24
    31a2:	e2 f7       	brpl	.-8      	; 0x319c <httpd_data_send+0x1b2>
    31a4:	ca 01       	movw	r24, r20
    31a6:	82 23       	and	r24, r18
						break;
    31a8:	1f c0       	rjmp	.+62     	; 0x31e8 <httpd_data_send+0x1fe>
					case 'B':
						b = (PORTB & (1<<pin));
    31aa:	28 b3       	in	r18, 0x18	; 24
    31ac:	f4 01       	movw	r30, r8
    31ae:	02 c0       	rjmp	.+4      	; 0x31b4 <httpd_data_send+0x1ca>
    31b0:	ee 0f       	add	r30, r30
    31b2:	ff 1f       	adc	r31, r31
    31b4:	8a 95       	dec	r24
    31b6:	e2 f7       	brpl	.-8      	; 0x31b0 <httpd_data_send+0x1c6>
    31b8:	cf 01       	movw	r24, r30
    31ba:	82 23       	and	r24, r18
						break;
    31bc:	15 c0       	rjmp	.+42     	; 0x31e8 <httpd_data_send+0x1fe>
					case 'C':
						b = (PORTC & (1<<pin));
    31be:	25 b3       	in	r18, 0x15	; 21
    31c0:	a4 01       	movw	r20, r8
    31c2:	02 c0       	rjmp	.+4      	; 0x31c8 <httpd_data_send+0x1de>
    31c4:	44 0f       	add	r20, r20
    31c6:	55 1f       	adc	r21, r21
    31c8:	8a 95       	dec	r24
    31ca:	e2 f7       	brpl	.-8      	; 0x31c4 <httpd_data_send+0x1da>
    31cc:	ca 01       	movw	r24, r20
    31ce:	82 23       	and	r24, r18
						break;
    31d0:	0b c0       	rjmp	.+22     	; 0x31e8 <httpd_data_send+0x1fe>
					case 'D':
						b = (PORTD & (1<<pin));
    31d2:	22 b3       	in	r18, 0x12	; 18
    31d4:	f4 01       	movw	r30, r8
    31d6:	02 c0       	rjmp	.+4      	; 0x31dc <httpd_data_send+0x1f2>
    31d8:	ee 0f       	add	r30, r30
    31da:	ff 1f       	adc	r31, r31
    31dc:	8a 95       	dec	r24
    31de:	e2 f7       	brpl	.-8      	; 0x31d8 <httpd_data_send+0x1ee>
    31e0:	cf 01       	movw	r24, r30
    31e2:	82 23       	and	r24, r18
						break; 
    31e4:	01 c0       	rjmp	.+2      	; 0x31e8 <httpd_data_send+0x1fe>
			//Einsetzen des Port Status %PORTxy durch "checked" wenn Portx.Piny = 1
			//x: A..G  y: 0..7 
			if (strncasecmp_P("PORT",http_entry[index].new_page_pointer,4)==0)
			{
				unsigned char pin  = (pgm_read_byte(http_entry[index].new_page_pointer+5)-48);	
				b = 0;
    31e6:	84 2d       	mov	r24, r4
					case 'D':
						b = (PORTD & (1<<pin));
						break; 
				}
				
				if(b)
    31e8:	88 23       	and	r24, r24
    31ea:	39 f0       	breq	.+14     	; 0x31fa <httpd_data_send+0x210>
				{
					strcpy_P(var_conversion_buffer, PSTR("checked"));
    31ec:	65 e8       	ldi	r22, 0x85	; 133
    31ee:	73 e0       	ldi	r23, 0x03	; 3
    31f0:	ce 01       	movw	r24, r28
    31f2:	01 96       	adiw	r24, 0x01	; 1
    31f4:	0e 94 1d 2e 	call	0x5c3a	; 0x5c3a <strcpy_P>
    31f8:	06 c0       	rjmp	.+12     	; 0x3206 <httpd_data_send+0x21c>
				}
				else
				{
					strcpy_P(var_conversion_buffer, PSTR("\0"));
    31fa:	63 e8       	ldi	r22, 0x83	; 131
    31fc:	73 e0       	ldi	r23, 0x03	; 3
    31fe:	ce 01       	movw	r24, r28
    3200:	01 96       	adiw	r24, 0x01	; 1
    3202:	0e 94 1d 2e 	call	0x5c3a	; 0x5c3a <strcpy_P>
				}
				str_len = strnlen(var_conversion_buffer,CONVERSION_BUFFER_LEN);
    3206:	6a e0       	ldi	r22, 0x0A	; 10
    3208:	70 e0       	ldi	r23, 0x00	; 0
    320a:	ce 01       	movw	r24, r28
    320c:	01 96       	adiw	r24, 0x01	; 1
    320e:	0e 94 b4 2e 	call	0x5d68	; 0x5d68 <strnlen>
    3212:	7c 01       	movw	r14, r24
    3214:	ff 24       	eor	r15, r15
				memmove(&eth_buffer[TCP_DATA_START+a],var_conversion_buffer,str_len);
    3216:	a7 01       	movw	r20, r14
    3218:	be 01       	movw	r22, r28
    321a:	6f 5f       	subi	r22, 0xFF	; 255
    321c:	7f 4f       	sbci	r23, 0xFF	; 255
    321e:	c8 01       	movw	r24, r16
    3220:	8a 55       	subi	r24, 0x5A	; 90
    3222:	9c 4f       	sbci	r25, 0xFC	; 252
    3224:	0e 94 3c 2e 	call	0x5c78	; 0x5c78 <memcpy>
    3228:	01 50       	subi	r16, 0x01	; 1
    322a:	11 09       	sbc	r17, r1
				a += str_len-1;
    322c:	0e 0d       	add	r16, r14
    322e:	1f 1d       	adc	r17, r15
				http_entry[index].new_page_pointer = http_entry[index].new_page_pointer+6;
    3230:	f6 01       	movw	r30, r12
    3232:	80 81       	ld	r24, Z
    3234:	91 81       	ldd	r25, Z+1	; 0x01
    3236:	06 96       	adiw	r24, 0x06	; 6
    3238:	91 83       	std	Z+1, r25	; 0x01
    323a:	80 83       	st	Z, r24
			}
			
			//Einsetzen des Pin Status %PI@xy bis %PI@xy durch "ledon" oder "ledoff"
			//x = 0 : PINA / x = 1 : PINB / x = 2 : PINC / x = 3 : PIND
			if (strncasecmp_P("PIN",http_entry[index].new_page_pointer,3)==0)
    323c:	f6 01       	movw	r30, r12
    323e:	e0 80       	ld	r14, Z
    3240:	f1 80       	ldd	r15, Z+1	; 0x01
    3242:	43 e0       	ldi	r20, 0x03	; 3
    3244:	50 e0       	ldi	r21, 0x00	; 0
    3246:	b7 01       	movw	r22, r14
    3248:	85 e4       	ldi	r24, 0x45	; 69
    324a:	91 e0       	ldi	r25, 0x01	; 1
    324c:	0e 94 24 2e 	call	0x5c48	; 0x5c48 <strncasecmp_P>
    3250:	89 2b       	or	r24, r25
    3252:	09 f0       	breq	.+2      	; 0x3256 <httpd_data_send+0x26c>
    3254:	66 c0       	rjmp	.+204    	; 0x3322 <httpd_data_send+0x338>
			{
				unsigned char pin  = (pgm_read_byte(http_entry[index].new_page_pointer+4)-48);	
    3256:	f7 01       	movw	r30, r14
    3258:	34 96       	adiw	r30, 0x04	; 4
    325a:	e4 91       	lpm	r30, Z
    325c:	80 ed       	ldi	r24, 0xD0	; 208
    325e:	8e 0f       	add	r24, r30
				b = 0;
				switch(pgm_read_byte(http_entry[index].new_page_pointer+3))
    3260:	f7 01       	movw	r30, r14
    3262:	33 96       	adiw	r30, 0x03	; 3
    3264:	e4 91       	lpm	r30, Z
    3266:	e2 34       	cpi	r30, 0x42	; 66
    3268:	99 f0       	breq	.+38     	; 0x3290 <httpd_data_send+0x2a6>
    326a:	18 f4       	brcc	.+6      	; 0x3272 <httpd_data_send+0x288>
    326c:	e1 34       	cpi	r30, 0x41	; 65
    326e:	31 f0       	breq	.+12     	; 0x327c <httpd_data_send+0x292>
    3270:	2d c0       	rjmp	.+90     	; 0x32cc <httpd_data_send+0x2e2>
    3272:	e3 34       	cpi	r30, 0x43	; 67
    3274:	b9 f0       	breq	.+46     	; 0x32a4 <httpd_data_send+0x2ba>
    3276:	e4 34       	cpi	r30, 0x44	; 68
    3278:	f9 f0       	breq	.+62     	; 0x32b8 <httpd_data_send+0x2ce>
    327a:	28 c0       	rjmp	.+80     	; 0x32cc <httpd_data_send+0x2e2>
				{
					case 'A':
						b = (PINA & (1<<pin));
    327c:	29 b3       	in	r18, 0x19	; 25
    327e:	a4 01       	movw	r20, r8
    3280:	02 c0       	rjmp	.+4      	; 0x3286 <httpd_data_send+0x29c>
    3282:	44 0f       	add	r20, r20
    3284:	55 1f       	adc	r21, r21
    3286:	8a 95       	dec	r24
    3288:	e2 f7       	brpl	.-8      	; 0x3282 <httpd_data_send+0x298>
    328a:	ca 01       	movw	r24, r20
    328c:	82 23       	and	r24, r18
						break;
    328e:	1f c0       	rjmp	.+62     	; 0x32ce <httpd_data_send+0x2e4>
					case 'B':
						b = (PINB & (1<<pin));
    3290:	26 b3       	in	r18, 0x16	; 22
    3292:	f4 01       	movw	r30, r8
    3294:	02 c0       	rjmp	.+4      	; 0x329a <httpd_data_send+0x2b0>
    3296:	ee 0f       	add	r30, r30
    3298:	ff 1f       	adc	r31, r31
    329a:	8a 95       	dec	r24
    329c:	e2 f7       	brpl	.-8      	; 0x3296 <httpd_data_send+0x2ac>
    329e:	cf 01       	movw	r24, r30
    32a0:	82 23       	and	r24, r18
						break;
    32a2:	15 c0       	rjmp	.+42     	; 0x32ce <httpd_data_send+0x2e4>
					case 'C':
						b = (PINC & (1<<pin));
    32a4:	23 b3       	in	r18, 0x13	; 19
    32a6:	a4 01       	movw	r20, r8
    32a8:	02 c0       	rjmp	.+4      	; 0x32ae <httpd_data_send+0x2c4>
    32aa:	44 0f       	add	r20, r20
    32ac:	55 1f       	adc	r21, r21
    32ae:	8a 95       	dec	r24
    32b0:	e2 f7       	brpl	.-8      	; 0x32aa <httpd_data_send+0x2c0>
    32b2:	ca 01       	movw	r24, r20
    32b4:	82 23       	and	r24, r18
						break;
    32b6:	0b c0       	rjmp	.+22     	; 0x32ce <httpd_data_send+0x2e4>
					case 'D':
						b = (PIND & (1<<pin));
    32b8:	20 b3       	in	r18, 0x10	; 16
    32ba:	f4 01       	movw	r30, r8
    32bc:	02 c0       	rjmp	.+4      	; 0x32c2 <httpd_data_send+0x2d8>
    32be:	ee 0f       	add	r30, r30
    32c0:	ff 1f       	adc	r31, r31
    32c2:	8a 95       	dec	r24
    32c4:	e2 f7       	brpl	.-8      	; 0x32be <httpd_data_send+0x2d4>
    32c6:	cf 01       	movw	r24, r30
    32c8:	82 23       	and	r24, r18
						break;    
    32ca:	01 c0       	rjmp	.+2      	; 0x32ce <httpd_data_send+0x2e4>
			//Einsetzen des Pin Status %PI@xy bis %PI@xy durch "ledon" oder "ledoff"
			//x = 0 : PINA / x = 1 : PINB / x = 2 : PINC / x = 3 : PIND
			if (strncasecmp_P("PIN",http_entry[index].new_page_pointer,3)==0)
			{
				unsigned char pin  = (pgm_read_byte(http_entry[index].new_page_pointer+4)-48);	
				b = 0;
    32cc:	84 2d       	mov	r24, r4
					case 'D':
						b = (PIND & (1<<pin));
						break;    
				}
				
				if(b)
    32ce:	88 23       	and	r24, r24
    32d0:	39 f0       	breq	.+14     	; 0x32e0 <httpd_data_send+0x2f6>
				{
					strcpy_P(var_conversion_buffer, PSTR("ledon.gif"));
    32d2:	69 e7       	ldi	r22, 0x79	; 121
    32d4:	73 e0       	ldi	r23, 0x03	; 3
    32d6:	ce 01       	movw	r24, r28
    32d8:	01 96       	adiw	r24, 0x01	; 1
    32da:	0e 94 1d 2e 	call	0x5c3a	; 0x5c3a <strcpy_P>
    32de:	06 c0       	rjmp	.+12     	; 0x32ec <httpd_data_send+0x302>
				}
				else
				{
					strcpy_P(var_conversion_buffer, PSTR("ledoff.gif"));
    32e0:	6e e6       	ldi	r22, 0x6E	; 110
    32e2:	73 e0       	ldi	r23, 0x03	; 3
    32e4:	ce 01       	movw	r24, r28
    32e6:	01 96       	adiw	r24, 0x01	; 1
    32e8:	0e 94 1d 2e 	call	0x5c3a	; 0x5c3a <strcpy_P>
				}
				str_len = strnlen(var_conversion_buffer,CONVERSION_BUFFER_LEN);
    32ec:	6a e0       	ldi	r22, 0x0A	; 10
    32ee:	70 e0       	ldi	r23, 0x00	; 0
    32f0:	ce 01       	movw	r24, r28
    32f2:	01 96       	adiw	r24, 0x01	; 1
    32f4:	0e 94 b4 2e 	call	0x5d68	; 0x5d68 <strnlen>
    32f8:	7c 01       	movw	r14, r24
    32fa:	ff 24       	eor	r15, r15
				memmove(&eth_buffer[TCP_DATA_START+a],var_conversion_buffer,str_len);
    32fc:	a7 01       	movw	r20, r14
    32fe:	be 01       	movw	r22, r28
    3300:	6f 5f       	subi	r22, 0xFF	; 255
    3302:	7f 4f       	sbci	r23, 0xFF	; 255
    3304:	c8 01       	movw	r24, r16
    3306:	8a 55       	subi	r24, 0x5A	; 90
    3308:	9c 4f       	sbci	r25, 0xFC	; 252
    330a:	0e 94 3c 2e 	call	0x5c78	; 0x5c78 <memcpy>
    330e:	01 50       	subi	r16, 0x01	; 1
    3310:	11 09       	sbc	r17, r1
				a += str_len-1;
    3312:	0e 0d       	add	r16, r14
    3314:	1f 1d       	adc	r17, r15
				http_entry[index].new_page_pointer = http_entry[index].new_page_pointer+5;
    3316:	f6 01       	movw	r30, r12
    3318:	80 81       	ld	r24, Z
    331a:	91 81       	ldd	r25, Z+1	; 0x01
    331c:	05 96       	adiw	r24, 0x05	; 5
    331e:	91 83       	std	Z+1, r25	; 0x01
    3320:	80 83       	st	Z, r24
			}
			//wurde das Ende des Packetes erreicht?
			//Verbindung TCP Port kann beim nchsten ACK geschlossen werden
			//Schleife wird abgebrochen keine Daten mehr!!
			if (strncasecmp_P("END",http_entry[index].new_page_pointer,3)==0)
    3322:	f6 01       	movw	r30, r12
    3324:	60 81       	ld	r22, Z
    3326:	71 81       	ldd	r23, Z+1	; 0x01
    3328:	43 e0       	ldi	r20, 0x03	; 3
    332a:	50 e0       	ldi	r21, 0x00	; 0
    332c:	89 e4       	ldi	r24, 0x49	; 73
    332e:	91 e0       	ldi	r25, 0x01	; 1
    3330:	0e 94 24 2e 	call	0x5c48	; 0x5c48 <strncasecmp_P>
    3334:	89 2b       	or	r24, r25
    3336:	69 f4       	brne	.+26     	; 0x3352 <httpd_data_send+0x368>
			{	
				tcp_entry[index].app_status = 0xFFFD;
    3338:	86 e1       	ldi	r24, 0x16	; 22
    333a:	86 9d       	mul	r24, r6
    333c:	f0 01       	movw	r30, r0
    333e:	87 9d       	mul	r24, r7
    3340:	f0 0d       	add	r31, r0
    3342:	11 24       	eor	r1, r1
    3344:	e2 58       	subi	r30, 0x82	; 130
    3346:	fd 4f       	sbci	r31, 0xFD	; 253
    3348:	8d ef       	ldi	r24, 0xFD	; 253
    334a:	9f ef       	ldi	r25, 0xFF	; 255
    334c:	92 8b       	std	Z+18, r25	; 0x12
    334e:	81 8b       	std	Z+17, r24	; 0x11
				break;
    3350:	07 c0       	rjmp	.+14     	; 0x3360 <httpd_data_send+0x376>
	{
		http_entry[index].new_page_pointer = http_entry[index].old_page_pointer;
	}
	http_entry[index].old_page_pointer = http_entry[index].new_page_pointer;

	for (a = 0;a<(MTU_SIZE-(TCP_DATA_START)-150);a++)
    3352:	0f 5f       	subi	r16, 0xFF	; 255
    3354:	1f 4f       	sbci	r17, 0xFF	; 255
    3356:	0c 38       	cpi	r16, 0x8C	; 140
    3358:	f1 e0       	ldi	r31, 0x01	; 1
    335a:	1f 07       	cpc	r17, r31
    335c:	08 f4       	brcc	.+2      	; 0x3360 <httpd_data_send+0x376>
    335e:	a8 ce       	rjmp	.-688    	; 0x30b0 <httpd_data_send+0xc6>
				break;
			}
		}
	}
	//Erzeugte Packet kann nun gesendet werden!
	tcp_entry[index].status =  ACK_FLAG | PSH_FLAG;
    3360:	86 e1       	ldi	r24, 0x16	; 22
    3362:	86 9d       	mul	r24, r6
    3364:	f0 01       	movw	r30, r0
    3366:	87 9d       	mul	r24, r7
    3368:	f0 0d       	add	r31, r0
    336a:	11 24       	eor	r1, r1
    336c:	e2 58       	subi	r30, 0x82	; 130
    336e:	fd 4f       	sbci	r31, 0xFD	; 253
    3370:	88 e1       	ldi	r24, 0x18	; 24
    3372:	80 8b       	std	Z+16, r24	; 0x10
	create_new_tcp_packet(a,index);
    3374:	65 2d       	mov	r22, r5
    3376:	c8 01       	movw	r24, r16
    3378:	0e 94 a7 23 	call	0x474e	; 0x474e <create_new_tcp_packet>
	return;
}
    337c:	2a 96       	adiw	r28, 0x0a	; 10
    337e:	0f b6       	in	r0, 0x3f	; 63
    3380:	f8 94       	cli
    3382:	de bf       	out	0x3e, r29	; 62
    3384:	0f be       	out	0x3f, r0	; 63
    3386:	cd bf       	out	0x3d, r28	; 61
    3388:	df 91       	pop	r29
    338a:	cf 91       	pop	r28
    338c:	1f 91       	pop	r17
    338e:	0f 91       	pop	r16
    3390:	ff 90       	pop	r15
    3392:	ef 90       	pop	r14
    3394:	df 90       	pop	r13
    3396:	cf 90       	pop	r12
    3398:	bf 90       	pop	r11
    339a:	af 90       	pop	r10
    339c:	9f 90       	pop	r9
    339e:	8f 90       	pop	r8
    33a0:	7f 90       	pop	r7
    33a2:	6f 90       	pop	r6
    33a4:	5f 90       	pop	r5
    33a6:	4f 90       	pop	r4
    33a8:	08 95       	ret

000033aa <httpd>:
}
   
//----------------------------------------------------------------------------
//http Testserver
void httpd (unsigned char index)
{
    33aa:	0f 93       	push	r16
    33ac:	1f 93       	push	r17
    33ae:	cf 93       	push	r28
    //Verbindung wurde abgebaut!
    if (tcp_entry[index].status & FIN_FLAG)
    33b0:	08 2f       	mov	r16, r24
    33b2:	10 e0       	ldi	r17, 0x00	; 0
    33b4:	26 e1       	ldi	r18, 0x16	; 22
    33b6:	82 9f       	mul	r24, r18
    33b8:	f0 01       	movw	r30, r0
    33ba:	11 24       	eor	r1, r1
    33bc:	e2 58       	subi	r30, 0x82	; 130
    33be:	fd 4f       	sbci	r31, 0xFD	; 253
    33c0:	90 89       	ldd	r25, Z+16	; 0x10
    33c2:	90 fd       	sbrc	r25, 0
    33c4:	64 c0       	rjmp	.+200    	; 0x348e <httpd+0xe4>
    33c6:	c8 2f       	mov	r28, r24
        return;
    }

	//Allererste Aufruf des Ports fr diese Anwendung
	//HTTPD_Anwendungsstack lschen
	if(tcp_entry[index].app_status==1)
    33c8:	86 e1       	ldi	r24, 0x16	; 22
    33ca:	80 9f       	mul	r24, r16
    33cc:	f0 01       	movw	r30, r0
    33ce:	81 9f       	mul	r24, r17
    33d0:	f0 0d       	add	r31, r0
    33d2:	11 24       	eor	r1, r1
    33d4:	e2 58       	subi	r30, 0x82	; 130
    33d6:	fd 4f       	sbci	r31, 0xFD	; 253
    33d8:	81 89       	ldd	r24, Z+17	; 0x11
    33da:	92 89       	ldd	r25, Z+18	; 0x12
    33dc:	01 97       	sbiw	r24, 0x01	; 1
    33de:	19 f4       	brne	.+6      	; 0x33e6 <httpd+0x3c>
	{
		httpd_stack_clear(index);
    33e0:	80 2f       	mov	r24, r16
    33e2:	0e 94 35 14 	call	0x286a	; 0x286a <httpd_stack_clear>
	}
	
	//HTTP wurde bei dieser Verbindung zum ersten mal aufgerufen oder
	//HTML Header Retransmission!
	if (tcp_entry[index].app_status <= 2)
    33e6:	86 e1       	ldi	r24, 0x16	; 22
    33e8:	80 9f       	mul	r24, r16
    33ea:	f0 01       	movw	r30, r0
    33ec:	81 9f       	mul	r24, r17
    33ee:	f0 0d       	add	r31, r0
    33f0:	11 24       	eor	r1, r1
    33f2:	e2 58       	subi	r30, 0x82	; 130
    33f4:	fd 4f       	sbci	r31, 0xFD	; 253
    33f6:	81 89       	ldd	r24, Z+17	; 0x11
    33f8:	92 89       	ldd	r25, Z+18	; 0x12
    33fa:	03 97       	sbiw	r24, 0x03	; 3
    33fc:	20 f4       	brcc	.+8      	; 0x3406 <httpd+0x5c>
	{	
		httpd_header_check (index);
    33fe:	8c 2f       	mov	r24, r28
    3400:	0e 94 58 14 	call	0x28b0	; 0x28b0 <httpd_header_check>
		return;
    3404:	44 c0       	rjmp	.+136    	; 0x348e <httpd+0xe4>
	}
	
	//Der Header wurde gesendet und mit ACK besttigt (tcp_entry[index].app_status+1)
	//war das HTML Packet fertig, oder mssen weitere Daten gesendet werden, oder Retransmission?
	if (tcp_entry[index].app_status > 2 && tcp_entry[index].app_status < 0xFFFE && tcp_entry[index].status == ACK_FLAG)
    3406:	86 e1       	ldi	r24, 0x16	; 22
    3408:	80 9f       	mul	r24, r16
    340a:	f0 01       	movw	r30, r0
    340c:	81 9f       	mul	r24, r17
    340e:	f0 0d       	add	r31, r0
    3410:	11 24       	eor	r1, r1
    3412:	e2 58       	subi	r30, 0x82	; 130
    3414:	fd 4f       	sbci	r31, 0xFD	; 253
    3416:	81 89       	ldd	r24, Z+17	; 0x11
    3418:	92 89       	ldd	r25, Z+18	; 0x12
    341a:	03 97       	sbiw	r24, 0x03	; 3
    341c:	e0 f0       	brcs	.+56     	; 0x3456 <httpd+0xac>
    341e:	86 e1       	ldi	r24, 0x16	; 22
    3420:	80 9f       	mul	r24, r16
    3422:	f0 01       	movw	r30, r0
    3424:	81 9f       	mul	r24, r17
    3426:	f0 0d       	add	r31, r0
    3428:	11 24       	eor	r1, r1
    342a:	e2 58       	subi	r30, 0x82	; 130
    342c:	fd 4f       	sbci	r31, 0xFD	; 253
    342e:	81 89       	ldd	r24, Z+17	; 0x11
    3430:	92 89       	ldd	r25, Z+18	; 0x12
    3432:	8e 3f       	cpi	r24, 0xFE	; 254
    3434:	9f 4f       	sbci	r25, 0xFF	; 255
    3436:	78 f4       	brcc	.+30     	; 0x3456 <httpd+0xac>
    3438:	86 e1       	ldi	r24, 0x16	; 22
    343a:	80 9f       	mul	r24, r16
    343c:	f0 01       	movw	r30, r0
    343e:	81 9f       	mul	r24, r17
    3440:	f0 0d       	add	r31, r0
    3442:	11 24       	eor	r1, r1
    3444:	e2 58       	subi	r30, 0x82	; 130
    3446:	fd 4f       	sbci	r31, 0xFD	; 253
    3448:	80 89       	ldd	r24, Z+16	; 0x10
    344a:	80 31       	cpi	r24, 0x10	; 16
    344c:	21 f4       	brne	.+8      	; 0x3456 <httpd+0xac>
	{
		httpd_data_send (index);
    344e:	8c 2f       	mov	r24, r28
    3450:	0e 94 f5 17 	call	0x2fea	; 0x2fea <httpd_data_send>
		return;
    3454:	1c c0       	rjmp	.+56     	; 0x348e <httpd+0xe4>
	}
	
	//Verbindung kann geschlossen werden! Alle HTML Daten wurden gesendet TCP Port kann
	//geschlossen werden (tcp_entry[index].app_status >= 0xFFFE)!!
	if (tcp_entry[index].app_status >= 0xFFFE)
    3456:	86 e1       	ldi	r24, 0x16	; 22
    3458:	80 9f       	mul	r24, r16
    345a:	f0 01       	movw	r30, r0
    345c:	81 9f       	mul	r24, r17
    345e:	f0 0d       	add	r31, r0
    3460:	11 24       	eor	r1, r1
    3462:	e2 58       	subi	r30, 0x82	; 130
    3464:	fd 4f       	sbci	r31, 0xFD	; 253
    3466:	81 89       	ldd	r24, Z+17	; 0x11
    3468:	92 89       	ldd	r25, Z+18	; 0x12
    346a:	8e 3f       	cpi	r24, 0xFE	; 254
    346c:	9f 4f       	sbci	r25, 0xFF	; 255
    346e:	78 f0       	brcs	.+30     	; 0x348e <httpd+0xe4>
	{
		tcp_entry[index].app_status = 0xFFFE;
    3470:	86 e1       	ldi	r24, 0x16	; 22
    3472:	80 9f       	mul	r24, r16
    3474:	f0 01       	movw	r30, r0
    3476:	81 9f       	mul	r24, r17
    3478:	f0 0d       	add	r31, r0
    347a:	11 24       	eor	r1, r1
    347c:	e2 58       	subi	r30, 0x82	; 130
    347e:	fd 4f       	sbci	r31, 0xFD	; 253
    3480:	8e ef       	ldi	r24, 0xFE	; 254
    3482:	9f ef       	ldi	r25, 0xFF	; 255
    3484:	92 8b       	std	Z+18, r25	; 0x12
    3486:	81 8b       	std	Z+17, r24	; 0x11
		tcp_Port_close(index);
    3488:	8c 2f       	mov	r24, r28
    348a:	0e 94 49 24 	call	0x4892	; 0x4892 <tcp_Port_close>
		return;
	}
	return;
}
    348e:	cf 91       	pop	r28
    3490:	1f 91       	pop	r17
    3492:	0f 91       	pop	r16
    3494:	08 95       	ret

00003496 <main>:
	unsigned char reset_counter = 0;
	unsigned long time_update;
				
	//Konfiguration der Ausgnge bzw. Eingnge
	//definition erfolgt in der config.h
	DDRA = OUTA;
    3496:	87 e0       	ldi	r24, 0x07	; 7
    3498:	8a bb       	out	0x1a, r24	; 26
	DDRC = OUTC;
    349a:	86 e0       	ldi	r24, 0x06	; 6
    349c:	84 bb       	out	0x14, r24	; 20
	DDRD = OUTD;
    349e:	11 ba       	out	0x11, r1	; 17
    unsigned long a;
	#if USE_SERVO
		servo_init ();
	#endif //USE_SERVO
	
    usart_init(BAUDRATE); // setup the UART
    34a0:	60 e8       	ldi	r22, 0x80	; 128
    34a2:	75 e2       	ldi	r23, 0x25	; 37
    34a4:	80 e0       	ldi	r24, 0x00	; 0
    34a6:	90 e0       	ldi	r25, 0x00	; 0
    34a8:	0e 94 bc 2a 	call	0x5578	; 0x5578 <usart_init>
	
	#if USE_ADC
		ADC_Init();
	#endif
	
	usart_write("\n\rSystem Ready\n\r");
    34ac:	86 e0       	ldi	r24, 0x06	; 6
    34ae:	9e e1       	ldi	r25, 0x1E	; 30
    34b0:	9f 93       	push	r25
    34b2:	8f 93       	push	r24
    34b4:	0e 94 f7 2a 	call	0x55ee	; 0x55ee <usart_write_P>
    usart_write("Compiliert am "__DATE__" um "__TIME__"\r\n");
    34b8:	8e ed       	ldi	r24, 0xDE	; 222
    34ba:	9d e1       	ldi	r25, 0x1D	; 29
    34bc:	9f 93       	push	r25
    34be:	8f 93       	push	r24
    34c0:	0e 94 f7 2a 	call	0x55ee	; 0x55ee <usart_write_P>
    usart_write("Compiliert mit GCC Version "__VERSION__"\r\n");
    34c4:	8b eb       	ldi	r24, 0xBB	; 187
    34c6:	9d e1       	ldi	r25, 0x1D	; 29
    34c8:	9f 93       	push	r25
    34ca:	8f 93       	push	r24
    34cc:	0e 94 f7 2a 	call	0x55ee	; 0x55ee <usart_write_P>
    34d0:	0f 90       	pop	r0
    34d2:	0f 90       	pop	r0
    34d4:	0f 90       	pop	r0
    34d6:	0f 90       	pop	r0
    34d8:	0f 90       	pop	r0
    34da:	0f 90       	pop	r0
    34dc:	80 e4       	ldi	r24, 0x40	; 64
    34de:	92 e4       	ldi	r25, 0x42	; 66
    34e0:	af e0       	ldi	r26, 0x0F	; 15
    34e2:	b0 e0       	ldi	r27, 0x00	; 0

	for(a=0;a<1000000;a++){asm("nop");};
    34e4:	00 00       	nop
    34e6:	01 97       	sbiw	r24, 0x01	; 1
    34e8:	a1 09       	sbc	r26, r1
    34ea:	b1 09       	sbc	r27, r1
    34ec:	d9 f7       	brne	.-10     	; 0x34e4 <main+0x4e>

	//Applikationen starten
	stack_init();
    34ee:	0e 94 ed 1d 	call	0x3bda	; 0x3bda <stack_init>
	httpd_init();
    34f2:	0e 94 28 14 	call	0x2850	; 0x2850 <httpd_init>
	telnetd_init();
    34f6:	0e 94 9f 28 	call	0x513e	; 0x513e <telnetd_init>
	lcd_clear();
	back_light = 1;
	lcd_print(0,0,"System Ready");
	#endif
	//Ethernetcard Interrupt enable
	ETH_INT_ENABLE;
    34fa:	8b b7       	in	r24, 0x3b	; 59
    34fc:	80 62       	ori	r24, 0x20	; 32
    34fe:	8b bf       	out	0x3b, r24	; 59
	
	//Globale Interrupts einschalten
	sei(); 
    3500:	78 94       	sei
        read_ip_addresses(); //get from EEPROM
    }
    #endif //USE_DHCP
	#endif //!USE_ARTNET
	
    usart_write("\r\nIP   %1i.%1i.%1i.%1i\r\n", myip[0]     , myip[1]     , myip[2]     , myip[3]);
    3502:	ef ec       	ldi	r30, 0xCF	; 207
    3504:	f5 e0       	ldi	r31, 0x05	; 5
    3506:	83 81       	ldd	r24, Z+3	; 0x03
    3508:	1f 92       	push	r1
    350a:	8f 93       	push	r24
    350c:	82 81       	ldd	r24, Z+2	; 0x02
    350e:	1f 92       	push	r1
    3510:	8f 93       	push	r24
    3512:	81 81       	ldd	r24, Z+1	; 0x01
    3514:	1f 92       	push	r1
    3516:	8f 93       	push	r24
    3518:	80 81       	ld	r24, Z
    351a:	1f 92       	push	r1
    351c:	8f 93       	push	r24
    351e:	82 ea       	ldi	r24, 0xA2	; 162
    3520:	9d e1       	ldi	r25, 0x1D	; 29
    3522:	9f 93       	push	r25
    3524:	8f 93       	push	r24
    3526:	0e 94 f7 2a 	call	0x55ee	; 0x55ee <usart_write_P>
    usart_write("MASK %1i.%1i.%1i.%1i\r\n", netmask[0]  , netmask[1]  , netmask[2]  , netmask[3]);
    352a:	e7 ed       	ldi	r30, 0xD7	; 215
    352c:	f5 e0       	ldi	r31, 0x05	; 5
    352e:	83 81       	ldd	r24, Z+3	; 0x03
    3530:	1f 92       	push	r1
    3532:	8f 93       	push	r24
    3534:	82 81       	ldd	r24, Z+2	; 0x02
    3536:	1f 92       	push	r1
    3538:	8f 93       	push	r24
    353a:	81 81       	ldd	r24, Z+1	; 0x01
    353c:	1f 92       	push	r1
    353e:	8f 93       	push	r24
    3540:	80 81       	ld	r24, Z
    3542:	1f 92       	push	r1
    3544:	8f 93       	push	r24
    3546:	8b e8       	ldi	r24, 0x8B	; 139
    3548:	9d e1       	ldi	r25, 0x1D	; 29
    354a:	9f 93       	push	r25
    354c:	8f 93       	push	r24
    354e:	0e 94 f7 2a 	call	0x55ee	; 0x55ee <usart_write_P>
    usart_write("GW   %1i.%1i.%1i.%1i\r\n", router_ip[0], router_ip[1], router_ip[2], router_ip[3]);
    3552:	e3 ed       	ldi	r30, 0xD3	; 211
    3554:	f5 e0       	ldi	r31, 0x05	; 5
    3556:	83 81       	ldd	r24, Z+3	; 0x03
    3558:	1f 92       	push	r1
    355a:	8f 93       	push	r24
    355c:	82 81       	ldd	r24, Z+2	; 0x02
    355e:	1f 92       	push	r1
    3560:	8f 93       	push	r24
    3562:	81 81       	ldd	r24, Z+1	; 0x01
    3564:	1f 92       	push	r1
    3566:	8f 93       	push	r24
    3568:	80 81       	ld	r24, Z
    356a:	1f 92       	push	r1
    356c:	8f 93       	push	r24
    356e:	84 e7       	ldi	r24, 0x74	; 116
    3570:	9d e1       	ldi	r25, 0x1D	; 29
    3572:	9f 93       	push	r25
    3574:	8f 93       	push	r24
    3576:	0e 94 f7 2a 	call	0x55ee	; 0x55ee <usart_write_P>
    357a:	8d b7       	in	r24, 0x3d	; 61
    357c:	9e b7       	in	r25, 0x3e	; 62
    357e:	4e 96       	adiw	r24, 0x1e	; 30
    3580:	0f b6       	in	r0, 0x3f	; 63
    3582:	f8 94       	cli
    3584:	9e bf       	out	0x3e, r25	; 62
    3586:	0f be       	out	0x3f, r0	; 63
    3588:	8d bf       	out	0x3d, r24	; 61

//----------------------------------------------------------------------------
//Hier startet das Hauptprogramm
int main(void)
{  
	unsigned char reset_counter = 0;
    358a:	91 2c       	mov	r9, r1
		artnet_main();
		#endif
		
        //Terminalcommandos auswerten
		if (usart_status.usart_ready){
            usart_write("\r\n");
    358c:	0f 2e       	mov	r0, r31
    358e:	f1 e7       	ldi	r31, 0x71	; 113
    3590:	ef 2e       	mov	r14, r31
    3592:	fd e1       	ldi	r31, 0x1D	; 29
    3594:	ff 2e       	mov	r15, r31
    3596:	f0 2d       	mov	r31, r0
			{
				usart_write("Ready\r\n\r\n");
			}
			else
			{
				usart_write("ERROR\r\n\r\n");
    3598:	0f 2e       	mov	r0, r31
    359a:	fd e5       	ldi	r31, 0x5D	; 93
    359c:	af 2e       	mov	r10, r31
    359e:	fd e1       	ldi	r31, 0x1D	; 29
    35a0:	bf 2e       	mov	r11, r31
    35a2:	f0 2d       	mov	r31, r0
        //Terminalcommandos auswerten
		if (usart_status.usart_ready){
            usart_write("\r\n");
			if(extract_cmd(&usart_rx_buffer[0]))
			{
				usart_write("Ready\r\n\r\n");
    35a4:	0f 2e       	mov	r0, r31
    35a6:	f7 e6       	ldi	r31, 0x67	; 103
    35a8:	cf 2e       	mov	r12, r31
    35aa:	fd e1       	ldi	r31, 0x1D	; 29
    35ac:	df 2e       	mov	r13, r31
    35ae:	f0 2d       	mov	r31, r0
        #endif //USE_DHCP
  
		//USART Daten fr Telnetanwendung?
		telnetd_send_data();
        
        if(ping.result)
    35b0:	c9 ec       	ldi	r28, 0xC9	; 201
    35b2:	d5 e0       	ldi	r29, 0x05	; 5
        {
            usart_write("Get PONG: %i.%i.%i.%i\r\n",ping.ip1[0],ping.ip1[1],ping.ip1[2],ping.ip1[3]); 
    35b4:	05 e4       	ldi	r16, 0x45	; 69
    35b6:	1d e1       	ldi	r17, 0x1D	; 29
	while(1)
	{
		#if USE_ADC
		ANALOG_ON;
		#endif
	    eth_get_data();
    35b8:	0e 94 a9 27 	call	0x4f52	; 0x4f52 <eth_get_data>
		#if USE_ARTNET
		artnet_main();
		#endif
		
        //Terminalcommandos auswerten
		if (usart_status.usart_ready){
    35bc:	80 91 c7 01 	lds	r24, 0x01C7	; 0x8001c7 <usart_status>
    35c0:	80 ff       	sbrs	r24, 0
    35c2:	1e c0       	rjmp	.+60     	; 0x3600 <main+0x16a>
            usart_write("\r\n");
    35c4:	ff 92       	push	r15
    35c6:	ef 92       	push	r14
    35c8:	0e 94 f7 2a 	call	0x55ee	; 0x55ee <usart_write_P>
			if(extract_cmd(&usart_rx_buffer[0]))
    35cc:	88 ec       	ldi	r24, 0xC8	; 200
    35ce:	91 e0       	ldi	r25, 0x01	; 1
    35d0:	0e 94 d1 12 	call	0x25a2	; 0x25a2 <extract_cmd>
    35d4:	0f 90       	pop	r0
    35d6:	0f 90       	pop	r0
    35d8:	88 23       	and	r24, r24
    35da:	39 f0       	breq	.+14     	; 0x35ea <main+0x154>
			{
				usart_write("Ready\r\n\r\n");
    35dc:	df 92       	push	r13
    35de:	cf 92       	push	r12
    35e0:	0e 94 f7 2a 	call	0x55ee	; 0x55ee <usart_write_P>
    35e4:	0f 90       	pop	r0
    35e6:	0f 90       	pop	r0
    35e8:	06 c0       	rjmp	.+12     	; 0x35f6 <main+0x160>
			}
			else
			{
				usart_write("ERROR\r\n\r\n");
    35ea:	bf 92       	push	r11
    35ec:	af 92       	push	r10
    35ee:	0e 94 f7 2a 	call	0x55ee	; 0x55ee <usart_write_P>
    35f2:	0f 90       	pop	r0
    35f4:	0f 90       	pop	r0
			}
			usart_status.usart_ready =0;
    35f6:	80 91 c7 01 	lds	r24, 0x01C7	; 0x8001c7 <usart_status>
    35fa:	8e 7f       	andi	r24, 0xFE	; 254
    35fc:	80 93 c7 01 	sts	0x01C7, r24	; 0x8001c7 <usart_status>
			RESET();
        }
        #endif //USE_DHCP
  
		//USART Daten fr Telnetanwendung?
		telnetd_send_data();
    3600:	0e 94 a6 28 	call	0x514c	; 0x514c <telnetd_send_data>
        
        if(ping.result)
    3604:	8d 81       	ldd	r24, Y+5	; 0x05
    3606:	88 23       	and	r24, r24
    3608:	c9 f0       	breq	.+50     	; 0x363c <main+0x1a6>
        {
            usart_write("Get PONG: %i.%i.%i.%i\r\n",ping.ip1[0],ping.ip1[1],ping.ip1[2],ping.ip1[3]); 
    360a:	8b 81       	ldd	r24, Y+3	; 0x03
    360c:	1f 92       	push	r1
    360e:	8f 93       	push	r24
    3610:	8a 81       	ldd	r24, Y+2	; 0x02
    3612:	1f 92       	push	r1
    3614:	8f 93       	push	r24
    3616:	89 81       	ldd	r24, Y+1	; 0x01
    3618:	1f 92       	push	r1
    361a:	8f 93       	push	r24
    361c:	88 81       	ld	r24, Y
    361e:	1f 92       	push	r1
    3620:	8f 93       	push	r24
    3622:	1f 93       	push	r17
    3624:	0f 93       	push	r16
    3626:	0e 94 f7 2a 	call	0x55ee	; 0x55ee <usart_write_P>
            ping.result = 0;
    362a:	1d 82       	std	Y+5, r1	; 0x05
    362c:	8d b7       	in	r24, 0x3d	; 61
    362e:	9e b7       	in	r25, 0x3e	; 62
    3630:	0a 96       	adiw	r24, 0x0a	; 10
    3632:	0f b6       	in	r0, 0x3f	; 63
    3634:	f8 94       	cli
    3636:	9e bf       	out	0x3e, r25	; 62
    3638:	0f be       	out	0x3f, r0	; 63
    363a:	8d bf       	out	0x3d, r24	; 61
        }
		
		#if USE_ENC28J60
			//wird jede Sekunde aufgerufen
			if(time != time_update)
    363c:	80 91 04 03 	lds	r24, 0x0304	; 0x800304 <time>
    3640:	90 91 05 03 	lds	r25, 0x0305	; 0x800305 <time+0x1>
    3644:	a0 91 06 03 	lds	r26, 0x0306	; 0x800306 <time+0x2>
    3648:	b0 91 07 03 	lds	r27, 0x0307	; 0x800307 <time+0x3>
    364c:	89 2b       	or	r24, r25
    364e:	8a 2b       	or	r24, r26
    3650:	8b 2b       	or	r24, r27
    3652:	09 f4       	brne	.+2      	; 0x3656 <main+0x1c0>
    3654:	b1 cf       	rjmp	.-158    	; 0x35b8 <main+0x122>
			{
				if(eth.no_reset)
    3656:	80 91 68 02 	lds	r24, 0x0268	; 0x800268 <eth>
    365a:	82 ff       	sbrs	r24, 2
    365c:	07 c0       	rjmp	.+14     	; 0x366c <main+0x1d6>
				{
					reset_counter = 0;
					eth.no_reset = 0;
    365e:	80 91 68 02 	lds	r24, 0x0268	; 0x800268 <eth>
    3662:	8b 7f       	andi	r24, 0xFB	; 251
    3664:	80 93 68 02 	sts	0x0268, r24	; 0x800268 <eth>
			//wird jede Sekunde aufgerufen
			if(time != time_update)
			{
				if(eth.no_reset)
				{
					reset_counter = 0;
    3668:	91 2c       	mov	r9, r1
    366a:	a6 cf       	rjmp	.-180    	; 0x35b8 <main+0x122>
					eth.no_reset = 0;
				}
				else
				{
					if((reset_counter++)>5)
    366c:	95 e0       	ldi	r25, 0x05	; 5
    366e:	99 15       	cp	r25, r9
    3670:	10 f0       	brcs	.+4      	; 0x3676 <main+0x1e0>
    3672:	93 94       	inc	r9
    3674:	a1 cf       	rjmp	.-190    	; 0x35b8 <main+0x122>
					{
						reset_counter = 0;
						enc_init();
    3676:	0e 94 6a 1c 	call	0x38d4	; 0x38d4 <enc_init>
				}
				else
				{
					if((reset_counter++)>5)
					{
						reset_counter = 0;
    367a:	91 2c       	mov	r9, r1
    367c:	9d cf       	rjmp	.-198    	; 0x35b8 <main+0x122>

0000367e <usdelay>:

//-----------------------------------------------------------------------------

static void usdelay( unsigned int us )
{
	while( us-- ) {
    367e:	01 97       	sbiw	r24, 0x01	; 1
    3680:	28 f0       	brcs	.+10     	; 0x368c <usdelay+0xe>
	...
		// 4 times * 4 cycles gives 16 cyles = 1 us with 16 MHz clocking
		unsigned char i=4;
		// this while loop executes with exact 4 cycles:
		while( i-- ) { asm volatile("nop"); }
    368a:	f9 cf       	rjmp	.-14     	; 0x367e <usdelay>
    368c:	08 95       	ret

0000368e <enc_clrbits_reg>:
{
	// no automatic bank switching in this function !!!

	unsigned char addr = reg & ENC_REG_ADDR_MASK;

	enc_select();
    368e:	c3 98       	cbi	0x18, 3	; 24
	spi_put( ENC_SPI_OP_BFC | addr );
    3690:	8f 71       	andi	r24, 0x1F	; 31
    3692:	80 6a       	ori	r24, 0xA0	; 160
}

static inline void spi_put( unsigned char value )
{
	//ENC_DEBUG("spi_put(%2x)\n", (unsigned) value );
	SPDR = value;
    3694:	8f b9       	out	0x0f, r24	; 15
	while( !(SPSR & (1<<SPIF)) ) ;
    3696:	77 9b       	sbis	0x0e, 7	; 14
    3698:	fe cf       	rjmp	.-4      	; 0x3696 <enc_clrbits_reg+0x8>
}

static inline void spi_put( unsigned char value )
{
	//ENC_DEBUG("spi_put(%2x)\n", (unsigned) value );
	SPDR = value;
    369a:	6f b9       	out	0x0f, r22	; 15
	while( !(SPSR & (1<<SPIF)) ) ;
    369c:	77 9b       	sbis	0x0e, 7	; 14
    369e:	fe cf       	rjmp	.-4      	; 0x369c <enc_clrbits_reg+0xe>
	unsigned char addr = reg & ENC_REG_ADDR_MASK;

	enc_select();
	spi_put( ENC_SPI_OP_BFC | addr );
	spi_put( bits );
	enc_deselect();
    36a0:	c3 9a       	sbi	0x18, 3	; 24
    36a2:	08 95       	ret

000036a4 <enc_setbits_reg>:
{
	// no automatic bank switching in this function !!!

	unsigned char addr = reg & ENC_REG_ADDR_MASK;

	enc_select();
    36a4:	c3 98       	cbi	0x18, 3	; 24
	spi_put( ENC_SPI_OP_BFS | addr );
    36a6:	8f 71       	andi	r24, 0x1F	; 31
    36a8:	80 68       	ori	r24, 0x80	; 128
}

static inline void spi_put( unsigned char value )
{
	//ENC_DEBUG("spi_put(%2x)\n", (unsigned) value );
	SPDR = value;
    36aa:	8f b9       	out	0x0f, r24	; 15
	while( !(SPSR & (1<<SPIF)) ) ;
    36ac:	77 9b       	sbis	0x0e, 7	; 14
    36ae:	fe cf       	rjmp	.-4      	; 0x36ac <enc_setbits_reg+0x8>
}

static inline void spi_put( unsigned char value )
{
	//ENC_DEBUG("spi_put(%2x)\n", (unsigned) value );
	SPDR = value;
    36b0:	6f b9       	out	0x0f, r22	; 15
	while( !(SPSR & (1<<SPIF)) ) ;
    36b2:	77 9b       	sbis	0x0e, 7	; 14
    36b4:	fe cf       	rjmp	.-4      	; 0x36b2 <enc_setbits_reg+0xe>
	unsigned char addr = reg & ENC_REG_ADDR_MASK;

	enc_select();
	spi_put( ENC_SPI_OP_BFS | addr );
	spi_put( bits );
	enc_deselect();
    36b6:	c3 9a       	sbi	0x18, 3	; 24
    36b8:	08 95       	ret

000036ba <enc_read_reg>:
}

static unsigned char enc_read_reg( unsigned char reg )
{
    36ba:	ff 92       	push	r15
    36bc:	0f 93       	push	r16
    36be:	1f 93       	push	r17
    36c0:	cf 93       	push	r28
    36c2:	df 93       	push	r29
    36c4:	c8 2f       	mov	r28, r24
	unsigned char value;
	unsigned char addr = reg & ENC_REG_ADDR_MASK;
    36c6:	d8 2f       	mov	r29, r24
    36c8:	df 71       	andi	r29, 0x1F	; 31

	if( addr < 0x1A ) {
    36ca:	da 31       	cpi	r29, 0x1A	; 26
    36cc:	e8 f4       	brcc	.+58     	; 0x3708 <enc_read_reg+0x4e>
		unsigned char bank = (reg & ENC_REG_BANK_MASK) >> ENC_REG_BANK_SHIFT;
    36ce:	08 2f       	mov	r16, r24
    36d0:	00 76       	andi	r16, 0x60	; 96
    36d2:	10 e0       	ldi	r17, 0x00	; 0
    36d4:	15 95       	asr	r17
    36d6:	07 95       	ror	r16
    36d8:	15 95       	asr	r17
    36da:	07 95       	ror	r16
    36dc:	15 95       	asr	r17
    36de:	07 95       	ror	r16
    36e0:	15 95       	asr	r17
    36e2:	07 95       	ror	r16
    36e4:	15 95       	asr	r17
    36e6:	07 95       	ror	r16
		if( bank != enc_cur_bank ) {
    36e8:	80 91 99 01 	lds	r24, 0x0199	; 0x800199 <enc_cur_bank>
    36ec:	08 17       	cp	r16, r24
    36ee:	61 f0       	breq	.+24     	; 0x3708 <enc_read_reg+0x4e>
			// need to switch bank first
			enc_clrbits_reg( ENC_REG_ECON1, 0x03 << ENC_BIT_BSEL0 );
    36f0:	63 e0       	ldi	r22, 0x03	; 3
    36f2:	8f e1       	ldi	r24, 0x1F	; 31
    36f4:	0e 94 47 1b 	call	0x368e	; 0x368e <enc_clrbits_reg>
			if( bank ) {
    36f8:	00 23       	and	r16, r16
    36fa:	21 f0       	breq	.+8      	; 0x3704 <enc_read_reg+0x4a>
				enc_setbits_reg( ENC_REG_ECON1, bank << ENC_BIT_BSEL0 );
    36fc:	60 2f       	mov	r22, r16
    36fe:	8f e1       	ldi	r24, 0x1F	; 31
    3700:	0e 94 52 1b 	call	0x36a4	; 0x36a4 <enc_setbits_reg>
			}
			enc_cur_bank = bank;
    3704:	00 93 99 01 	sts	0x0199, r16	; 0x800199 <enc_cur_bank>
		}
	}

	enc_select();
    3708:	c3 98       	cbi	0x18, 3	; 24
}

static inline void spi_put( unsigned char value )
{
	//ENC_DEBUG("spi_put(%2x)\n", (unsigned) value );
	SPDR = value;
    370a:	df b9       	out	0x0f, r29	; 15
	while( !(SPSR & (1<<SPIF)) ) ;
    370c:	77 9b       	sbis	0x0e, 7	; 14
    370e:	fe cf       	rjmp	.-4      	; 0x370c <enc_read_reg+0x52>
}

static inline void spi_put( unsigned char value )
{
	//ENC_DEBUG("spi_put(%2x)\n", (unsigned) value );
	SPDR = value;
    3710:	1f b8       	out	0x0f, r1	; 15
	while( !(SPSR & (1<<SPIF)) ) ;
    3712:	77 9b       	sbis	0x0e, 7	; 14
    3714:	fe cf       	rjmp	.-4      	; 0x3712 <enc_read_reg+0x58>
	}

	enc_select();
	spi_put( ENC_SPI_OP_RCR | addr );
	spi_put( 0x00 );
	if( reg & ENC_REG_WAIT_MASK ) spi_put( 0x00 );
    3716:	cc 23       	and	r28, r28
    3718:	1c f4       	brge	.+6      	; 0x3720 <enc_read_reg+0x66>
}

static inline void spi_put( unsigned char value )
{
	//ENC_DEBUG("spi_put(%2x)\n", (unsigned) value );
	SPDR = value;
    371a:	1f b8       	out	0x0f, r1	; 15
	while( !(SPSR & (1<<SPIF)) ) ;
    371c:	77 9b       	sbis	0x0e, 7	; 14
    371e:	fe cf       	rjmp	.-4      	; 0x371c <enc_read_reg+0x62>
}

static inline unsigned char spi_get(void)
{
	unsigned char value = SPDR;
    3720:	8f b1       	in	r24, 0x0f	; 15
	enc_select();
	spi_put( ENC_SPI_OP_RCR | addr );
	spi_put( 0x00 );
	if( reg & ENC_REG_WAIT_MASK ) spi_put( 0x00 );
	value = spi_get();
	enc_deselect();
    3722:	c3 9a       	sbi	0x18, 3	; 24

	return value;
}
    3724:	df 91       	pop	r29
    3726:	cf 91       	pop	r28
    3728:	1f 91       	pop	r17
    372a:	0f 91       	pop	r16
    372c:	ff 90       	pop	r15
    372e:	08 95       	ret

00003730 <enc_write_reg>:

static void enc_write_reg( unsigned char reg, unsigned char value )
{
    3730:	ff 92       	push	r15
    3732:	0f 93       	push	r16
    3734:	1f 93       	push	r17
    3736:	cf 93       	push	r28
    3738:	df 93       	push	r29
    373a:	06 2f       	mov	r16, r22
	unsigned char addr = reg & ENC_REG_ADDR_MASK;
    373c:	18 2f       	mov	r17, r24
    373e:	1f 71       	andi	r17, 0x1F	; 31

	if( addr < 0x1A ) {
    3740:	1a 31       	cpi	r17, 0x1A	; 26
    3742:	e8 f4       	brcc	.+58     	; 0x377e <enc_write_reg+0x4e>
		unsigned char bank = (reg & ENC_REG_BANK_MASK) >> ENC_REG_BANK_SHIFT;
    3744:	80 76       	andi	r24, 0x60	; 96
    3746:	c8 2f       	mov	r28, r24
    3748:	d0 e0       	ldi	r29, 0x00	; 0
    374a:	d5 95       	asr	r29
    374c:	c7 95       	ror	r28
    374e:	d5 95       	asr	r29
    3750:	c7 95       	ror	r28
    3752:	d5 95       	asr	r29
    3754:	c7 95       	ror	r28
    3756:	d5 95       	asr	r29
    3758:	c7 95       	ror	r28
    375a:	d5 95       	asr	r29
    375c:	c7 95       	ror	r28
		if( bank != enc_cur_bank ) {
    375e:	80 91 99 01 	lds	r24, 0x0199	; 0x800199 <enc_cur_bank>
    3762:	c8 17       	cp	r28, r24
    3764:	61 f0       	breq	.+24     	; 0x377e <enc_write_reg+0x4e>
			// need to switch bank first
			enc_clrbits_reg( ENC_REG_ECON1, 0x03 << ENC_BIT_BSEL0 );
    3766:	63 e0       	ldi	r22, 0x03	; 3
    3768:	8f e1       	ldi	r24, 0x1F	; 31
    376a:	0e 94 47 1b 	call	0x368e	; 0x368e <enc_clrbits_reg>
			if( bank ) {
    376e:	cc 23       	and	r28, r28
    3770:	21 f0       	breq	.+8      	; 0x377a <enc_write_reg+0x4a>
				enc_setbits_reg( ENC_REG_ECON1, bank << ENC_BIT_BSEL0 );
    3772:	6c 2f       	mov	r22, r28
    3774:	8f e1       	ldi	r24, 0x1F	; 31
    3776:	0e 94 52 1b 	call	0x36a4	; 0x36a4 <enc_setbits_reg>
			}
			enc_cur_bank = bank;
    377a:	c0 93 99 01 	sts	0x0199, r28	; 0x800199 <enc_cur_bank>
		}
	}

	enc_select();
    377e:	c3 98       	cbi	0x18, 3	; 24
	spi_put( ENC_SPI_OP_WCR | addr );
    3780:	10 64       	ori	r17, 0x40	; 64
}

static inline void spi_put( unsigned char value )
{
	//ENC_DEBUG("spi_put(%2x)\n", (unsigned) value );
	SPDR = value;
    3782:	1f b9       	out	0x0f, r17	; 15
	while( !(SPSR & (1<<SPIF)) ) ;
    3784:	77 9b       	sbis	0x0e, 7	; 14
    3786:	fe cf       	rjmp	.-4      	; 0x3784 <enc_write_reg+0x54>
}

static inline void spi_put( unsigned char value )
{
	//ENC_DEBUG("spi_put(%2x)\n", (unsigned) value );
	SPDR = value;
    3788:	0f b9       	out	0x0f, r16	; 15
	while( !(SPSR & (1<<SPIF)) ) ;
    378a:	77 9b       	sbis	0x0e, 7	; 14
    378c:	fe cf       	rjmp	.-4      	; 0x378a <enc_write_reg+0x5a>
	}

	enc_select();
	spi_put( ENC_SPI_OP_WCR | addr );
	spi_put( value );
	enc_deselect();
    378e:	c3 9a       	sbi	0x18, 3	; 24
}
    3790:	df 91       	pop	r29
    3792:	cf 91       	pop	r28
    3794:	1f 91       	pop	r17
    3796:	0f 91       	pop	r16
    3798:	ff 90       	pop	r15
    379a:	08 95       	ret

0000379c <enc_write_phyreg>:
	return value;
}
#endif

static void enc_write_phyreg( unsigned char phyreg, unsigned int value )
{
    379c:	cf 93       	push	r28
    379e:	df 93       	push	r29
    37a0:	d6 2f       	mov	r29, r22
    37a2:	c7 2f       	mov	r28, r23
	enc_write_reg( ENC_REG_MIREGADR, phyreg );
    37a4:	68 2f       	mov	r22, r24
    37a6:	84 ed       	ldi	r24, 0xD4	; 212
    37a8:	0e 94 98 1b 	call	0x3730	; 0x3730 <enc_write_reg>
	enc_write_reg( ENC_REG_MIWRL, LO8(value) );
    37ac:	6d 2f       	mov	r22, r29
    37ae:	86 ed       	ldi	r24, 0xD6	; 214
    37b0:	0e 94 98 1b 	call	0x3730	; 0x3730 <enc_write_reg>
	enc_write_reg( ENC_REG_MIWRH, HI8(value) );
    37b4:	6c 2f       	mov	r22, r28
    37b6:	87 ed       	ldi	r24, 0xD7	; 215
    37b8:	0e 94 98 1b 	call	0x3730	; 0x3730 <enc_write_reg>
	usdelay(10);
    37bc:	8a e0       	ldi	r24, 0x0A	; 10
    37be:	90 e0       	ldi	r25, 0x00	; 0
    37c0:	0e 94 3f 1b 	call	0x367e	; 0x367e <usdelay>
	while( enc_read_reg( ENC_REG_MISTAT ) & (1<<ENC_BIT_BUSY) ) ;
    37c4:	8a ee       	ldi	r24, 0xEA	; 234
    37c6:	0e 94 5d 1b 	call	0x36ba	; 0x36ba <enc_read_reg>
    37ca:	80 fd       	sbrc	r24, 0
    37cc:	fb cf       	rjmp	.-10     	; 0x37c4 <enc_write_phyreg+0x28>
}
    37ce:	df 91       	pop	r29
    37d0:	cf 91       	pop	r28
    37d2:	08 95       	ret

000037d4 <enc_read_buf>:

static void enc_read_buf( unsigned char *buf, unsigned int len )
{
    37d4:	fc 01       	movw	r30, r24
	enc_select();
    37d6:	c3 98       	cbi	0x18, 3	; 24
}

static inline void spi_put( unsigned char value )
{
	//ENC_DEBUG("spi_put(%2x)\n", (unsigned) value );
	SPDR = value;
    37d8:	8a e3       	ldi	r24, 0x3A	; 58
    37da:	8f b9       	out	0x0f, r24	; 15
	while( !(SPSR & (1<<SPIF)) ) ;
    37dc:	77 9b       	sbis	0x0e, 7	; 14
    37de:	fe cf       	rjmp	.-4      	; 0x37dc <enc_read_buf+0x8>

static void enc_read_buf( unsigned char *buf, unsigned int len )
{
	enc_select();
	spi_put( ENC_SPI_OP_RBM );
	for(; len > 0; len--, buf++ ) {
    37e0:	61 15       	cp	r22, r1
    37e2:	71 05       	cpc	r23, r1
    37e4:	51 f0       	breq	.+20     	; 0x37fa <enc_read_buf+0x26>
    37e6:	6e 0f       	add	r22, r30
    37e8:	7f 1f       	adc	r23, r31
}

static inline void spi_put( unsigned char value )
{
	//ENC_DEBUG("spi_put(%2x)\n", (unsigned) value );
	SPDR = value;
    37ea:	1f b8       	out	0x0f, r1	; 15
	while( !(SPSR & (1<<SPIF)) ) ;
    37ec:	77 9b       	sbis	0x0e, 7	; 14
    37ee:	fe cf       	rjmp	.-4      	; 0x37ec <enc_read_buf+0x18>
}

static inline unsigned char spi_get(void)
{
	unsigned char value = SPDR;
    37f0:	8f b1       	in	r24, 0x0f	; 15
{
	enc_select();
	spi_put( ENC_SPI_OP_RBM );
	for(; len > 0; len--, buf++ ) {
		spi_put( 0x00 );
		*buf = spi_get();
    37f2:	81 93       	st	Z+, r24

static void enc_read_buf( unsigned char *buf, unsigned int len )
{
	enc_select();
	spi_put( ENC_SPI_OP_RBM );
	for(; len > 0; len--, buf++ ) {
    37f4:	e6 17       	cp	r30, r22
    37f6:	f7 07       	cpc	r31, r23
    37f8:	c1 f7       	brne	.-16     	; 0x37ea <enc_read_buf+0x16>
		spi_put( 0x00 );
		*buf = spi_get();
	}
	enc_deselect();
    37fa:	c3 9a       	sbi	0x18, 3	; 24
    37fc:	08 95       	ret

000037fe <enc_write_buf>:
}

static void enc_write_buf( unsigned char *buf, unsigned int len )
{
	enc_select();
    37fe:	c3 98       	cbi	0x18, 3	; 24
}

static inline void spi_put( unsigned char value )
{
	//ENC_DEBUG("spi_put(%2x)\n", (unsigned) value );
	SPDR = value;
    3800:	2a e7       	ldi	r18, 0x7A	; 122
    3802:	2f b9       	out	0x0f, r18	; 15
	while( !(SPSR & (1<<SPIF)) ) ;
    3804:	77 9b       	sbis	0x0e, 7	; 14
    3806:	fe cf       	rjmp	.-4      	; 0x3804 <enc_write_buf+0x6>

static void enc_write_buf( unsigned char *buf, unsigned int len )
{
	enc_select();
	spi_put( ENC_SPI_OP_WBM );
	for(; len > 0; len--, buf++ ) {
    3808:	61 15       	cp	r22, r1
    380a:	71 05       	cpc	r23, r1
    380c:	51 f0       	breq	.+20     	; 0x3822 <enc_write_buf+0x24>
    380e:	fc 01       	movw	r30, r24
    3810:	68 0f       	add	r22, r24
    3812:	79 1f       	adc	r23, r25
		spi_put( *buf );
    3814:	91 91       	ld	r25, Z+
}

static inline void spi_put( unsigned char value )
{
	//ENC_DEBUG("spi_put(%2x)\n", (unsigned) value );
	SPDR = value;
    3816:	9f b9       	out	0x0f, r25	; 15
	while( !(SPSR & (1<<SPIF)) ) ;
    3818:	77 9b       	sbis	0x0e, 7	; 14
    381a:	fe cf       	rjmp	.-4      	; 0x3818 <enc_write_buf+0x1a>

static void enc_write_buf( unsigned char *buf, unsigned int len )
{
	enc_select();
	spi_put( ENC_SPI_OP_WBM );
	for(; len > 0; len--, buf++ ) {
    381c:	6e 17       	cp	r22, r30
    381e:	7f 07       	cpc	r23, r31
    3820:	c9 f7       	brne	.-14     	; 0x3814 <enc_write_buf+0x16>
		spi_put( *buf );
	}
	enc_deselect();
    3822:	c3 9a       	sbi	0x18, 3	; 24
    3824:	08 95       	ret

00003826 <enc_send_packet>:
}

//-----------------------------------------------------------------------------

void enc_send_packet( unsigned int len, unsigned char *buf )
{
    3826:	cf 92       	push	r12
    3828:	df 92       	push	r13
    382a:	ef 92       	push	r14
    382c:	ff 92       	push	r15
    382e:	0f 93       	push	r16
    3830:	1f 93       	push	r17
    3832:	cf 93       	push	r28
    3834:	df 93       	push	r29
    3836:	1f 92       	push	r1
    3838:	cd b7       	in	r28, 0x3d	; 61
    383a:	de b7       	in	r29, 0x3e	; 62
    383c:	7c 01       	movw	r14, r24
    383e:	6b 01       	movw	r12, r22
	unsigned char ctrl = 0;
    3840:	19 82       	std	Y+1, r1	; 0x01
    3842:	04 e6       	ldi	r16, 0x64	; 100
    3844:	10 e0       	ldi	r17, 0x00	; 0

	ENC_DEBUG("enc_send: %i bytes\n", len);

	// wait up to 100 ms for the previos tx to finish
	while( ms-- ) {
		if( !(enc_read_reg( ENC_REG_ECON1 ) & (1<<ENC_BIT_TXRTS)) ) break;
    3846:	8f e1       	ldi	r24, 0x1F	; 31
    3848:	0e 94 5d 1b 	call	0x36ba	; 0x36ba <enc_read_reg>
    384c:	83 ff       	sbrs	r24, 3
    384e:	07 c0       	rjmp	.+14     	; 0x385e <enc_send_packet+0x38>
		usdelay( 1000 );
    3850:	88 ee       	ldi	r24, 0xE8	; 232
    3852:	93 e0       	ldi	r25, 0x03	; 3
    3854:	0e 94 3f 1b 	call	0x367e	; 0x367e <usdelay>
    3858:	01 50       	subi	r16, 0x01	; 1
    385a:	11 09       	sbc	r17, r1
	unsigned int ms = 100;

	ENC_DEBUG("enc_send: %i bytes\n", len);

	// wait up to 100 ms for the previos tx to finish
	while( ms-- ) {
    385c:	a1 f7       	brne	.-24     	; 0x3846 <enc_send_packet+0x20>
		usdelay( 1000 );
	}

	#ifdef FULL_DUPLEX
	// reset tx logic if TXRTS bit is still on
	if( enc_read_reg( ENC_REG_ECON1 ) & (1<<ENC_BIT_TXRTS) ) {
    385e:	8f e1       	ldi	r24, 0x1F	; 31
    3860:	0e 94 5d 1b 	call	0x36ba	; 0x36ba <enc_read_reg>
    3864:	83 ff       	sbrs	r24, 3
    3866:	08 c0       	rjmp	.+16     	; 0x3878 <enc_send_packet+0x52>
	#else
	// errata #12: reset tx logic
	if( 1 ) {
	#endif
		ENC_DEBUG("enc_send: reset tx logic\n");
		enc_setbits_reg( ENC_REG_ECON1, (1<<ENC_BIT_TXRST) );
    3868:	60 e8       	ldi	r22, 0x80	; 128
    386a:	8f e1       	ldi	r24, 0x1F	; 31
    386c:	0e 94 52 1b 	call	0x36a4	; 0x36a4 <enc_setbits_reg>
		enc_clrbits_reg( ENC_REG_ECON1, (1<<ENC_BIT_TXRST) );
    3870:	60 e8       	ldi	r22, 0x80	; 128
    3872:	8f e1       	ldi	r24, 0x1F	; 31
    3874:	0e 94 47 1b 	call	0x368e	; 0x368e <enc_clrbits_reg>
	}

	// setup write pointer
	enc_write_reg( ENC_REG_EWRPTL, LO8(ENC_TX_BUFFER_START) );
    3878:	60 e0       	ldi	r22, 0x00	; 0
    387a:	82 e0       	ldi	r24, 0x02	; 2
    387c:	0e 94 98 1b 	call	0x3730	; 0x3730 <enc_write_reg>
	enc_write_reg( ENC_REG_EWRPTH, HI8(ENC_TX_BUFFER_START) );
    3880:	6a e1       	ldi	r22, 0x1A	; 26
    3882:	83 e0       	ldi	r24, 0x03	; 3
    3884:	0e 94 98 1b 	call	0x3730	; 0x3730 <enc_write_reg>

	// end pointer (points to last byte) to start + len
	enc_write_reg( ENC_REG_ETXNDL, LO8(ENC_TX_BUFFER_START+len) );
    3888:	6e 2d       	mov	r22, r14
    388a:	86 e0       	ldi	r24, 0x06	; 6
    388c:	0e 94 98 1b 	call	0x3730	; 0x3730 <enc_write_reg>
	enc_write_reg( ENC_REG_ETXNDH, HI8(ENC_TX_BUFFER_START+len) );
    3890:	c7 01       	movw	r24, r14
    3892:	96 5e       	subi	r25, 0xE6	; 230
    3894:	69 2f       	mov	r22, r25
    3896:	87 e0       	ldi	r24, 0x07	; 7
    3898:	0e 94 98 1b 	call	0x3730	; 0x3730 <enc_write_reg>

	// enc requires 1 control byte before the package
	enc_write_buf( &ctrl, 1 );
    389c:	61 e0       	ldi	r22, 0x01	; 1
    389e:	70 e0       	ldi	r23, 0x00	; 0
    38a0:	ce 01       	movw	r24, r28
    38a2:	01 96       	adiw	r24, 0x01	; 1
    38a4:	0e 94 ff 1b 	call	0x37fe	; 0x37fe <enc_write_buf>

	// copy packet to enc buffer
	enc_write_buf( buf, len );
    38a8:	b7 01       	movw	r22, r14
    38aa:	c6 01       	movw	r24, r12
    38ac:	0e 94 ff 1b 	call	0x37fe	; 0x37fe <enc_write_buf>

	// clear TXIF flag
	enc_clrbits_reg( ENC_REG_EIR, (1<<ENC_BIT_TXIF) );
    38b0:	68 e0       	ldi	r22, 0x08	; 8
    38b2:	8c e1       	ldi	r24, 0x1C	; 28
    38b4:	0e 94 47 1b 	call	0x368e	; 0x368e <enc_clrbits_reg>

	// start transmission by setting the TXRTS bit
	enc_setbits_reg( ENC_REG_ECON1, (1<<ENC_BIT_TXRTS) );
    38b8:	68 e0       	ldi	r22, 0x08	; 8
    38ba:	8f e1       	ldi	r24, 0x1F	; 31
    38bc:	0e 94 52 1b 	call	0x36a4	; 0x36a4 <enc_setbits_reg>
}
    38c0:	0f 90       	pop	r0
    38c2:	df 91       	pop	r29
    38c4:	cf 91       	pop	r28
    38c6:	1f 91       	pop	r17
    38c8:	0f 91       	pop	r16
    38ca:	ff 90       	pop	r15
    38cc:	ef 90       	pop	r14
    38ce:	df 90       	pop	r13
    38d0:	cf 90       	pop	r12
    38d2:	08 95       	ret

000038d4 <enc_init>:
#endif

//-----------------------------------------------------------------------------

void enc_init(void)
{
    38d4:	0f 93       	push	r16
    38d6:	1f 93       	push	r17
    38d8:	cf 93       	push	r28
    38da:	df 93       	push	r29
	int i=0;
	unsigned int u;
	unsigned char r, d;

	// config enc chip select as output and deselect enc
	ENC_DDR  |= (1<<ENC_CS);
    38dc:	bb 9a       	sbi	0x17, 3	; 23
	ENC_PORT |= (1<<ENC_CS);
    38de:	c3 9a       	sbi	0x18, 3	; 24
//-----------------------------------------------------------------------------

static inline void spi_init(void)
{
	// configure pins MOSI, SCK as output
	SPI_DDR |= (1<<SPI_MOSI) | (1<<SPI_SCK);
    38e0:	87 b3       	in	r24, 0x17	; 23
    38e2:	80 6a       	ori	r24, 0xA0	; 160
    38e4:	87 bb       	out	0x17, r24	; 23
	// pull SCK high
	SPI_PORT |= (1<<SPI_SCK);
    38e6:	c7 9a       	sbi	0x18, 7	; 24

	// configure pin MISO as input
	SPI_DDR &= ~(1<<SPI_MISO);
    38e8:	be 98       	cbi	0x17, 6	; 23
	SPI_DDR |= (1<<SPI_SS);
    38ea:	bc 9a       	sbi	0x17, 4	; 23

	//SPI: enable, master, positive clock phase, msb first, SPI speed fosc/2
	SPCR = (1<<SPE) | (1<<MSTR);
    38ec:	80 e5       	ldi	r24, 0x50	; 80
    38ee:	8d b9       	out	0x0d, r24	; 13
	SPSR = (1<<SPI2X);
    38f0:	81 e0       	ldi	r24, 0x01	; 1
    38f2:	8e b9       	out	0x0e, r24	; 14

	usdelay(10000);
    38f4:	80 e1       	ldi	r24, 0x10	; 16
    38f6:	97 e2       	ldi	r25, 0x27	; 39
    38f8:	0e 94 3f 1b 	call	0x367e	; 0x367e <usdelay>

//-----------------------------------------------------------------------------

static inline void enc_reset(void)
{
	enc_select();
    38fc:	c3 98       	cbi	0x18, 3	; 24
}

static inline void spi_put( unsigned char value )
{
	//ENC_DEBUG("spi_put(%2x)\n", (unsigned) value );
	SPDR = value;
    38fe:	8f ef       	ldi	r24, 0xFF	; 255
    3900:	8f b9       	out	0x0f, r24	; 15
	while( !(SPSR & (1<<SPIF)) ) ;
    3902:	77 9b       	sbis	0x0e, 7	; 14
    3904:	fe cf       	rjmp	.-4      	; 0x3902 <enc_init+0x2e>

static inline void enc_reset(void)
{
	enc_select();
	spi_put( ENC_SPI_OP_SC );
	enc_deselect();
    3906:	c3 9a       	sbi	0x18, 3	; 24

	// errata #2: wait for at least 300 us
	usdelay( 1000 );
    3908:	88 ee       	ldi	r24, 0xE8	; 232
    390a:	93 e0       	ldi	r25, 0x03	; 3
    390c:	0e 94 3f 1b 	call	0x367e	; 0x367e <usdelay>

	// send a reset command via spi to the enc
	enc_reset();

	// wait for the CLKRDY bit
	while( !(enc_read_reg( ENC_REG_ESTAT ) & (1<<ENC_BIT_CLKRDY)) ) ;
    3910:	8d e1       	ldi	r24, 0x1D	; 29
    3912:	0e 94 5d 1b 	call	0x36ba	; 0x36ba <enc_read_reg>
    3916:	80 ff       	sbrs	r24, 0
    3918:	fb cf       	rjmp	.-10     	; 0x3910 <enc_init+0x3c>

	// get enc revision id
	enc_revid = enc_read_reg( ENC_REG_EREVID );
    391a:	82 e7       	ldi	r24, 0x72	; 114
    391c:	0e 94 5d 1b 	call	0x36ba	; 0x36ba <enc_read_reg>
    3920:	80 93 9a 01 	sts	0x019A, r24	; 0x80019a <enc_revid>
	ENC_DEBUG("enc revid %x\n", (int) enc_revid);

	// setup mymac variable
	mymac[0] = MYMAC1;
    3924:	ea e6       	ldi	r30, 0x6A	; 106
    3926:	f3 e0       	ldi	r31, 0x03	; 3
    3928:	10 82       	st	Z, r1
	mymac[1] = MYMAC2;
    392a:	80 e2       	ldi	r24, 0x20	; 32
    392c:	81 83       	std	Z+1, r24	; 0x01
	mymac[2] = MYMAC3;
    392e:	88 e1       	ldi	r24, 0x18	; 24
    3930:	82 83       	std	Z+2, r24	; 0x02
	mymac[3] = MYMAC4;
    3932:	81 eb       	ldi	r24, 0xB1	; 177
    3934:	83 83       	std	Z+3, r24	; 0x03
	mymac[4] = MYMAC5;
    3936:	85 e1       	ldi	r24, 0x15	; 21
    3938:	84 83       	std	Z+4, r24	; 0x04
	mymac[5] = MYMAC6;
    393a:	8f e6       	ldi	r24, 0x6F	; 111
    393c:	85 83       	std	Z+5, r24	; 0x05

//-----------------------------------------------------------------------------

void enc_init(void)
{
	int i=0;
    393e:	00 e0       	ldi	r16, 0x00	; 0
    3940:	10 e0       	ldi	r17, 0x00	; 0
	mymac[5] = MYMAC6;


		// setup enc registers according to the enc_configdata struct
		while(1) {
			r = pgm_read_byte( &enc_configdata[i++] );
    3942:	f8 01       	movw	r30, r16
    3944:	e9 5e       	subi	r30, 0xE9	; 233
    3946:	f1 4e       	sbci	r31, 0xE1	; 225
    3948:	84 91       	lpm	r24, Z
			d = pgm_read_byte( &enc_configdata[i++] );
    394a:	0e 5f       	subi	r16, 0xFE	; 254
    394c:	1f 4f       	sbci	r17, 0xFF	; 255
    394e:	e8 01       	movw	r28, r16
    3950:	f8 01       	movw	r30, r16
    3952:	ea 5e       	subi	r30, 0xEA	; 234
    3954:	f1 4e       	sbci	r31, 0xE1	; 225
    3956:	64 91       	lpm	r22, Z
			if( r == 0xFF && d == 0xFF ) break;
    3958:	8f 3f       	cpi	r24, 0xFF	; 255
    395a:	11 f4       	brne	.+4      	; 0x3960 <enc_init+0x8c>
    395c:	6f 3f       	cpi	r22, 0xFF	; 255
    395e:	19 f0       	breq	.+6      	; 0x3966 <enc_init+0x92>
			enc_write_reg( r, d );
    3960:	0e 94 98 1b 	call	0x3730	; 0x3730 <enc_write_reg>
		}
    3964:	ee cf       	rjmp	.-36     	; 0x3942 <enc_init+0x6e>
    3966:	c9 5e       	subi	r28, 0xE9	; 233
    3968:	d1 4e       	sbci	r29, 0xE1	; 225
		// now the phy registers
		while(1) {
			r = pgm_read_byte( &enc_configdata[i++] );
    396a:	fe 01       	movw	r30, r28
    396c:	84 91       	lpm	r24, Z
			d = pgm_read_byte( &enc_configdata[i++] );
    396e:	31 96       	adiw	r30, 0x01	; 1
    3970:	64 91       	lpm	r22, Z
			if( r == 0xFF && d == 0xFF ) break;
    3972:	8f 3f       	cpi	r24, 0xFF	; 255
    3974:	11 f4       	brne	.+4      	; 0x397a <enc_init+0xa6>
    3976:	6f 3f       	cpi	r22, 0xFF	; 255
    3978:	59 f0       	breq	.+22     	; 0x3990 <enc_init+0xbc>
			u = (((unsigned int)d) << 8);
    397a:	70 e0       	ldi	r23, 0x00	; 0
    397c:	76 2f       	mov	r23, r22
    397e:	66 27       	eor	r22, r22
			d = pgm_read_byte( &enc_configdata[i++] );
    3980:	fe 01       	movw	r30, r28
    3982:	32 96       	adiw	r30, 0x02	; 2
    3984:	e4 91       	lpm	r30, Z
			u |= d;
			enc_write_phyreg( r, u );
    3986:	6e 2b       	or	r22, r30
    3988:	0e 94 ce 1b 	call	0x379c	; 0x379c <enc_write_phyreg>
    398c:	23 96       	adiw	r28, 0x03	; 3
		}
    398e:	ed cf       	rjmp	.-38     	; 0x396a <enc_init+0x96>

	// setup receive next packet pointer
	enc_next_packet_ptr = ENC_RX_BUFFER_START;
    3990:	10 92 98 01 	sts	0x0198, r1	; 0x800198 <enc_next_packet_ptr+0x1>
    3994:	10 92 97 01 	sts	0x0197, r1	; 0x800197 <enc_next_packet_ptr>

	// configure the enc interrupt sources
	enc_write_reg( ENC_REG_EIE, (1 << ENC_BIT_INTIE)  | (1 << ENC_BIT_PKTIE)
    3998:	60 ec       	ldi	r22, 0xC0	; 192
    399a:	8b e1       	ldi	r24, 0x1B	; 27
    399c:	0e 94 98 1b 	call	0x3730	; 0x3730 <enc_write_reg>
				  | (0 << ENC_BIT_DMAIE)  | (0 << ENC_BIT_LINKIE)
				  | (0 << ENC_BIT_TXIE)   | (0 << ENC_BIT_WOLIE)
				  | (0 << ENC_BIT_TXERIE) | (0 << ENC_BIT_RXERIE));

	// enable receive
	enc_setbits_reg( ENC_REG_ECON1, (1<<ENC_BIT_RXEN) );
    39a0:	64 e0       	ldi	r22, 0x04	; 4
    39a2:	8f e1       	ldi	r24, 0x1F	; 31
    39a4:	0e 94 52 1b 	call	0x36a4	; 0x36a4 <enc_setbits_reg>

	// the enc interrupt on the atmega is still disabled
	// needs to get enabled with ETH_INT_ENABLE;
}
    39a8:	df 91       	pop	r29
    39aa:	cf 91       	pop	r28
    39ac:	1f 91       	pop	r17
    39ae:	0f 91       	pop	r16
    39b0:	08 95       	ret

000039b2 <enc_receive_packet>:
	// start transmission by setting the TXRTS bit
	enc_setbits_reg( ENC_REG_ECON1, (1<<ENC_BIT_TXRTS) );
}

unsigned int enc_receive_packet( unsigned int bufsize, unsigned char *buf )
{
    39b2:	cf 92       	push	r12
    39b4:	df 92       	push	r13
    39b6:	ef 92       	push	r14
    39b8:	ff 92       	push	r15
    39ba:	0f 93       	push	r16
    39bc:	1f 93       	push	r17
    39be:	cf 93       	push	r28
    39c0:	df 93       	push	r29
    39c2:	00 d0       	rcall	.+0      	; 0x39c4 <enc_receive_packet+0x12>
    39c4:	00 d0       	rcall	.+0      	; 0x39c6 <enc_receive_packet+0x14>
    39c6:	00 d0       	rcall	.+0      	; 0x39c8 <enc_receive_packet+0x16>
    39c8:	cd b7       	in	r28, 0x3d	; 61
    39ca:	de b7       	in	r29, 0x3e	; 62
    39cc:	8c 01       	movw	r16, r24
    39ce:	6b 01       	movw	r12, r22
	unsigned char rxheader[6];
	unsigned int len, status;
	unsigned char u;

	// check rx packet counter
	u = enc_read_reg( ENC_REG_EPKTCNT );
    39d0:	89 e3       	ldi	r24, 0x39	; 57
    39d2:	0e 94 5d 1b 	call	0x36ba	; 0x36ba <enc_read_reg>
	ENC_DEBUG("enc_receive: EPKTCNT=%i\n", (int) u);
	if( u == 0 ) {
    39d6:	88 23       	and	r24, r24
    39d8:	09 f4       	brne	.+2      	; 0x39dc <enc_receive_packet+0x2a>
    39da:	6e c0       	rjmp	.+220    	; 0x3ab8 <enc_receive_packet+0x106>
		// packetcounter is 0, there is nothing to receive, go back
		return 0;
	}

	//set read pointer to next packet
	enc_write_reg( ENC_REG_ERDPTL, LO8(enc_next_packet_ptr) );
    39dc:	60 91 97 01 	lds	r22, 0x0197	; 0x800197 <enc_next_packet_ptr>
    39e0:	70 91 98 01 	lds	r23, 0x0198	; 0x800198 <enc_next_packet_ptr+0x1>
    39e4:	80 e0       	ldi	r24, 0x00	; 0
    39e6:	0e 94 98 1b 	call	0x3730	; 0x3730 <enc_write_reg>
	enc_write_reg( ENC_REG_ERDPTH, HI8(enc_next_packet_ptr) );
    39ea:	80 91 97 01 	lds	r24, 0x0197	; 0x800197 <enc_next_packet_ptr>
    39ee:	90 91 98 01 	lds	r25, 0x0198	; 0x800198 <enc_next_packet_ptr+0x1>
    39f2:	69 2f       	mov	r22, r25
    39f4:	81 e0       	ldi	r24, 0x01	; 1
    39f6:	0e 94 98 1b 	call	0x3730	; 0x3730 <enc_write_reg>

	// read enc rx packet header
	enc_read_buf( rxheader, sizeof(rxheader) );
    39fa:	66 e0       	ldi	r22, 0x06	; 6
    39fc:	70 e0       	ldi	r23, 0x00	; 0
    39fe:	ce 01       	movw	r24, r28
    3a00:	01 96       	adiw	r24, 0x01	; 1
    3a02:	0e 94 ea 1b 	call	0x37d4	; 0x37d4 <enc_read_buf>
	enc_next_packet_ptr  =             rxheader[0];
    3a06:	89 81       	ldd	r24, Y+1	; 0x01
    3a08:	90 e0       	ldi	r25, 0x00	; 0
    3a0a:	90 93 98 01 	sts	0x0198, r25	; 0x800198 <enc_next_packet_ptr+0x1>
    3a0e:	80 93 97 01 	sts	0x0197, r24	; 0x800197 <enc_next_packet_ptr>
	enc_next_packet_ptr |= ((unsigned)(rxheader[1])) << 8;
    3a12:	80 91 97 01 	lds	r24, 0x0197	; 0x800197 <enc_next_packet_ptr>
    3a16:	90 91 98 01 	lds	r25, 0x0198	; 0x800198 <enc_next_packet_ptr+0x1>
    3a1a:	2a 81       	ldd	r18, Y+2	; 0x02
    3a1c:	92 2b       	or	r25, r18
    3a1e:	90 93 98 01 	sts	0x0198, r25	; 0x800198 <enc_next_packet_ptr+0x1>
    3a22:	80 93 97 01 	sts	0x0197, r24	; 0x800197 <enc_next_packet_ptr>
	len                  =             rxheader[2];
    3a26:	eb 80       	ldd	r14, Y+3	; 0x03
	len                 |= ((unsigned)(rxheader[3])) << 8;
    3a28:	8c 81       	ldd	r24, Y+4	; 0x04
    3a2a:	f1 2c       	mov	r15, r1
    3a2c:	f8 2a       	or	r15, r24
	status               =             rxheader[4];
    3a2e:	8d 81       	ldd	r24, Y+5	; 0x05
	status              |= ((unsigned)(rxheader[5])) << 8;
    3a30:	2e 81       	ldd	r18, Y+6	; 0x06
    3a32:	90 e0       	ldi	r25, 0x00	; 0
    3a34:	92 2b       	or	r25, r18

	// added by Sjors: reset the ENC when needed
	// If the receive OK bit is not 1 or the zero bit is not zero, or the packet is larger then the buffer, reset the enc chip and SPI
	if ((!(status & (1<<7))) || (status & 0x8000) || (len > bufsize))
    3a36:	87 ff       	sbrs	r24, 7
    3a38:	05 c0       	rjmp	.+10     	; 0x3a44 <enc_receive_packet+0x92>
    3a3a:	99 23       	and	r25, r25
    3a3c:	1c f0       	brlt	.+6      	; 0x3a44 <enc_receive_packet+0x92>
    3a3e:	0e 15       	cp	r16, r14
    3a40:	1f 05       	cpc	r17, r15
    3a42:	10 f4       	brcc	.+4      	; 0x3a48 <enc_receive_packet+0x96>
	{ 
		enc_init();
    3a44:	0e 94 6a 1c 	call	0x38d4	; 0x38d4 <enc_init>
	}
	//ENC_DEBUG("enc_receive: status=%4x\n", (unsigned) status);

	// skip the checksum (4 bytes) at the end of the buffer
	len -= 4;
    3a48:	24 e0       	ldi	r18, 0x04	; 4
    3a4a:	e2 1a       	sub	r14, r18
    3a4c:	f1 08       	sbc	r15, r1
    3a4e:	e0 16       	cp	r14, r16
    3a50:	f1 06       	cpc	r15, r17
    3a52:	08 f4       	brcc	.+2      	; 0x3a56 <enc_receive_packet+0xa4>
    3a54:	87 01       	movw	r16, r14

	// if the application buffer is to small, we just truncate
	if( len > bufsize ) len = bufsize;

	// now read the packet data into buffer
	enc_read_buf( buf, len );
    3a56:	b8 01       	movw	r22, r16
    3a58:	c6 01       	movw	r24, r12
    3a5a:	0e 94 ea 1b 	call	0x37d4	; 0x37d4 <enc_read_buf>

	// adjust the ERXRDPT pointer (= free this packet in rx buffer)
	if(    enc_next_packet_ptr-1 > ENC_RX_BUFFER_END
    3a5e:	80 91 97 01 	lds	r24, 0x0197	; 0x800197 <enc_next_packet_ptr>
    3a62:	90 91 98 01 	lds	r25, 0x0198	; 0x800198 <enc_next_packet_ptr+0x1>
    3a66:	01 97       	sbiw	r24, 0x01	; 1
    3a68:	81 15       	cp	r24, r1
    3a6a:	9a 41       	sbci	r25, 0x1A	; 26
    3a6c:	b0 f4       	brcc	.+44     	; 0x3a9a <enc_receive_packet+0xe8>
	    || enc_next_packet_ptr-1 < ENC_RX_BUFFER_START ) {
    3a6e:	80 91 97 01 	lds	r24, 0x0197	; 0x800197 <enc_next_packet_ptr>
    3a72:	90 91 98 01 	lds	r25, 0x0198	; 0x800198 <enc_next_packet_ptr+0x1>
		enc_write_reg( ENC_REG_ERXRDPTL, LO8(ENC_RX_BUFFER_END) );
		enc_write_reg( ENC_REG_ERXRDPTH, HI8(ENC_RX_BUFFER_END) );
	} else {
		enc_write_reg( ENC_REG_ERXRDPTL, LO8(enc_next_packet_ptr-1) );
    3a76:	60 91 97 01 	lds	r22, 0x0197	; 0x800197 <enc_next_packet_ptr>
    3a7a:	70 91 98 01 	lds	r23, 0x0198	; 0x800198 <enc_next_packet_ptr+0x1>
    3a7e:	61 50       	subi	r22, 0x01	; 1
    3a80:	8c e0       	ldi	r24, 0x0C	; 12
    3a82:	0e 94 98 1b 	call	0x3730	; 0x3730 <enc_write_reg>
		enc_write_reg( ENC_REG_ERXRDPTH, HI8(enc_next_packet_ptr-1) );
    3a86:	80 91 97 01 	lds	r24, 0x0197	; 0x800197 <enc_next_packet_ptr>
    3a8a:	90 91 98 01 	lds	r25, 0x0198	; 0x800198 <enc_next_packet_ptr+0x1>
    3a8e:	01 97       	sbiw	r24, 0x01	; 1
    3a90:	69 2f       	mov	r22, r25
    3a92:	8d e0       	ldi	r24, 0x0D	; 13
    3a94:	0e 94 98 1b 	call	0x3730	; 0x3730 <enc_write_reg>
    3a98:	08 c0       	rjmp	.+16     	; 0x3aaa <enc_receive_packet+0xf8>
	enc_read_buf( buf, len );

	// adjust the ERXRDPT pointer (= free this packet in rx buffer)
	if(    enc_next_packet_ptr-1 > ENC_RX_BUFFER_END
	    || enc_next_packet_ptr-1 < ENC_RX_BUFFER_START ) {
		enc_write_reg( ENC_REG_ERXRDPTL, LO8(ENC_RX_BUFFER_END) );
    3a9a:	6f ef       	ldi	r22, 0xFF	; 255
    3a9c:	8c e0       	ldi	r24, 0x0C	; 12
    3a9e:	0e 94 98 1b 	call	0x3730	; 0x3730 <enc_write_reg>
		enc_write_reg( ENC_REG_ERXRDPTH, HI8(ENC_RX_BUFFER_END) );
    3aa2:	69 e1       	ldi	r22, 0x19	; 25
    3aa4:	8d e0       	ldi	r24, 0x0D	; 13
    3aa6:	0e 94 98 1b 	call	0x3730	; 0x3730 <enc_write_reg>
		enc_write_reg( ENC_REG_ERXRDPTH, HI8(enc_next_packet_ptr-1) );
	}

	// trigger a decrement of the rx packet counter
	// this will clear PKTIF if EPKTCNT reaches 0
	enc_setbits_reg( ENC_REG_ECON2, (1<<ENC_BIT_PKTDEC) );
    3aaa:	60 e4       	ldi	r22, 0x40	; 64
    3aac:	8e e1       	ldi	r24, 0x1E	; 30
    3aae:	0e 94 52 1b 	call	0x36a4	; 0x36a4 <enc_setbits_reg>

	// return number of bytes written to the buffer
	ENC_DEBUG("enc_receive: %i bytes\n", len);
	return len;
    3ab2:	80 2f       	mov	r24, r16
    3ab4:	91 2f       	mov	r25, r17
    3ab6:	02 c0       	rjmp	.+4      	; 0x3abc <enc_receive_packet+0x10a>
	// check rx packet counter
	u = enc_read_reg( ENC_REG_EPKTCNT );
	ENC_DEBUG("enc_receive: EPKTCNT=%i\n", (int) u);
	if( u == 0 ) {
		// packetcounter is 0, there is nothing to receive, go back
		return 0;
    3ab8:	80 e0       	ldi	r24, 0x00	; 0
    3aba:	90 e0       	ldi	r25, 0x00	; 0
	enc_setbits_reg( ENC_REG_ECON2, (1<<ENC_BIT_PKTDEC) );

	// return number of bytes written to the buffer
	ENC_DEBUG("enc_receive: %i bytes\n", len);
	return len;
}
    3abc:	26 96       	adiw	r28, 0x06	; 6
    3abe:	0f b6       	in	r0, 0x3f	; 63
    3ac0:	f8 94       	cli
    3ac2:	de bf       	out	0x3e, r29	; 62
    3ac4:	0f be       	out	0x3f, r0	; 63
    3ac6:	cd bf       	out	0x3d, r28	; 61
    3ac8:	df 91       	pop	r29
    3aca:	cf 91       	pop	r28
    3acc:	1f 91       	pop	r17
    3ace:	0f 91       	pop	r16
    3ad0:	ff 90       	pop	r15
    3ad2:	ef 90       	pop	r14
    3ad4:	df 90       	pop	r13
    3ad6:	cf 90       	pop	r12
    3ad8:	08 95       	ret

00003ada <htons32>:
    udp->udp_Chksum = htons(result16);

    ETH_PACKET_SEND(data_length,eth_buffer); //send...
	eth.no_reset	 = 1;	
    return;
}
    3ada:	cf 92       	push	r12
    3adc:	df 92       	push	r13
    3ade:	ef 92       	push	r14
    3ae0:	ff 92       	push	r15
    3ae2:	0f 93       	push	r16
    3ae4:	1f 93       	push	r17
    3ae6:	c9 2e       	mov	r12, r25
    3ae8:	dd 24       	eor	r13, r13
    3aea:	ee 24       	eor	r14, r14
    3aec:	ff 24       	eor	r15, r15
    3aee:	36 2f       	mov	r19, r22
    3af0:	22 27       	eor	r18, r18
    3af2:	11 27       	eor	r17, r17
    3af4:	00 27       	eor	r16, r16
    3af6:	0c 0d       	add	r16, r12
    3af8:	1d 1d       	adc	r17, r13
    3afa:	2e 1d       	adc	r18, r14
    3afc:	3f 1d       	adc	r19, r15
    3afe:	6b 01       	movw	r12, r22
    3b00:	7c 01       	movw	r14, r24
    3b02:	cc 24       	eor	r12, r12
    3b04:	dd 24       	eor	r13, r13
    3b06:	ff 24       	eor	r15, r15
    3b08:	cd 2c       	mov	r12, r13
    3b0a:	de 2c       	mov	r13, r14
    3b0c:	ef 2c       	mov	r14, r15
    3b0e:	ff 24       	eor	r15, r15
    3b10:	0c 0d       	add	r16, r12
    3b12:	1d 1d       	adc	r17, r13
    3b14:	2e 1d       	adc	r18, r14
    3b16:	3f 1d       	adc	r19, r15
    3b18:	dc 01       	movw	r26, r24
    3b1a:	cb 01       	movw	r24, r22
    3b1c:	88 27       	eor	r24, r24
    3b1e:	aa 27       	eor	r26, r26
    3b20:	bb 27       	eor	r27, r27
    3b22:	ba 2f       	mov	r27, r26
    3b24:	a9 2f       	mov	r26, r25
    3b26:	98 2f       	mov	r25, r24
    3b28:	88 27       	eor	r24, r24
    3b2a:	bc 01       	movw	r22, r24
    3b2c:	cd 01       	movw	r24, r26
    3b2e:	60 0f       	add	r22, r16
    3b30:	71 1f       	adc	r23, r17
    3b32:	82 1f       	adc	r24, r18
    3b34:	93 1f       	adc	r25, r19
    3b36:	1f 91       	pop	r17
    3b38:	0f 91       	pop	r16
    3b3a:	ff 90       	pop	r15
    3b3c:	ef 90       	pop	r14
    3b3e:	df 90       	pop	r13
    3b40:	cf 90       	pop	r12
    3b42:	08 95       	ret

00003b44 <get_eeprom_value>:
    3b44:	8f 92       	push	r8
    3b46:	9f 92       	push	r9
    3b48:	af 92       	push	r10
    3b4a:	bf 92       	push	r11
    3b4c:	cf 92       	push	r12
    3b4e:	df 92       	push	r13
    3b50:	ef 92       	push	r14
    3b52:	ff 92       	push	r15
    3b54:	0f 93       	push	r16
    3b56:	1f 93       	push	r17
    3b58:	cf 93       	push	r28
    3b5a:	df 93       	push	r29
    3b5c:	00 d0       	rcall	.+0      	; 0x3b5e <get_eeprom_value+0x1a>
    3b5e:	00 d0       	rcall	.+0      	; 0x3b60 <get_eeprom_value+0x1c>
    3b60:	cd b7       	in	r28, 0x3d	; 61
    3b62:	de b7       	in	r29, 0x3e	; 62
    3b64:	84 2e       	mov	r8, r20
    3b66:	95 2e       	mov	r9, r21
    3b68:	a6 2e       	mov	r10, r22
    3b6a:	b7 2e       	mov	r11, r23
    3b6c:	9e 01       	movw	r18, r28
    3b6e:	2f 5f       	subi	r18, 0xFF	; 255
    3b70:	3f 4f       	sbci	r19, 0xFF	; 255
    3b72:	6e 01       	movw	r12, r28
    3b74:	45 e0       	ldi	r20, 0x05	; 5
    3b76:	c4 0e       	add	r12, r20
    3b78:	d1 1c       	adc	r13, r1
    3b7a:	89 01       	movw	r16, r18
    3b7c:	7c 01       	movw	r14, r24
    3b7e:	e2 1a       	sub	r14, r18
    3b80:	f3 0a       	sbc	r15, r19
    3b82:	e1 99       	sbic	0x1c, 1	; 28
    3b84:	fe cf       	rjmp	.-4      	; 0x3b82 <get_eeprom_value+0x3e>
    3b86:	c7 01       	movw	r24, r14
    3b88:	80 0f       	add	r24, r16
    3b8a:	91 1f       	adc	r25, r17
    3b8c:	0e 94 22 2f 	call	0x5e44	; 0x5e44 <eeprom_read_byte>
    3b90:	f8 01       	movw	r30, r16
    3b92:	81 93       	st	Z+, r24
    3b94:	8f 01       	movw	r16, r30
    3b96:	ec 15       	cp	r30, r12
    3b98:	fd 05       	cpc	r31, r13
    3b9a:	99 f7       	brne	.-26     	; 0x3b82 <get_eeprom_value+0x3e>
    3b9c:	69 81       	ldd	r22, Y+1	; 0x01
    3b9e:	7a 81       	ldd	r23, Y+2	; 0x02
    3ba0:	8b 81       	ldd	r24, Y+3	; 0x03
    3ba2:	9c 81       	ldd	r25, Y+4	; 0x04
    3ba4:	6f 3f       	cpi	r22, 0xFF	; 255
    3ba6:	ff ef       	ldi	r31, 0xFF	; 255
    3ba8:	7f 07       	cpc	r23, r31
    3baa:	8f 07       	cpc	r24, r31
    3bac:	9f 07       	cpc	r25, r31
    3bae:	21 f4       	brne	.+8      	; 0x3bb8 <get_eeprom_value+0x74>
    3bb0:	68 2d       	mov	r22, r8
    3bb2:	79 2d       	mov	r23, r9
    3bb4:	8a 2d       	mov	r24, r10
    3bb6:	9b 2d       	mov	r25, r11
    3bb8:	0f 90       	pop	r0
    3bba:	0f 90       	pop	r0
    3bbc:	0f 90       	pop	r0
    3bbe:	0f 90       	pop	r0
    3bc0:	df 91       	pop	r29
    3bc2:	cf 91       	pop	r28
    3bc4:	1f 91       	pop	r17
    3bc6:	0f 91       	pop	r16
    3bc8:	ff 90       	pop	r15
    3bca:	ef 90       	pop	r14
    3bcc:	df 90       	pop	r13
    3bce:	cf 90       	pop	r12
    3bd0:	bf 90       	pop	r11
    3bd2:	af 90       	pop	r10
    3bd4:	9f 90       	pop	r9
    3bd6:	8f 90       	pop	r8
    3bd8:	08 95       	ret

00003bda <stack_init>:
    3bda:	0f 93       	push	r16
    3bdc:	1f 93       	push	r17
    3bde:	cf 93       	push	r28
    3be0:	df 93       	push	r29
    3be2:	0e 94 70 2a 	call	0x54e0	; 0x54e0 <timer_init>
    3be6:	40 ec       	ldi	r20, 0xC0	; 192
    3be8:	58 ea       	ldi	r21, 0xA8	; 168
    3bea:	60 e0       	ldi	r22, 0x00	; 0
    3bec:	73 e6       	ldi	r23, 0x63	; 99
    3bee:	8e e1       	ldi	r24, 0x1E	; 30
    3bf0:	90 e0       	ldi	r25, 0x00	; 0
    3bf2:	0e 94 a2 1d 	call	0x3b44	; 0x3b44 <get_eeprom_value>
    3bf6:	cf ec       	ldi	r28, 0xCF	; 207
    3bf8:	d5 e0       	ldi	r29, 0x05	; 5
    3bfa:	68 83       	st	Y, r22
    3bfc:	79 83       	std	Y+1, r23	; 0x01
    3bfe:	8a 83       	std	Y+2, r24	; 0x02
    3c00:	9b 83       	std	Y+3, r25	; 0x03
    3c02:	4f ef       	ldi	r20, 0xFF	; 255
    3c04:	5f ef       	ldi	r21, 0xFF	; 255
    3c06:	6f ef       	ldi	r22, 0xFF	; 255
    3c08:	70 e0       	ldi	r23, 0x00	; 0
    3c0a:	82 e2       	ldi	r24, 0x22	; 34
    3c0c:	90 e0       	ldi	r25, 0x00	; 0
    3c0e:	0e 94 a2 1d 	call	0x3b44	; 0x3b44 <get_eeprom_value>
    3c12:	07 ed       	ldi	r16, 0xD7	; 215
    3c14:	15 e0       	ldi	r17, 0x05	; 5
    3c16:	f8 01       	movw	r30, r16
    3c18:	60 83       	st	Z, r22
    3c1a:	71 83       	std	Z+1, r23	; 0x01
    3c1c:	82 83       	std	Z+2, r24	; 0x02
    3c1e:	93 83       	std	Z+3, r25	; 0x03
    3c20:	40 ec       	ldi	r20, 0xC0	; 192
    3c22:	58 ea       	ldi	r21, 0xA8	; 168
    3c24:	60 e0       	ldi	r22, 0x00	; 0
    3c26:	71 e0       	ldi	r23, 0x01	; 1
    3c28:	86 e2       	ldi	r24, 0x26	; 38
    3c2a:	90 e0       	ldi	r25, 0x00	; 0
    3c2c:	0e 94 a2 1d 	call	0x3b44	; 0x3b44 <get_eeprom_value>
    3c30:	60 93 d3 05 	sts	0x05D3, r22	; 0x8005d3 <router_ip>
    3c34:	70 93 d4 05 	sts	0x05D4, r23	; 0x8005d4 <router_ip+0x1>
    3c38:	80 93 d5 05 	sts	0x05D5, r24	; 0x8005d5 <router_ip+0x2>
    3c3c:	90 93 d6 05 	sts	0x05D6, r25	; 0x8005d6 <router_ip+0x3>
    3c40:	f8 01       	movw	r30, r16
    3c42:	80 81       	ld	r24, Z
    3c44:	91 81       	ldd	r25, Z+1	; 0x01
    3c46:	a2 81       	ldd	r26, Z+2	; 0x02
    3c48:	b3 81       	ldd	r27, Z+3	; 0x03
    3c4a:	48 81       	ld	r20, Y
    3c4c:	59 81       	ldd	r21, Y+1	; 0x01
    3c4e:	6a 81       	ldd	r22, Y+2	; 0x02
    3c50:	7b 81       	ldd	r23, Y+3	; 0x03
    3c52:	48 23       	and	r20, r24
    3c54:	59 23       	and	r21, r25
    3c56:	6a 23       	and	r22, r26
    3c58:	7b 23       	and	r23, r27
    3c5a:	80 95       	com	r24
    3c5c:	90 95       	com	r25
    3c5e:	a0 95       	com	r26
    3c60:	b0 95       	com	r27
    3c62:	84 2b       	or	r24, r20
    3c64:	95 2b       	or	r25, r21
    3c66:	a6 2b       	or	r26, r22
    3c68:	b7 2b       	or	r27, r23
    3c6a:	80 93 db 05 	sts	0x05DB, r24	; 0x8005db <broadcast_ip>
    3c6e:	90 93 dc 05 	sts	0x05DC, r25	; 0x8005dc <broadcast_ip+0x1>
    3c72:	a0 93 dd 05 	sts	0x05DD, r26	; 0x8005dd <broadcast_ip+0x2>
    3c76:	b0 93 de 05 	sts	0x05DE, r27	; 0x8005de <broadcast_ip+0x3>
    3c7a:	ea e6       	ldi	r30, 0x6A	; 106
    3c7c:	f3 e0       	ldi	r31, 0x03	; 3
    3c7e:	10 82       	st	Z, r1
    3c80:	80 e2       	ldi	r24, 0x20	; 32
    3c82:	81 83       	std	Z+1, r24	; 0x01
    3c84:	88 e1       	ldi	r24, 0x18	; 24
    3c86:	82 83       	std	Z+2, r24	; 0x02
    3c88:	81 eb       	ldi	r24, 0xB1	; 177
    3c8a:	83 83       	std	Z+3, r24	; 0x03
    3c8c:	85 e1       	ldi	r24, 0x15	; 21
    3c8e:	84 83       	std	Z+4, r24	; 0x04
    3c90:	8f e6       	ldi	r24, 0x6F	; 111
    3c92:	85 83       	std	Z+5, r24	; 0x05
    3c94:	0e 94 6a 1c 	call	0x38d4	; 0x38d4 <enc_init>
    3c98:	df 91       	pop	r29
    3c9a:	cf 91       	pop	r28
    3c9c:	1f 91       	pop	r17
    3c9e:	0f 91       	pop	r16
    3ca0:	08 95       	ret

00003ca2 <arp_timer_call>:
    3ca2:	80 e0       	ldi	r24, 0x00	; 0
    3ca4:	90 e0       	ldi	r25, 0x00	; 0
    3ca6:	fc 01       	movw	r30, r24
    3ca8:	ee 0f       	add	r30, r30
    3caa:	ff 1f       	adc	r31, r31
    3cac:	e8 0f       	add	r30, r24
    3cae:	f9 1f       	adc	r31, r25
    3cb0:	ee 0f       	add	r30, r30
    3cb2:	ff 1f       	adc	r31, r31
    3cb4:	ee 0f       	add	r30, r30
    3cb6:	ff 1f       	adc	r31, r31
    3cb8:	e4 5d       	subi	r30, 0xD4	; 212
    3cba:	fd 4f       	sbci	r31, 0xFD	; 253
    3cbc:	22 85       	ldd	r18, Z+10	; 0x0a
    3cbe:	33 85       	ldd	r19, Z+11	; 0x0b
    3cc0:	23 2b       	or	r18, r19
    3cc2:	01 f5       	brne	.+64     	; 0x3d04 <arp_timer_call+0x62>
    3cc4:	9c 01       	movw	r18, r24
    3cc6:	22 0f       	add	r18, r18
    3cc8:	33 1f       	adc	r19, r19
    3cca:	f9 01       	movw	r30, r18
    3ccc:	e8 0f       	add	r30, r24
    3cce:	f9 1f       	adc	r31, r25
    3cd0:	ee 0f       	add	r30, r30
    3cd2:	ff 1f       	adc	r31, r31
    3cd4:	ee 0f       	add	r30, r30
    3cd6:	ff 1f       	adc	r31, r31
    3cd8:	e4 5d       	subi	r30, 0xD4	; 212
    3cda:	fd 4f       	sbci	r31, 0xFD	; 253
    3cdc:	10 82       	st	Z, r1
    3cde:	11 82       	std	Z+1, r1	; 0x01
    3ce0:	12 82       	std	Z+2, r1	; 0x02
    3ce2:	13 82       	std	Z+3, r1	; 0x03
    3ce4:	14 82       	std	Z+4, r1	; 0x04
    3ce6:	15 82       	std	Z+5, r1	; 0x05
    3ce8:	f9 01       	movw	r30, r18
    3cea:	e8 0f       	add	r30, r24
    3cec:	f9 1f       	adc	r31, r25
    3cee:	ee 0f       	add	r30, r30
    3cf0:	ff 1f       	adc	r31, r31
    3cf2:	ee 0f       	add	r30, r30
    3cf4:	ff 1f       	adc	r31, r31
    3cf6:	e4 5d       	subi	r30, 0xD4	; 212
    3cf8:	fd 4f       	sbci	r31, 0xFD	; 253
    3cfa:	16 82       	std	Z+6, r1	; 0x06
    3cfc:	17 82       	std	Z+7, r1	; 0x07
    3cfe:	10 86       	std	Z+8, r1	; 0x08
    3d00:	11 86       	std	Z+9, r1	; 0x09
    3d02:	1b c0       	rjmp	.+54     	; 0x3d3a <arp_timer_call+0x98>
    3d04:	9c 01       	movw	r18, r24
    3d06:	22 0f       	add	r18, r18
    3d08:	33 1f       	adc	r19, r19
    3d0a:	f9 01       	movw	r30, r18
    3d0c:	e8 0f       	add	r30, r24
    3d0e:	f9 1f       	adc	r31, r25
    3d10:	ee 0f       	add	r30, r30
    3d12:	ff 1f       	adc	r31, r31
    3d14:	ee 0f       	add	r30, r30
    3d16:	ff 1f       	adc	r31, r31
    3d18:	e4 5d       	subi	r30, 0xD4	; 212
    3d1a:	fd 4f       	sbci	r31, 0xFD	; 253
    3d1c:	42 85       	ldd	r20, Z+10	; 0x0a
    3d1e:	53 85       	ldd	r21, Z+11	; 0x0b
    3d20:	41 50       	subi	r20, 0x01	; 1
    3d22:	51 09       	sbc	r21, r1
    3d24:	f9 01       	movw	r30, r18
    3d26:	e8 0f       	add	r30, r24
    3d28:	f9 1f       	adc	r31, r25
    3d2a:	ee 0f       	add	r30, r30
    3d2c:	ff 1f       	adc	r31, r31
    3d2e:	ee 0f       	add	r30, r30
    3d30:	ff 1f       	adc	r31, r31
    3d32:	e4 5d       	subi	r30, 0xD4	; 212
    3d34:	fd 4f       	sbci	r31, 0xFD	; 253
    3d36:	53 87       	std	Z+11, r21	; 0x0b
    3d38:	42 87       	std	Z+10, r20	; 0x0a
    3d3a:	01 96       	adiw	r24, 0x01	; 1
    3d3c:	85 30       	cpi	r24, 0x05	; 5
    3d3e:	91 05       	cpc	r25, r1
    3d40:	09 f0       	breq	.+2      	; 0x3d44 <arp_timer_call+0xa2>
    3d42:	b1 cf       	rjmp	.-158    	; 0x3ca6 <arp_timer_call+0x4>
    3d44:	08 95       	ret

00003d46 <add_tcp_app>:
    3d46:	dc 01       	movw	r26, r24
    3d48:	20 91 b1 01 	lds	r18, 0x01B1	; 0x8001b1 <TCP_PORT_TABLE>
    3d4c:	30 91 b2 01 	lds	r19, 0x01B2	; 0x8001b2 <TCP_PORT_TABLE+0x1>
    3d50:	23 2b       	or	r18, r19
    3d52:	91 f0       	breq	.+36     	; 0x3d78 <add_tcp_app+0x32>
    3d54:	90 e0       	ldi	r25, 0x00	; 0
    3d56:	9f 5f       	subi	r25, 0xFF	; 255
    3d58:	29 2f       	mov	r18, r25
    3d5a:	30 e0       	ldi	r19, 0x00	; 0
    3d5c:	f9 01       	movw	r30, r18
    3d5e:	ee 0f       	add	r30, r30
    3d60:	ff 1f       	adc	r31, r31
    3d62:	ee 0f       	add	r30, r30
    3d64:	ff 1f       	adc	r31, r31
    3d66:	ef 54       	subi	r30, 0x4F	; 79
    3d68:	fe 4f       	sbci	r31, 0xFE	; 254
    3d6a:	40 81       	ld	r20, Z
    3d6c:	51 81       	ldd	r21, Z+1	; 0x01
    3d6e:	45 2b       	or	r20, r21
    3d70:	91 f7       	brne	.-28     	; 0x3d56 <add_tcp_app+0x10>
    3d72:	95 30       	cpi	r25, 0x05	; 5
    3d74:	18 f0       	brcs	.+6      	; 0x3d7c <add_tcp_app+0x36>
    3d76:	08 95       	ret
    3d78:	20 e0       	ldi	r18, 0x00	; 0
    3d7a:	30 e0       	ldi	r19, 0x00	; 0
    3d7c:	22 0f       	add	r18, r18
    3d7e:	33 1f       	adc	r19, r19
    3d80:	22 0f       	add	r18, r18
    3d82:	33 1f       	adc	r19, r19
    3d84:	f9 01       	movw	r30, r18
    3d86:	ef 54       	subi	r30, 0x4F	; 79
    3d88:	fe 4f       	sbci	r31, 0xFE	; 254
    3d8a:	b1 83       	std	Z+1, r27	; 0x01
    3d8c:	a0 83       	st	Z, r26
    3d8e:	73 83       	std	Z+3, r23	; 0x03
    3d90:	62 83       	std	Z+2, r22	; 0x02
    3d92:	08 95       	ret

00003d94 <__vector_3>:
    3d94:	1f 92       	push	r1
    3d96:	0f 92       	push	r0
    3d98:	0f b6       	in	r0, 0x3f	; 63
    3d9a:	0f 92       	push	r0
    3d9c:	11 24       	eor	r1, r1
    3d9e:	8f 93       	push	r24
    3da0:	80 91 68 02 	lds	r24, 0x0268	; 0x800268 <eth>
    3da4:	81 60       	ori	r24, 0x01	; 1
    3da6:	80 93 68 02 	sts	0x0268, r24	; 0x800268 <eth>
    3daa:	10 92 03 03 	sts	0x0303, r1	; 0x800303 <stack_watchdog+0x1>
    3dae:	10 92 02 03 	sts	0x0302, r1	; 0x800302 <stack_watchdog>
    3db2:	80 91 68 02 	lds	r24, 0x0268	; 0x800268 <eth>
    3db6:	84 60       	ori	r24, 0x04	; 4
    3db8:	80 93 68 02 	sts	0x0268, r24	; 0x800268 <eth>
    3dbc:	8b b7       	in	r24, 0x3b	; 59
    3dbe:	8f 7d       	andi	r24, 0xDF	; 223
    3dc0:	8b bf       	out	0x3b, r24	; 59
    3dc2:	8f 91       	pop	r24
    3dc4:	0f 90       	pop	r0
    3dc6:	0f be       	out	0x3f, r0	; 63
    3dc8:	0f 90       	pop	r0
    3dca:	1f 90       	pop	r1
    3dcc:	18 95       	reti

00003dce <arp_entry_add>:
    3dce:	4f 92       	push	r4
    3dd0:	5f 92       	push	r5
    3dd2:	6f 92       	push	r6
    3dd4:	7f 92       	push	r7
    3dd6:	8f 92       	push	r8
    3dd8:	9f 92       	push	r9
    3dda:	af 92       	push	r10
    3ddc:	bf 92       	push	r11
    3dde:	cf 92       	push	r12
    3de0:	df 92       	push	r13
    3de2:	ef 92       	push	r14
    3de4:	ff 92       	push	r15
    3de6:	e0 e7       	ldi	r30, 0x70	; 112
    3de8:	f3 e0       	ldi	r31, 0x03	; 3
    3dea:	24 85       	ldd	r18, Z+12	; 0x0c
    3dec:	35 85       	ldd	r19, Z+13	; 0x0d
    3dee:	82 8c       	ldd	r8, Z+26	; 0x1a
    3df0:	93 8c       	ldd	r9, Z+27	; 0x1b
    3df2:	a4 8c       	ldd	r10, Z+28	; 0x1c
    3df4:	b5 8c       	ldd	r11, Z+29	; 0x1d
    3df6:	c4 8c       	ldd	r12, Z+28	; 0x1c
    3df8:	d5 8c       	ldd	r13, Z+29	; 0x1d
    3dfa:	e6 8c       	ldd	r14, Z+30	; 0x1e
    3dfc:	f7 8c       	ldd	r15, Z+31	; 0x1f
    3dfe:	80 e0       	ldi	r24, 0x00	; 0
    3e00:	90 e0       	ldi	r25, 0x00	; 0
    3e02:	28 30       	cpi	r18, 0x08	; 8
    3e04:	46 e0       	ldi	r20, 0x06	; 6
    3e06:	34 07       	cpc	r19, r20
    3e08:	09 f0       	breq	.+2      	; 0x3e0c <arp_entry_add+0x3e>
    3e0a:	46 c0       	rjmp	.+140    	; 0x3e98 <arp_entry_add+0xca>
    3e0c:	ac 01       	movw	r20, r24
    3e0e:	fc 01       	movw	r30, r24
    3e10:	ee 0f       	add	r30, r30
    3e12:	ff 1f       	adc	r31, r31
    3e14:	e8 0f       	add	r30, r24
    3e16:	f9 1f       	adc	r31, r25
    3e18:	ee 0f       	add	r30, r30
    3e1a:	ff 1f       	adc	r31, r31
    3e1c:	ee 0f       	add	r30, r30
    3e1e:	ff 1f       	adc	r31, r31
    3e20:	e4 5d       	subi	r30, 0xD4	; 212
    3e22:	fd 4f       	sbci	r31, 0xFD	; 253
    3e24:	46 80       	ldd	r4, Z+6	; 0x06
    3e26:	57 80       	ldd	r5, Z+7	; 0x07
    3e28:	60 84       	ldd	r6, Z+8	; 0x08
    3e2a:	71 84       	ldd	r7, Z+9	; 0x09
    3e2c:	4c 14       	cp	r4, r12
    3e2e:	5d 04       	cpc	r5, r13
    3e30:	6e 04       	cpc	r6, r14
    3e32:	7f 04       	cpc	r7, r15
    3e34:	09 f0       	breq	.+2      	; 0x3e38 <arp_entry_add+0x6a>
    3e36:	79 c0       	rjmp	.+242    	; 0x3f2a <arp_entry_add+0x15c>
    3e38:	e6 e7       	ldi	r30, 0x76	; 118
    3e3a:	f3 e0       	ldi	r31, 0x03	; 3
    3e3c:	80 e0       	ldi	r24, 0x00	; 0
    3e3e:	90 e0       	ldi	r25, 0x00	; 0
    3e40:	9a 01       	movw	r18, r20
    3e42:	22 0f       	add	r18, r18
    3e44:	33 1f       	adc	r19, r19
    3e46:	24 0f       	add	r18, r20
    3e48:	35 1f       	adc	r19, r21
    3e4a:	22 0f       	add	r18, r18
    3e4c:	33 1f       	adc	r19, r19
    3e4e:	22 0f       	add	r18, r18
    3e50:	33 1f       	adc	r19, r19
    3e52:	24 5d       	subi	r18, 0xD4	; 212
    3e54:	3d 4f       	sbci	r19, 0xFD	; 253
    3e56:	61 91       	ld	r22, Z+
    3e58:	d9 01       	movw	r26, r18
    3e5a:	a8 0f       	add	r26, r24
    3e5c:	b9 1f       	adc	r27, r25
    3e5e:	6c 93       	st	X, r22
    3e60:	01 96       	adiw	r24, 0x01	; 1
    3e62:	86 30       	cpi	r24, 0x06	; 6
    3e64:	91 05       	cpc	r25, r1
    3e66:	b9 f7       	brne	.-18     	; 0x3e56 <arp_entry_add+0x88>
    3e68:	fa 01       	movw	r30, r20
    3e6a:	ee 0f       	add	r30, r30
    3e6c:	ff 1f       	adc	r31, r31
    3e6e:	df 01       	movw	r26, r30
    3e70:	a4 0f       	add	r26, r20
    3e72:	b5 1f       	adc	r27, r21
    3e74:	aa 0f       	add	r26, r26
    3e76:	bb 1f       	adc	r27, r27
    3e78:	aa 0f       	add	r26, r26
    3e7a:	bb 1f       	adc	r27, r27
    3e7c:	a4 5d       	subi	r26, 0xD4	; 212
    3e7e:	bd 4f       	sbci	r27, 0xFD	; 253
    3e80:	16 96       	adiw	r26, 0x06	; 6
    3e82:	cd 92       	st	X+, r12
    3e84:	dd 92       	st	X+, r13
    3e86:	ed 92       	st	X+, r14
    3e88:	fc 92       	st	X, r15
    3e8a:	19 97       	sbiw	r26, 0x09	; 9
    3e8c:	fd 01       	movw	r30, r26
    3e8e:	84 e6       	ldi	r24, 0x64	; 100
    3e90:	90 e0       	ldi	r25, 0x00	; 0
    3e92:	93 87       	std	Z+11, r25	; 0x0b
    3e94:	82 87       	std	Z+10, r24	; 0x0a
    3e96:	f7 c0       	rjmp	.+494    	; 0x4086 <arp_entry_add+0x2b8>
    3e98:	28 30       	cpi	r18, 0x08	; 8
    3e9a:	31 05       	cpc	r19, r1
    3e9c:	09 f0       	breq	.+2      	; 0x3ea0 <arp_entry_add+0xd2>
    3e9e:	45 c0       	rjmp	.+138    	; 0x3f2a <arp_entry_add+0x15c>
    3ea0:	ac 01       	movw	r20, r24
    3ea2:	fc 01       	movw	r30, r24
    3ea4:	ee 0f       	add	r30, r30
    3ea6:	ff 1f       	adc	r31, r31
    3ea8:	e8 0f       	add	r30, r24
    3eaa:	f9 1f       	adc	r31, r25
    3eac:	ee 0f       	add	r30, r30
    3eae:	ff 1f       	adc	r31, r31
    3eb0:	ee 0f       	add	r30, r30
    3eb2:	ff 1f       	adc	r31, r31
    3eb4:	e4 5d       	subi	r30, 0xD4	; 212
    3eb6:	fd 4f       	sbci	r31, 0xFD	; 253
    3eb8:	46 80       	ldd	r4, Z+6	; 0x06
    3eba:	57 80       	ldd	r5, Z+7	; 0x07
    3ebc:	60 84       	ldd	r6, Z+8	; 0x08
    3ebe:	71 84       	ldd	r7, Z+9	; 0x09
    3ec0:	48 14       	cp	r4, r8
    3ec2:	59 04       	cpc	r5, r9
    3ec4:	6a 04       	cpc	r6, r10
    3ec6:	7b 04       	cpc	r7, r11
    3ec8:	81 f5       	brne	.+96     	; 0x3f2a <arp_entry_add+0x15c>
    3eca:	e6 e7       	ldi	r30, 0x76	; 118
    3ecc:	f3 e0       	ldi	r31, 0x03	; 3
    3ece:	80 e0       	ldi	r24, 0x00	; 0
    3ed0:	90 e0       	ldi	r25, 0x00	; 0
    3ed2:	9a 01       	movw	r18, r20
    3ed4:	22 0f       	add	r18, r18
    3ed6:	33 1f       	adc	r19, r19
    3ed8:	24 0f       	add	r18, r20
    3eda:	35 1f       	adc	r19, r21
    3edc:	22 0f       	add	r18, r18
    3ede:	33 1f       	adc	r19, r19
    3ee0:	22 0f       	add	r18, r18
    3ee2:	33 1f       	adc	r19, r19
    3ee4:	24 5d       	subi	r18, 0xD4	; 212
    3ee6:	3d 4f       	sbci	r19, 0xFD	; 253
    3ee8:	61 91       	ld	r22, Z+
    3eea:	d9 01       	movw	r26, r18
    3eec:	a8 0f       	add	r26, r24
    3eee:	b9 1f       	adc	r27, r25
    3ef0:	6c 93       	st	X, r22
    3ef2:	01 96       	adiw	r24, 0x01	; 1
    3ef4:	86 30       	cpi	r24, 0x06	; 6
    3ef6:	91 05       	cpc	r25, r1
    3ef8:	b9 f7       	brne	.-18     	; 0x3ee8 <arp_entry_add+0x11a>
    3efa:	fa 01       	movw	r30, r20
    3efc:	ee 0f       	add	r30, r30
    3efe:	ff 1f       	adc	r31, r31
    3f00:	df 01       	movw	r26, r30
    3f02:	a4 0f       	add	r26, r20
    3f04:	b5 1f       	adc	r27, r21
    3f06:	aa 0f       	add	r26, r26
    3f08:	bb 1f       	adc	r27, r27
    3f0a:	aa 0f       	add	r26, r26
    3f0c:	bb 1f       	adc	r27, r27
    3f0e:	a4 5d       	subi	r26, 0xD4	; 212
    3f10:	bd 4f       	sbci	r27, 0xFD	; 253
    3f12:	16 96       	adiw	r26, 0x06	; 6
    3f14:	8d 92       	st	X+, r8
    3f16:	9d 92       	st	X+, r9
    3f18:	ad 92       	st	X+, r10
    3f1a:	bc 92       	st	X, r11
    3f1c:	19 97       	sbiw	r26, 0x09	; 9
    3f1e:	fd 01       	movw	r30, r26
    3f20:	84 e6       	ldi	r24, 0x64	; 100
    3f22:	90 e0       	ldi	r25, 0x00	; 0
    3f24:	93 87       	std	Z+11, r25	; 0x0b
    3f26:	82 87       	std	Z+10, r24	; 0x0a
    3f28:	ae c0       	rjmp	.+348    	; 0x4086 <arp_entry_add+0x2b8>
    3f2a:	01 96       	adiw	r24, 0x01	; 1
    3f2c:	85 30       	cpi	r24, 0x05	; 5
    3f2e:	91 05       	cpc	r25, r1
    3f30:	09 f0       	breq	.+2      	; 0x3f34 <arp_entry_add+0x166>
    3f32:	67 cf       	rjmp	.-306    	; 0x3e02 <arp_entry_add+0x34>
    3f34:	80 91 32 02 	lds	r24, 0x0232	; 0x800232 <arp_entry+0x6>
    3f38:	90 91 33 02 	lds	r25, 0x0233	; 0x800233 <arp_entry+0x7>
    3f3c:	a0 91 34 02 	lds	r26, 0x0234	; 0x800234 <arp_entry+0x8>
    3f40:	b0 91 35 02 	lds	r27, 0x0235	; 0x800235 <arp_entry+0x9>
    3f44:	89 2b       	or	r24, r25
    3f46:	8a 2b       	or	r24, r26
    3f48:	8b 2b       	or	r24, r27
    3f4a:	09 f4       	brne	.+2      	; 0x3f4e <arp_entry_add+0x180>
    3f4c:	94 c0       	rjmp	.+296    	; 0x4076 <arp_entry_add+0x2a8>
    3f4e:	81 e0       	ldi	r24, 0x01	; 1
    3f50:	90 e0       	ldi	r25, 0x00	; 0
    3f52:	ac 01       	movw	r20, r24
    3f54:	fc 01       	movw	r30, r24
    3f56:	ee 0f       	add	r30, r30
    3f58:	ff 1f       	adc	r31, r31
    3f5a:	e8 0f       	add	r30, r24
    3f5c:	f9 1f       	adc	r31, r25
    3f5e:	ee 0f       	add	r30, r30
    3f60:	ff 1f       	adc	r31, r31
    3f62:	ee 0f       	add	r30, r30
    3f64:	ff 1f       	adc	r31, r31
    3f66:	e4 5d       	subi	r30, 0xD4	; 212
    3f68:	fd 4f       	sbci	r31, 0xFD	; 253
    3f6a:	46 80       	ldd	r4, Z+6	; 0x06
    3f6c:	57 80       	ldd	r5, Z+7	; 0x07
    3f6e:	60 84       	ldd	r6, Z+8	; 0x08
    3f70:	71 84       	ldd	r7, Z+9	; 0x09
    3f72:	45 28       	or	r4, r5
    3f74:	46 28       	or	r4, r6
    3f76:	47 28       	or	r4, r7
    3f78:	09 f0       	breq	.+2      	; 0x3f7c <arp_entry_add+0x1ae>
    3f7a:	77 c0       	rjmp	.+238    	; 0x406a <arp_entry_add+0x29c>
    3f7c:	28 30       	cpi	r18, 0x08	; 8
    3f7e:	86 e0       	ldi	r24, 0x06	; 6
    3f80:	38 07       	cpc	r19, r24
    3f82:	c9 f5       	brne	.+114    	; 0x3ff6 <arp_entry_add+0x228>
    3f84:	02 c0       	rjmp	.+4      	; 0x3f8a <arp_entry_add+0x1bc>
    3f86:	40 e0       	ldi	r20, 0x00	; 0
    3f88:	50 e0       	ldi	r21, 0x00	; 0
    3f8a:	e6 e7       	ldi	r30, 0x76	; 118
    3f8c:	f3 e0       	ldi	r31, 0x03	; 3
    3f8e:	80 e0       	ldi	r24, 0x00	; 0
    3f90:	90 e0       	ldi	r25, 0x00	; 0
    3f92:	ba 01       	movw	r22, r20
    3f94:	66 0f       	add	r22, r22
    3f96:	77 1f       	adc	r23, r23
    3f98:	64 0f       	add	r22, r20
    3f9a:	75 1f       	adc	r23, r21
    3f9c:	66 0f       	add	r22, r22
    3f9e:	77 1f       	adc	r23, r23
    3fa0:	66 0f       	add	r22, r22
    3fa2:	77 1f       	adc	r23, r23
    3fa4:	64 5d       	subi	r22, 0xD4	; 212
    3fa6:	7d 4f       	sbci	r23, 0xFD	; 253
    3fa8:	21 91       	ld	r18, Z+
    3faa:	db 01       	movw	r26, r22
    3fac:	a8 0f       	add	r26, r24
    3fae:	b9 1f       	adc	r27, r25
    3fb0:	2c 93       	st	X, r18
    3fb2:	01 96       	adiw	r24, 0x01	; 1
    3fb4:	86 30       	cpi	r24, 0x06	; 6
    3fb6:	91 05       	cpc	r25, r1
    3fb8:	b9 f7       	brne	.-18     	; 0x3fa8 <arp_entry_add+0x1da>
    3fba:	ca 01       	movw	r24, r20
    3fbc:	88 0f       	add	r24, r24
    3fbe:	99 1f       	adc	r25, r25
    3fc0:	fc 01       	movw	r30, r24
    3fc2:	e4 0f       	add	r30, r20
    3fc4:	f5 1f       	adc	r31, r21
    3fc6:	ee 0f       	add	r30, r30
    3fc8:	ff 1f       	adc	r31, r31
    3fca:	ee 0f       	add	r30, r30
    3fcc:	ff 1f       	adc	r31, r31
    3fce:	e4 5d       	subi	r30, 0xD4	; 212
    3fd0:	fd 4f       	sbci	r31, 0xFD	; 253
    3fd2:	c6 82       	std	Z+6, r12	; 0x06
    3fd4:	d7 82       	std	Z+7, r13	; 0x07
    3fd6:	e0 86       	std	Z+8, r14	; 0x08
    3fd8:	f1 86       	std	Z+9, r15	; 0x09
    3fda:	fc 01       	movw	r30, r24
    3fdc:	e4 0f       	add	r30, r20
    3fde:	f5 1f       	adc	r31, r21
    3fe0:	ee 0f       	add	r30, r30
    3fe2:	ff 1f       	adc	r31, r31
    3fe4:	ee 0f       	add	r30, r30
    3fe6:	ff 1f       	adc	r31, r31
    3fe8:	e4 5d       	subi	r30, 0xD4	; 212
    3fea:	fd 4f       	sbci	r31, 0xFD	; 253
    3fec:	84 e6       	ldi	r24, 0x64	; 100
    3fee:	90 e0       	ldi	r25, 0x00	; 0
    3ff0:	93 87       	std	Z+11, r25	; 0x0b
    3ff2:	82 87       	std	Z+10, r24	; 0x0a
    3ff4:	48 c0       	rjmp	.+144    	; 0x4086 <arp_entry_add+0x2b8>
    3ff6:	28 30       	cpi	r18, 0x08	; 8
    3ff8:	31 05       	cpc	r19, r1
    3ffa:	09 f0       	breq	.+2      	; 0x3ffe <arp_entry_add+0x230>
    3ffc:	44 c0       	rjmp	.+136    	; 0x4086 <arp_entry_add+0x2b8>
    3ffe:	e6 e7       	ldi	r30, 0x76	; 118
    4000:	f3 e0       	ldi	r31, 0x03	; 3
    4002:	80 e0       	ldi	r24, 0x00	; 0
    4004:	90 e0       	ldi	r25, 0x00	; 0
    4006:	9a 01       	movw	r18, r20
    4008:	22 0f       	add	r18, r18
    400a:	33 1f       	adc	r19, r19
    400c:	24 0f       	add	r18, r20
    400e:	35 1f       	adc	r19, r21
    4010:	22 0f       	add	r18, r18
    4012:	33 1f       	adc	r19, r19
    4014:	22 0f       	add	r18, r18
    4016:	33 1f       	adc	r19, r19
    4018:	24 5d       	subi	r18, 0xD4	; 212
    401a:	3d 4f       	sbci	r19, 0xFD	; 253
    401c:	61 91       	ld	r22, Z+
    401e:	d9 01       	movw	r26, r18
    4020:	a8 0f       	add	r26, r24
    4022:	b9 1f       	adc	r27, r25
    4024:	6c 93       	st	X, r22
    4026:	01 96       	adiw	r24, 0x01	; 1
    4028:	86 30       	cpi	r24, 0x06	; 6
    402a:	91 05       	cpc	r25, r1
    402c:	b9 f7       	brne	.-18     	; 0x401c <arp_entry_add+0x24e>
    402e:	ca 01       	movw	r24, r20
    4030:	88 0f       	add	r24, r24
    4032:	99 1f       	adc	r25, r25
    4034:	fc 01       	movw	r30, r24
    4036:	e4 0f       	add	r30, r20
    4038:	f5 1f       	adc	r31, r21
    403a:	ee 0f       	add	r30, r30
    403c:	ff 1f       	adc	r31, r31
    403e:	ee 0f       	add	r30, r30
    4040:	ff 1f       	adc	r31, r31
    4042:	e4 5d       	subi	r30, 0xD4	; 212
    4044:	fd 4f       	sbci	r31, 0xFD	; 253
    4046:	86 82       	std	Z+6, r8	; 0x06
    4048:	97 82       	std	Z+7, r9	; 0x07
    404a:	a0 86       	std	Z+8, r10	; 0x08
    404c:	b1 86       	std	Z+9, r11	; 0x09
    404e:	fc 01       	movw	r30, r24
    4050:	e4 0f       	add	r30, r20
    4052:	f5 1f       	adc	r31, r21
    4054:	ee 0f       	add	r30, r30
    4056:	ff 1f       	adc	r31, r31
    4058:	ee 0f       	add	r30, r30
    405a:	ff 1f       	adc	r31, r31
    405c:	e4 5d       	subi	r30, 0xD4	; 212
    405e:	fd 4f       	sbci	r31, 0xFD	; 253
    4060:	84 e6       	ldi	r24, 0x64	; 100
    4062:	90 e0       	ldi	r25, 0x00	; 0
    4064:	93 87       	std	Z+11, r25	; 0x0b
    4066:	82 87       	std	Z+10, r24	; 0x0a
    4068:	0e c0       	rjmp	.+28     	; 0x4086 <arp_entry_add+0x2b8>
    406a:	01 96       	adiw	r24, 0x01	; 1
    406c:	85 30       	cpi	r24, 0x05	; 5
    406e:	91 05       	cpc	r25, r1
    4070:	09 f0       	breq	.+2      	; 0x4074 <arp_entry_add+0x2a6>
    4072:	6f cf       	rjmp	.-290    	; 0x3f52 <arp_entry_add+0x184>
    4074:	08 c0       	rjmp	.+16     	; 0x4086 <arp_entry_add+0x2b8>
    4076:	28 30       	cpi	r18, 0x08	; 8
    4078:	46 e0       	ldi	r20, 0x06	; 6
    407a:	34 07       	cpc	r19, r20
    407c:	09 f4       	brne	.+2      	; 0x4080 <arp_entry_add+0x2b2>
    407e:	83 cf       	rjmp	.-250    	; 0x3f86 <arp_entry_add+0x1b8>
    4080:	40 e0       	ldi	r20, 0x00	; 0
    4082:	50 e0       	ldi	r21, 0x00	; 0
    4084:	b8 cf       	rjmp	.-144    	; 0x3ff6 <arp_entry_add+0x228>
    4086:	ff 90       	pop	r15
    4088:	ef 90       	pop	r14
    408a:	df 90       	pop	r13
    408c:	cf 90       	pop	r12
    408e:	bf 90       	pop	r11
    4090:	af 90       	pop	r10
    4092:	9f 90       	pop	r9
    4094:	8f 90       	pop	r8
    4096:	7f 90       	pop	r7
    4098:	6f 90       	pop	r6
    409a:	5f 90       	pop	r5
    409c:	4f 90       	pop	r4
    409e:	08 95       	ret

000040a0 <arp_entry_search>:
    40a0:	cf 92       	push	r12
    40a2:	df 92       	push	r13
    40a4:	ef 92       	push	r14
    40a6:	ff 92       	push	r15
    40a8:	6b 01       	movw	r12, r22
    40aa:	7c 01       	movw	r14, r24
    40ac:	80 91 32 02 	lds	r24, 0x0232	; 0x800232 <arp_entry+0x6>
    40b0:	90 91 33 02 	lds	r25, 0x0233	; 0x800233 <arp_entry+0x7>
    40b4:	a0 91 34 02 	lds	r26, 0x0234	; 0x800234 <arp_entry+0x8>
    40b8:	b0 91 35 02 	lds	r27, 0x0235	; 0x800235 <arp_entry+0x9>
    40bc:	c8 16       	cp	r12, r24
    40be:	d9 06       	cpc	r13, r25
    40c0:	ea 06       	cpc	r14, r26
    40c2:	fb 06       	cpc	r15, r27
    40c4:	f1 f0       	breq	.+60     	; 0x4102 <arp_entry_search+0x62>
    40c6:	21 e0       	ldi	r18, 0x01	; 1
    40c8:	30 e0       	ldi	r19, 0x00	; 0
    40ca:	82 2f       	mov	r24, r18
    40cc:	f9 01       	movw	r30, r18
    40ce:	ee 0f       	add	r30, r30
    40d0:	ff 1f       	adc	r31, r31
    40d2:	e2 0f       	add	r30, r18
    40d4:	f3 1f       	adc	r31, r19
    40d6:	ee 0f       	add	r30, r30
    40d8:	ff 1f       	adc	r31, r31
    40da:	ee 0f       	add	r30, r30
    40dc:	ff 1f       	adc	r31, r31
    40de:	e4 5d       	subi	r30, 0xD4	; 212
    40e0:	fd 4f       	sbci	r31, 0xFD	; 253
    40e2:	46 81       	ldd	r20, Z+6	; 0x06
    40e4:	57 81       	ldd	r21, Z+7	; 0x07
    40e6:	60 85       	ldd	r22, Z+8	; 0x08
    40e8:	71 85       	ldd	r23, Z+9	; 0x09
    40ea:	4c 15       	cp	r20, r12
    40ec:	5d 05       	cpc	r21, r13
    40ee:	6e 05       	cpc	r22, r14
    40f0:	7f 05       	cpc	r23, r15
    40f2:	41 f0       	breq	.+16     	; 0x4104 <arp_entry_search+0x64>
    40f4:	2f 5f       	subi	r18, 0xFF	; 255
    40f6:	3f 4f       	sbci	r19, 0xFF	; 255
    40f8:	25 30       	cpi	r18, 0x05	; 5
    40fa:	31 05       	cpc	r19, r1
    40fc:	31 f7       	brne	.-52     	; 0x40ca <arp_entry_search+0x2a>
    40fe:	85 e0       	ldi	r24, 0x05	; 5
    4100:	01 c0       	rjmp	.+2      	; 0x4104 <arp_entry_search+0x64>
    4102:	80 e0       	ldi	r24, 0x00	; 0
    4104:	ff 90       	pop	r15
    4106:	ef 90       	pop	r14
    4108:	df 90       	pop	r13
    410a:	cf 90       	pop	r12
    410c:	08 95       	ret

0000410e <new_eth_header>:
    410e:	cf 93       	push	r28
    4110:	df 93       	push	r29
    4112:	d8 2f       	mov	r29, r24
    4114:	c9 2f       	mov	r28, r25
    4116:	cb 01       	movw	r24, r22
    4118:	ba 01       	movw	r22, r20
    411a:	0e 94 50 20 	call	0x40a0	; 0x40a0 <arp_entry_search>
    411e:	85 30       	cpi	r24, 0x05	; 5
    4120:	f9 f0       	breq	.+62     	; 0x4160 <new_eth_header+0x52>
    4122:	ed 2f       	mov	r30, r29
    4124:	fc 2f       	mov	r31, r28
    4126:	aa e6       	ldi	r26, 0x6A	; 106
    4128:	b3 e0       	ldi	r27, 0x03	; 3
    412a:	20 e0       	ldi	r18, 0x00	; 0
    412c:	30 e0       	ldi	r19, 0x00	; 0
    412e:	90 e0       	ldi	r25, 0x00	; 0
    4130:	ac 01       	movw	r20, r24
    4132:	44 0f       	add	r20, r20
    4134:	55 1f       	adc	r21, r21
    4136:	84 0f       	add	r24, r20
    4138:	95 1f       	adc	r25, r21
    413a:	88 0f       	add	r24, r24
    413c:	99 1f       	adc	r25, r25
    413e:	88 0f       	add	r24, r24
    4140:	99 1f       	adc	r25, r25
    4142:	84 5d       	subi	r24, 0xD4	; 212
    4144:	9d 4f       	sbci	r25, 0xFD	; 253
    4146:	ec 01       	movw	r28, r24
    4148:	c2 0f       	add	r28, r18
    414a:	d3 1f       	adc	r29, r19
    414c:	48 81       	ld	r20, Y
    414e:	41 93       	st	Z+, r20
    4150:	4d 91       	ld	r20, X+
    4152:	45 83       	std	Z+5, r20	; 0x05
    4154:	2f 5f       	subi	r18, 0xFF	; 255
    4156:	3f 4f       	sbci	r19, 0xFF	; 255
    4158:	26 30       	cpi	r18, 0x06	; 6
    415a:	31 05       	cpc	r19, r1
    415c:	a1 f7       	brne	.-24     	; 0x4146 <new_eth_header+0x38>
    415e:	0d c0       	rjmp	.+26     	; 0x417a <new_eth_header+0x6c>
    4160:	ed 2f       	mov	r30, r29
    4162:	fc 2f       	mov	r31, r28
    4164:	aa e6       	ldi	r26, 0x6A	; 106
    4166:	b3 e0       	ldi	r27, 0x03	; 3
    4168:	20 e7       	ldi	r18, 0x70	; 112
    416a:	33 e0       	ldi	r19, 0x03	; 3
    416c:	9f ef       	ldi	r25, 0xFF	; 255
    416e:	91 93       	st	Z+, r25
    4170:	8d 91       	ld	r24, X+
    4172:	85 83       	std	Z+5, r24	; 0x05
    4174:	a2 17       	cp	r26, r18
    4176:	b3 07       	cpc	r27, r19
    4178:	d1 f7       	brne	.-12     	; 0x416e <new_eth_header+0x60>
    417a:	df 91       	pop	r29
    417c:	cf 91       	pop	r28
    417e:	08 95       	ret

00004180 <arp_reply>:
    4180:	cf 93       	push	r28
    4182:	df 93       	push	r29
    4184:	80 91 7e 03 	lds	r24, 0x037E	; 0x80037e <eth_buffer+0xe>
    4188:	90 91 7f 03 	lds	r25, 0x037F	; 0x80037f <eth_buffer+0xf>
    418c:	81 15       	cp	r24, r1
    418e:	91 40       	sbci	r25, 0x01	; 1
    4190:	09 f0       	breq	.+2      	; 0x4194 <arp_reply+0x14>
    4192:	8f c0       	rjmp	.+286    	; 0x42b2 <arp_reply+0x132>
    4194:	80 91 80 03 	lds	r24, 0x0380	; 0x800380 <eth_buffer+0x10>
    4198:	90 91 81 03 	lds	r25, 0x0381	; 0x800381 <eth_buffer+0x11>
    419c:	08 97       	sbiw	r24, 0x08	; 8
    419e:	09 f0       	breq	.+2      	; 0x41a2 <arp_reply+0x22>
    41a0:	88 c0       	rjmp	.+272    	; 0x42b2 <arp_reply+0x132>
    41a2:	80 91 82 03 	lds	r24, 0x0382	; 0x800382 <eth_buffer+0x12>
    41a6:	86 30       	cpi	r24, 0x06	; 6
    41a8:	09 f0       	breq	.+2      	; 0x41ac <arp_reply+0x2c>
    41aa:	83 c0       	rjmp	.+262    	; 0x42b2 <arp_reply+0x132>
    41ac:	80 91 83 03 	lds	r24, 0x0383	; 0x800383 <eth_buffer+0x13>
    41b0:	84 30       	cpi	r24, 0x04	; 4
    41b2:	09 f0       	breq	.+2      	; 0x41b6 <arp_reply+0x36>
    41b4:	7e c0       	rjmp	.+252    	; 0x42b2 <arp_reply+0x132>
    41b6:	40 91 96 03 	lds	r20, 0x0396	; 0x800396 <eth_buffer+0x26>
    41ba:	50 91 97 03 	lds	r21, 0x0397	; 0x800397 <eth_buffer+0x27>
    41be:	60 91 98 03 	lds	r22, 0x0398	; 0x800398 <eth_buffer+0x28>
    41c2:	70 91 99 03 	lds	r23, 0x0399	; 0x800399 <eth_buffer+0x29>
    41c6:	80 91 cf 05 	lds	r24, 0x05CF	; 0x8005cf <myip>
    41ca:	90 91 d0 05 	lds	r25, 0x05D0	; 0x8005d0 <myip+0x1>
    41ce:	a0 91 d1 05 	lds	r26, 0x05D1	; 0x8005d1 <myip+0x2>
    41d2:	b0 91 d2 05 	lds	r27, 0x05D2	; 0x8005d2 <myip+0x3>
    41d6:	48 17       	cp	r20, r24
    41d8:	59 07       	cpc	r21, r25
    41da:	6a 07       	cpc	r22, r26
    41dc:	7b 07       	cpc	r23, r27
    41de:	09 f0       	breq	.+2      	; 0x41e2 <arp_reply+0x62>
    41e0:	68 c0       	rjmp	.+208    	; 0x42b2 <arp_reply+0x132>
    41e2:	80 91 84 03 	lds	r24, 0x0384	; 0x800384 <eth_buffer+0x14>
    41e6:	90 91 85 03 	lds	r25, 0x0385	; 0x800385 <eth_buffer+0x15>
    41ea:	81 15       	cp	r24, r1
    41ec:	21 e0       	ldi	r18, 0x01	; 1
    41ee:	92 07       	cpc	r25, r18
    41f0:	09 f0       	breq	.+2      	; 0x41f4 <arp_reply+0x74>
    41f2:	5a c0       	rjmp	.+180    	; 0x42a8 <arp_reply+0x128>
    41f4:	0e 94 e7 1e 	call	0x3dce	; 0x3dce <arp_entry_add>
    41f8:	c0 e7       	ldi	r28, 0x70	; 112
    41fa:	d3 e0       	ldi	r29, 0x03	; 3
    41fc:	4c 8d       	ldd	r20, Y+28	; 0x1c
    41fe:	5d 8d       	ldd	r21, Y+29	; 0x1d
    4200:	6e 8d       	ldd	r22, Y+30	; 0x1e
    4202:	7f 8d       	ldd	r23, Y+31	; 0x1f
    4204:	ce 01       	movw	r24, r28
    4206:	0e 94 87 20 	call	0x410e	; 0x410e <new_eth_header>
    420a:	88 e0       	ldi	r24, 0x08	; 8
    420c:	96 e0       	ldi	r25, 0x06	; 6
    420e:	9d 87       	std	Y+13, r25	; 0x0d
    4210:	8c 87       	std	Y+12, r24	; 0x0c
    4212:	6c 8d       	ldd	r22, Y+28	; 0x1c
    4214:	7d 8d       	ldd	r23, Y+29	; 0x1d
    4216:	8e 8d       	ldd	r24, Y+30	; 0x1e
    4218:	9f 8d       	ldd	r25, Y+31	; 0x1f
    421a:	0e 94 50 20 	call	0x40a0	; 0x40a0 <arp_entry_search>
    421e:	85 30       	cpi	r24, 0x05	; 5
    4220:	f0 f4       	brcc	.+60     	; 0x425e <arp_reply+0xde>
    4222:	aa e6       	ldi	r26, 0x6A	; 106
    4224:	b3 e0       	ldi	r27, 0x03	; 3
    4226:	e6 e8       	ldi	r30, 0x86	; 134
    4228:	f3 e0       	ldi	r31, 0x03	; 3
    422a:	20 e0       	ldi	r18, 0x00	; 0
    422c:	30 e0       	ldi	r19, 0x00	; 0
    422e:	90 e0       	ldi	r25, 0x00	; 0
    4230:	ac 01       	movw	r20, r24
    4232:	44 0f       	add	r20, r20
    4234:	55 1f       	adc	r21, r21
    4236:	84 0f       	add	r24, r20
    4238:	95 1f       	adc	r25, r21
    423a:	88 0f       	add	r24, r24
    423c:	99 1f       	adc	r25, r25
    423e:	88 0f       	add	r24, r24
    4240:	99 1f       	adc	r25, r25
    4242:	84 5d       	subi	r24, 0xD4	; 212
    4244:	9d 4f       	sbci	r25, 0xFD	; 253
    4246:	ec 01       	movw	r28, r24
    4248:	c2 0f       	add	r28, r18
    424a:	d3 1f       	adc	r29, r19
    424c:	48 81       	ld	r20, Y
    424e:	42 87       	std	Z+10, r20	; 0x0a
    4250:	4d 91       	ld	r20, X+
    4252:	41 93       	st	Z+, r20
    4254:	2f 5f       	subi	r18, 0xFF	; 255
    4256:	3f 4f       	sbci	r19, 0xFF	; 255
    4258:	26 30       	cpi	r18, 0x06	; 6
    425a:	31 05       	cpc	r19, r1
    425c:	a1 f7       	brne	.-24     	; 0x4246 <arp_reply+0xc6>
    425e:	e0 e7       	ldi	r30, 0x70	; 112
    4260:	f3 e0       	ldi	r31, 0x03	; 3
    4262:	80 e0       	ldi	r24, 0x00	; 0
    4264:	92 e0       	ldi	r25, 0x02	; 2
    4266:	95 8b       	std	Z+21, r25	; 0x15
    4268:	84 8b       	std	Z+20, r24	; 0x14
    426a:	84 8d       	ldd	r24, Z+28	; 0x1c
    426c:	95 8d       	ldd	r25, Z+29	; 0x1d
    426e:	a6 8d       	ldd	r26, Z+30	; 0x1e
    4270:	b7 8d       	ldd	r27, Z+31	; 0x1f
    4272:	86 a3       	std	Z+38, r24	; 0x26
    4274:	97 a3       	std	Z+39, r25	; 0x27
    4276:	a0 a7       	std	Z+40, r26	; 0x28
    4278:	b1 a7       	std	Z+41, r27	; 0x29
    427a:	80 91 cf 05 	lds	r24, 0x05CF	; 0x8005cf <myip>
    427e:	90 91 d0 05 	lds	r25, 0x05D0	; 0x8005d0 <myip+0x1>
    4282:	a0 91 d1 05 	lds	r26, 0x05D1	; 0x8005d1 <myip+0x2>
    4286:	b0 91 d2 05 	lds	r27, 0x05D2	; 0x8005d2 <myip+0x3>
    428a:	84 8f       	std	Z+28, r24	; 0x1c
    428c:	95 8f       	std	Z+29, r25	; 0x1d
    428e:	a6 8f       	std	Z+30, r26	; 0x1e
    4290:	b7 8f       	std	Z+31, r27	; 0x1f
    4292:	bf 01       	movw	r22, r30
    4294:	8c e3       	ldi	r24, 0x3C	; 60
    4296:	90 e0       	ldi	r25, 0x00	; 0
    4298:	0e 94 13 1c 	call	0x3826	; 0x3826 <enc_send_packet>
    429c:	80 91 68 02 	lds	r24, 0x0268	; 0x800268 <eth>
    42a0:	84 60       	ori	r24, 0x04	; 4
    42a2:	80 93 68 02 	sts	0x0268, r24	; 0x800268 <eth>
    42a6:	05 c0       	rjmp	.+10     	; 0x42b2 <arp_reply+0x132>
    42a8:	81 15       	cp	r24, r1
    42aa:	92 40       	sbci	r25, 0x02	; 2
    42ac:	11 f4       	brne	.+4      	; 0x42b2 <arp_reply+0x132>
    42ae:	0e 94 e7 1e 	call	0x3dce	; 0x3dce <arp_entry_add>
    42b2:	df 91       	pop	r29
    42b4:	cf 91       	pop	r28
    42b6:	08 95       	ret

000042b8 <checksum>:
    42b8:	0f 93       	push	r16
    42ba:	1f 93       	push	r17
    42bc:	cf 93       	push	r28
    42be:	89 01       	movw	r16, r18
    42c0:	9a 01       	movw	r18, r20
    42c2:	62 30       	cpi	r22, 0x02	; 2
    42c4:	71 05       	cpc	r23, r1
    42c6:	e0 f0       	brcs	.+56     	; 0x4300 <checksum+0x48>
    42c8:	fc 01       	movw	r30, r24
    42ca:	db 01       	movw	r26, r22
    42cc:	40 81       	ld	r20, Z
    42ce:	50 e0       	ldi	r21, 0x00	; 0
    42d0:	54 2f       	mov	r21, r20
    42d2:	44 27       	eor	r20, r20
    42d4:	c1 81       	ldd	r28, Z+1	; 0x01
    42d6:	4c 0f       	add	r20, r28
    42d8:	51 1d       	adc	r21, r1
    42da:	04 0f       	add	r16, r20
    42dc:	15 1f       	adc	r17, r21
    42de:	21 1d       	adc	r18, r1
    42e0:	31 1d       	adc	r19, r1
    42e2:	12 97       	sbiw	r26, 0x02	; 2
    42e4:	32 96       	adiw	r30, 0x02	; 2
    42e6:	a2 30       	cpi	r26, 0x02	; 2
    42e8:	b1 05       	cpc	r27, r1
    42ea:	80 f7       	brcc	.-32     	; 0x42cc <checksum+0x14>
    42ec:	ab 01       	movw	r20, r22
    42ee:	42 50       	subi	r20, 0x02	; 2
    42f0:	51 09       	sbc	r21, r1
    42f2:	4e 7f       	andi	r20, 0xFE	; 254
    42f4:	4e 5f       	subi	r20, 0xFE	; 254
    42f6:	5f 4f       	sbci	r21, 0xFF	; 255
    42f8:	84 0f       	add	r24, r20
    42fa:	95 1f       	adc	r25, r21
    42fc:	61 70       	andi	r22, 0x01	; 1
    42fe:	77 27       	eor	r23, r23
    4300:	67 2b       	or	r22, r23
    4302:	49 f0       	breq	.+18     	; 0x4316 <checksum+0x5e>
    4304:	fc 01       	movw	r30, r24
    4306:	80 81       	ld	r24, Z
    4308:	90 e0       	ldi	r25, 0x00	; 0
    430a:	98 2f       	mov	r25, r24
    430c:	88 27       	eor	r24, r24
    430e:	08 0f       	add	r16, r24
    4310:	19 1f       	adc	r17, r25
    4312:	21 1d       	adc	r18, r1
    4314:	31 1d       	adc	r19, r1
    4316:	d9 01       	movw	r26, r18
    4318:	c8 01       	movw	r24, r16
    431a:	aa 27       	eor	r26, r26
    431c:	bb 27       	eor	r27, r27
    431e:	89 01       	movw	r16, r18
    4320:	22 27       	eor	r18, r18
    4322:	33 27       	eor	r19, r19
    4324:	08 0f       	add	r16, r24
    4326:	19 1f       	adc	r17, r25
    4328:	2a 1f       	adc	r18, r26
    432a:	3b 1f       	adc	r19, r27
    432c:	d9 01       	movw	r26, r18
    432e:	c8 01       	movw	r24, r16
    4330:	aa 27       	eor	r26, r26
    4332:	bb 27       	eor	r27, r27
    4334:	89 01       	movw	r16, r18
    4336:	22 27       	eor	r18, r18
    4338:	33 27       	eor	r19, r19
    433a:	08 0f       	add	r16, r24
    433c:	19 1f       	adc	r17, r25
    433e:	2a 1f       	adc	r18, r26
    4340:	3b 1f       	adc	r19, r27
    4342:	c8 01       	movw	r24, r16
    4344:	80 95       	com	r24
    4346:	90 95       	com	r25
    4348:	cf 91       	pop	r28
    434a:	1f 91       	pop	r17
    434c:	0f 91       	pop	r16
    434e:	08 95       	ret

00004350 <make_ip_header>:
    4350:	cf 92       	push	r12
    4352:	df 92       	push	r13
    4354:	ef 92       	push	r14
    4356:	ff 92       	push	r15
    4358:	cf 93       	push	r28
    435a:	df 93       	push	r29
    435c:	ec 01       	movw	r28, r24
    435e:	6a 01       	movw	r12, r20
    4360:	7b 01       	movw	r14, r22
    4362:	0e 94 87 20 	call	0x410e	; 0x410e <new_eth_header>
    4366:	88 e0       	ldi	r24, 0x08	; 8
    4368:	90 e0       	ldi	r25, 0x00	; 0
    436a:	9d 87       	std	Y+13, r25	; 0x0d
    436c:	8c 87       	std	Y+12, r24	; 0x0c
    436e:	80 91 9b 01 	lds	r24, 0x019B	; 0x80019b <IP_id_counter>
    4372:	90 91 9c 01 	lds	r25, 0x019C	; 0x80019c <IP_id_counter+0x1>
    4376:	01 96       	adiw	r24, 0x01	; 1
    4378:	90 93 9c 01 	sts	0x019C, r25	; 0x80019c <IP_id_counter+0x1>
    437c:	80 93 9b 01 	sts	0x019B, r24	; 0x80019b <IP_id_counter>
    4380:	20 e4       	ldi	r18, 0x40	; 64
    4382:	30 e0       	ldi	r19, 0x00	; 0
    4384:	3d 8b       	std	Y+21, r19	; 0x15
    4386:	2c 8b       	std	Y+20, r18	; 0x14
    4388:	20 e8       	ldi	r18, 0x80	; 128
    438a:	2e 8b       	std	Y+22, r18	; 0x16
    438c:	98 27       	eor	r25, r24
    438e:	89 27       	eor	r24, r25
    4390:	98 27       	eor	r25, r24
    4392:	9b 8b       	std	Y+19, r25	; 0x13
    4394:	8a 8b       	std	Y+18, r24	; 0x12
    4396:	85 e4       	ldi	r24, 0x45	; 69
    4398:	8e 87       	std	Y+14, r24	; 0x0e
    439a:	1f 86       	std	Y+15, r1	; 0x0f
    439c:	ce 8e       	std	Y+30, r12	; 0x1e
    439e:	df 8e       	std	Y+31, r13	; 0x1f
    43a0:	e8 a2       	std	Y+32, r14	; 0x20
    43a2:	f9 a2       	std	Y+33, r15	; 0x21
    43a4:	80 91 cf 05 	lds	r24, 0x05CF	; 0x8005cf <myip>
    43a8:	90 91 d0 05 	lds	r25, 0x05D0	; 0x8005d0 <myip+0x1>
    43ac:	a0 91 d1 05 	lds	r26, 0x05D1	; 0x8005d1 <myip+0x2>
    43b0:	b0 91 d2 05 	lds	r27, 0x05D2	; 0x8005d2 <myip+0x3>
    43b4:	8a 8f       	std	Y+26, r24	; 0x1a
    43b6:	9b 8f       	std	Y+27, r25	; 0x1b
    43b8:	ac 8f       	std	Y+28, r26	; 0x1c
    43ba:	bd 8f       	std	Y+29, r27	; 0x1d
    43bc:	19 8e       	std	Y+25, r1	; 0x19
    43be:	18 8e       	std	Y+24, r1	; 0x18
    43c0:	20 e0       	ldi	r18, 0x00	; 0
    43c2:	30 e0       	ldi	r19, 0x00	; 0
    43c4:	a9 01       	movw	r20, r18
    43c6:	64 e1       	ldi	r22, 0x14	; 20
    43c8:	70 e0       	ldi	r23, 0x00	; 0
    43ca:	ce 01       	movw	r24, r28
    43cc:	0e 96       	adiw	r24, 0x0e	; 14
    43ce:	0e 94 5c 21 	call	0x42b8	; 0x42b8 <checksum>
    43d2:	98 27       	eor	r25, r24
    43d4:	89 27       	eor	r24, r25
    43d6:	98 27       	eor	r25, r24
    43d8:	99 8f       	std	Y+25, r25	; 0x19
    43da:	88 8f       	std	Y+24, r24	; 0x18
    43dc:	df 91       	pop	r29
    43de:	cf 91       	pop	r28
    43e0:	ff 90       	pop	r15
    43e2:	ef 90       	pop	r14
    43e4:	df 90       	pop	r13
    43e6:	cf 90       	pop	r12
    43e8:	08 95       	ret

000043ea <icmp_send>:
    43ea:	ef 92       	push	r14
    43ec:	ff 92       	push	r15
    43ee:	0f 93       	push	r16
    43f0:	1f 93       	push	r17
    43f2:	cf 93       	push	r28
    43f4:	df 93       	push	r29
    43f6:	c0 e7       	ldi	r28, 0x70	; 112
    43f8:	d3 e0       	ldi	r29, 0x03	; 3
    43fa:	4a a3       	std	Y+34, r20	; 0x22
    43fc:	2b a3       	std	Y+35, r18	; 0x23
    43fe:	ff a2       	std	Y+39, r15	; 0x27
    4400:	ee a2       	std	Y+38, r14	; 0x26
    4402:	19 a7       	std	Y+41, r17	; 0x29
    4404:	08 a7       	std	Y+40, r16	; 0x28
    4406:	1d a2       	std	Y+37, r1	; 0x25
    4408:	1c a2       	std	Y+36, r1	; 0x24
    440a:	20 e0       	ldi	r18, 0x00	; 0
    440c:	34 e5       	ldi	r19, 0x54	; 84
    440e:	39 8b       	std	Y+17, r19	; 0x11
    4410:	28 8b       	std	Y+16, r18	; 0x10
    4412:	21 e0       	ldi	r18, 0x01	; 1
    4414:	2f 8b       	std	Y+23, r18	; 0x17
    4416:	ab 01       	movw	r20, r22
    4418:	bc 01       	movw	r22, r24
    441a:	ce 01       	movw	r24, r28
    441c:	0e 94 a8 21 	call	0x4350	; 0x4350 <make_ip_header>
    4420:	68 89       	ldd	r22, Y+16	; 0x10
    4422:	79 89       	ldd	r23, Y+17	; 0x11
    4424:	76 27       	eor	r23, r22
    4426:	67 27       	eor	r22, r23
    4428:	76 27       	eor	r23, r22
    442a:	8e 85       	ldd	r24, Y+14	; 0x0e
    442c:	8f 70       	andi	r24, 0x0F	; 15
    442e:	94 e0       	ldi	r25, 0x04	; 4
    4430:	89 9f       	mul	r24, r25
    4432:	60 19       	sub	r22, r0
    4434:	71 09       	sbc	r23, r1
    4436:	11 24       	eor	r1, r1
    4438:	20 e0       	ldi	r18, 0x00	; 0
    443a:	30 e0       	ldi	r19, 0x00	; 0
    443c:	a9 01       	movw	r20, r18
    443e:	82 e9       	ldi	r24, 0x92	; 146
    4440:	93 e0       	ldi	r25, 0x03	; 3
    4442:	0e 94 5c 21 	call	0x42b8	; 0x42b8 <checksum>
    4446:	98 27       	eor	r25, r24
    4448:	89 27       	eor	r24, r25
    444a:	98 27       	eor	r25, r24
    444c:	9d a3       	std	Y+37, r25	; 0x25
    444e:	8c a3       	std	Y+36, r24	; 0x24
    4450:	be 01       	movw	r22, r28
    4452:	82 e6       	ldi	r24, 0x62	; 98
    4454:	90 e0       	ldi	r25, 0x00	; 0
    4456:	0e 94 13 1c 	call	0x3826	; 0x3826 <enc_send_packet>
    445a:	80 91 68 02 	lds	r24, 0x0268	; 0x800268 <eth>
    445e:	84 60       	ori	r24, 0x04	; 4
    4460:	80 93 68 02 	sts	0x0268, r24	; 0x800268 <eth>
    4464:	df 91       	pop	r29
    4466:	cf 91       	pop	r28
    4468:	1f 91       	pop	r17
    446a:	0f 91       	pop	r16
    446c:	ff 90       	pop	r15
    446e:	ef 90       	pop	r14
    4470:	08 95       	ret

00004472 <tcp_entry_add>:
    4472:	cf 92       	push	r12
    4474:	df 92       	push	r13
    4476:	ef 92       	push	r14
    4478:	ff 92       	push	r15
    447a:	cf 93       	push	r28
    447c:	df 93       	push	r29
    447e:	dc 01       	movw	r26, r24
    4480:	5a 96       	adiw	r26, 0x1a	; 26
    4482:	cd 90       	ld	r12, X+
    4484:	dd 90       	ld	r13, X+
    4486:	ed 90       	ld	r14, X+
    4488:	fc 90       	ld	r15, X
    448a:	5d 97       	sbiw	r26, 0x1d	; 29
    448c:	20 e0       	ldi	r18, 0x00	; 0
    448e:	30 e0       	ldi	r19, 0x00	; 0
    4490:	96 e1       	ldi	r25, 0x16	; 22
    4492:	e9 01       	movw	r28, r18
    4494:	92 9f       	mul	r25, r18
    4496:	f0 01       	movw	r30, r0
    4498:	93 9f       	mul	r25, r19
    449a:	f0 0d       	add	r31, r0
    449c:	11 24       	eor	r1, r1
    449e:	e2 58       	subi	r30, 0x82	; 130
    44a0:	fd 4f       	sbci	r31, 0xFD	; 253
    44a2:	40 81       	ld	r20, Z
    44a4:	51 81       	ldd	r21, Z+1	; 0x01
    44a6:	62 81       	ldd	r22, Z+2	; 0x02
    44a8:	73 81       	ldd	r23, Z+3	; 0x03
    44aa:	4c 15       	cp	r20, r12
    44ac:	5d 05       	cpc	r21, r13
    44ae:	6e 05       	cpc	r22, r14
    44b0:	7f 05       	cpc	r23, r15
    44b2:	09 f0       	breq	.+2      	; 0x44b6 <tcp_entry_add+0x44>
    44b4:	6e c0       	rjmp	.+220    	; 0x4592 <tcp_entry_add+0x120>
    44b6:	92 9f       	mul	r25, r18
    44b8:	f0 01       	movw	r30, r0
    44ba:	93 9f       	mul	r25, r19
    44bc:	f0 0d       	add	r31, r0
    44be:	11 24       	eor	r1, r1
    44c0:	e2 58       	subi	r30, 0x82	; 130
    44c2:	fd 4f       	sbci	r31, 0xFD	; 253
    44c4:	64 81       	ldd	r22, Z+4	; 0x04
    44c6:	75 81       	ldd	r23, Z+5	; 0x05
    44c8:	92 96       	adiw	r26, 0x22	; 34
    44ca:	4d 91       	ld	r20, X+
    44cc:	5c 91       	ld	r21, X
    44ce:	93 97       	sbiw	r26, 0x23	; 35
    44d0:	64 17       	cp	r22, r20
    44d2:	75 07       	cpc	r23, r21
    44d4:	09 f0       	breq	.+2      	; 0x44d8 <tcp_entry_add+0x66>
    44d6:	5d c0       	rjmp	.+186    	; 0x4592 <tcp_entry_add+0x120>
    44d8:	9a 96       	adiw	r26, 0x2a	; 42
    44da:	4d 91       	ld	r20, X+
    44dc:	5d 91       	ld	r21, X+
    44de:	6d 91       	ld	r22, X+
    44e0:	7c 91       	ld	r23, X
    44e2:	9d 97       	sbiw	r26, 0x2d	; 45
    44e4:	86 e1       	ldi	r24, 0x16	; 22
    44e6:	82 9f       	mul	r24, r18
    44e8:	f0 01       	movw	r30, r0
    44ea:	83 9f       	mul	r24, r19
    44ec:	f0 0d       	add	r31, r0
    44ee:	11 24       	eor	r1, r1
    44f0:	e2 58       	subi	r30, 0x82	; 130
    44f2:	fd 4f       	sbci	r31, 0xFD	; 253
    44f4:	40 87       	std	Z+8, r20	; 0x08
    44f6:	51 87       	std	Z+9, r21	; 0x09
    44f8:	62 87       	std	Z+10, r22	; 0x0a
    44fa:	73 87       	std	Z+11, r23	; 0x0b
    44fc:	96 96       	adiw	r26, 0x26	; 38
    44fe:	4d 91       	ld	r20, X+
    4500:	5d 91       	ld	r21, X+
    4502:	6d 91       	ld	r22, X+
    4504:	7c 91       	ld	r23, X
    4506:	99 97       	sbiw	r26, 0x29	; 41
    4508:	44 87       	std	Z+12, r20	; 0x0c
    450a:	55 87       	std	Z+13, r21	; 0x0d
    450c:	66 87       	std	Z+14, r22	; 0x0e
    450e:	77 87       	std	Z+15, r23	; 0x0f
    4510:	9f 96       	adiw	r26, 0x2f	; 47
    4512:	8c 91       	ld	r24, X
    4514:	9f 97       	sbiw	r26, 0x2f	; 47
    4516:	80 8b       	std	Z+16, r24	; 0x10
    4518:	83 89       	ldd	r24, Z+19	; 0x13
    451a:	8f 3f       	cpi	r24, 0xFF	; 255
    451c:	51 f0       	breq	.+20     	; 0x4532 <tcp_entry_add+0xc0>
    451e:	86 e1       	ldi	r24, 0x16	; 22
    4520:	82 9f       	mul	r24, r18
    4522:	f0 01       	movw	r30, r0
    4524:	83 9f       	mul	r24, r19
    4526:	f0 0d       	add	r31, r0
    4528:	11 24       	eor	r1, r1
    452a:	e2 58       	subi	r30, 0x82	; 130
    452c:	fd 4f       	sbci	r31, 0xFD	; 253
    452e:	83 e0       	ldi	r24, 0x03	; 3
    4530:	83 8b       	std	Z+19, r24	; 0x13
    4532:	50 96       	adiw	r26, 0x10	; 16
    4534:	cd 90       	ld	r12, X+
    4536:	dc 90       	ld	r13, X
    4538:	51 97       	sbiw	r26, 0x11	; 17
    453a:	dc 24       	eor	r13, r12
    453c:	cd 24       	eor	r12, r13
    453e:	dc 24       	eor	r13, r12
    4540:	84 e1       	ldi	r24, 0x14	; 20
    4542:	c8 1a       	sub	r12, r24
    4544:	d1 08       	sbc	r13, r1
    4546:	9e 96       	adiw	r26, 0x2e	; 46
    4548:	8c 91       	ld	r24, X
    454a:	80 7f       	andi	r24, 0xF0	; 240
    454c:	90 e0       	ldi	r25, 0x00	; 0
    454e:	95 95       	asr	r25
    4550:	87 95       	ror	r24
    4552:	95 95       	asr	r25
    4554:	87 95       	ror	r24
    4556:	c8 1a       	sub	r12, r24
    4558:	d9 0a       	sbc	r13, r25
    455a:	e1 2c       	mov	r14, r1
    455c:	f1 2c       	mov	r15, r1
    455e:	26 e1       	ldi	r18, 0x16	; 22
    4560:	2c 9f       	mul	r18, r28
    4562:	c0 01       	movw	r24, r0
    4564:	2d 9f       	mul	r18, r29
    4566:	90 0d       	add	r25, r0
    4568:	11 24       	eor	r1, r1
    456a:	ec 01       	movw	r28, r24
    456c:	c2 58       	subi	r28, 0x82	; 130
    456e:	dd 4f       	sbci	r29, 0xFD	; 253
    4570:	6c 85       	ldd	r22, Y+12	; 0x0c
    4572:	7d 85       	ldd	r23, Y+13	; 0x0d
    4574:	8e 85       	ldd	r24, Y+14	; 0x0e
    4576:	9f 85       	ldd	r25, Y+15	; 0x0f
    4578:	0e 94 6d 1d 	call	0x3ada	; 0x3ada <htons32>
    457c:	6c 0d       	add	r22, r12
    457e:	7d 1d       	adc	r23, r13
    4580:	8e 1d       	adc	r24, r14
    4582:	9f 1d       	adc	r25, r15
    4584:	0e 94 6d 1d 	call	0x3ada	; 0x3ada <htons32>
    4588:	6c 87       	std	Y+12, r22	; 0x0c
    458a:	7d 87       	std	Y+13, r23	; 0x0d
    458c:	8e 87       	std	Y+14, r24	; 0x0e
    458e:	9f 87       	std	Y+15, r25	; 0x0f
    4590:	6b c0       	rjmp	.+214    	; 0x4668 <tcp_entry_add+0x1f6>
    4592:	2f 5f       	subi	r18, 0xFF	; 255
    4594:	3f 4f       	sbci	r19, 0xFF	; 255
    4596:	25 30       	cpi	r18, 0x05	; 5
    4598:	31 05       	cpc	r19, r1
    459a:	09 f0       	breq	.+2      	; 0x459e <tcp_entry_add+0x12c>
    459c:	7a cf       	rjmp	.-268    	; 0x4492 <tcp_entry_add+0x20>
    459e:	40 91 7e 02 	lds	r20, 0x027E	; 0x80027e <tcp_entry>
    45a2:	50 91 7f 02 	lds	r21, 0x027F	; 0x80027f <tcp_entry+0x1>
    45a6:	60 91 80 02 	lds	r22, 0x0280	; 0x800280 <tcp_entry+0x2>
    45aa:	70 91 81 02 	lds	r23, 0x0281	; 0x800281 <tcp_entry+0x3>
    45ae:	45 2b       	or	r20, r21
    45b0:	46 2b       	or	r20, r22
    45b2:	47 2b       	or	r20, r23
    45b4:	a9 f0       	breq	.+42     	; 0x45e0 <tcp_entry_add+0x16e>
    45b6:	21 e0       	ldi	r18, 0x01	; 1
    45b8:	30 e0       	ldi	r19, 0x00	; 0
    45ba:	c6 e1       	ldi	r28, 0x16	; 22
    45bc:	c9 01       	movw	r24, r18
    45be:	c2 9f       	mul	r28, r18
    45c0:	f0 01       	movw	r30, r0
    45c2:	c3 9f       	mul	r28, r19
    45c4:	f0 0d       	add	r31, r0
    45c6:	11 24       	eor	r1, r1
    45c8:	e2 58       	subi	r30, 0x82	; 130
    45ca:	fd 4f       	sbci	r31, 0xFD	; 253
    45cc:	40 81       	ld	r20, Z
    45ce:	51 81       	ldd	r21, Z+1	; 0x01
    45d0:	62 81       	ldd	r22, Z+2	; 0x02
    45d2:	73 81       	ldd	r23, Z+3	; 0x03
    45d4:	45 2b       	or	r20, r21
    45d6:	46 2b       	or	r20, r22
    45d8:	47 2b       	or	r20, r23
    45da:	09 f0       	breq	.+2      	; 0x45de <tcp_entry_add+0x16c>
    45dc:	3f c0       	rjmp	.+126    	; 0x465c <tcp_entry_add+0x1ea>
    45de:	02 c0       	rjmp	.+4      	; 0x45e4 <tcp_entry_add+0x172>
    45e0:	80 e0       	ldi	r24, 0x00	; 0
    45e2:	90 e0       	ldi	r25, 0x00	; 0
    45e4:	46 e1       	ldi	r20, 0x16	; 22
    45e6:	48 9f       	mul	r20, r24
    45e8:	90 01       	movw	r18, r0
    45ea:	49 9f       	mul	r20, r25
    45ec:	30 0d       	add	r19, r0
    45ee:	11 24       	eor	r1, r1
    45f0:	f9 01       	movw	r30, r18
    45f2:	e2 58       	subi	r30, 0x82	; 130
    45f4:	fd 4f       	sbci	r31, 0xFD	; 253
    45f6:	c0 82       	st	Z, r12
    45f8:	d1 82       	std	Z+1, r13	; 0x01
    45fa:	e2 82       	std	Z+2, r14	; 0x02
    45fc:	f3 82       	std	Z+3, r15	; 0x03
    45fe:	92 96       	adiw	r26, 0x22	; 34
    4600:	8d 91       	ld	r24, X+
    4602:	9c 91       	ld	r25, X
    4604:	93 97       	sbiw	r26, 0x23	; 35
    4606:	95 83       	std	Z+5, r25	; 0x05
    4608:	84 83       	std	Z+4, r24	; 0x04
    460a:	94 96       	adiw	r26, 0x24	; 36
    460c:	8d 91       	ld	r24, X+
    460e:	9c 91       	ld	r25, X
    4610:	95 97       	sbiw	r26, 0x25	; 37
    4612:	97 83       	std	Z+7, r25	; 0x07
    4614:	86 83       	std	Z+6, r24	; 0x06
    4616:	9a 96       	adiw	r26, 0x2a	; 42
    4618:	4d 91       	ld	r20, X+
    461a:	5d 91       	ld	r21, X+
    461c:	6d 91       	ld	r22, X+
    461e:	7c 91       	ld	r23, X
    4620:	9d 97       	sbiw	r26, 0x2d	; 45
    4622:	40 87       	std	Z+8, r20	; 0x08
    4624:	51 87       	std	Z+9, r21	; 0x09
    4626:	62 87       	std	Z+10, r22	; 0x0a
    4628:	73 87       	std	Z+11, r23	; 0x0b
    462a:	96 96       	adiw	r26, 0x26	; 38
    462c:	4d 91       	ld	r20, X+
    462e:	5d 91       	ld	r21, X+
    4630:	6d 91       	ld	r22, X+
    4632:	7c 91       	ld	r23, X
    4634:	99 97       	sbiw	r26, 0x29	; 41
    4636:	44 87       	std	Z+12, r20	; 0x0c
    4638:	55 87       	std	Z+13, r21	; 0x0d
    463a:	66 87       	std	Z+14, r22	; 0x0e
    463c:	77 87       	std	Z+15, r23	; 0x0f
    463e:	9f 96       	adiw	r26, 0x2f	; 47
    4640:	8c 91       	ld	r24, X
    4642:	80 8b       	std	Z+16, r24	; 0x10
    4644:	12 8a       	std	Z+18, r1	; 0x12
    4646:	11 8a       	std	Z+17, r1	; 0x11
    4648:	83 e0       	ldi	r24, 0x03	; 3
    464a:	83 8b       	std	Z+19, r24	; 0x13
    464c:	14 8a       	std	Z+20, r1	; 0x14
    464e:	f9 01       	movw	r30, r18
    4650:	ed 56       	subi	r30, 0x6D	; 109
    4652:	fd 4f       	sbci	r31, 0xFD	; 253
    4654:	80 81       	ld	r24, Z
    4656:	8e 7f       	andi	r24, 0xFE	; 254
    4658:	80 83       	st	Z, r24
    465a:	06 c0       	rjmp	.+12     	; 0x4668 <tcp_entry_add+0x1f6>
    465c:	2f 5f       	subi	r18, 0xFF	; 255
    465e:	3f 4f       	sbci	r19, 0xFF	; 255
    4660:	25 30       	cpi	r18, 0x05	; 5
    4662:	31 05       	cpc	r19, r1
    4664:	09 f0       	breq	.+2      	; 0x4668 <tcp_entry_add+0x1f6>
    4666:	aa cf       	rjmp	.-172    	; 0x45bc <tcp_entry_add+0x14a>
    4668:	df 91       	pop	r29
    466a:	cf 91       	pop	r28
    466c:	ff 90       	pop	r15
    466e:	ef 90       	pop	r14
    4670:	df 90       	pop	r13
    4672:	cf 90       	pop	r12
    4674:	08 95       	ret

00004676 <tcp_entry_search>:
    4676:	cf 92       	push	r12
    4678:	df 92       	push	r13
    467a:	ef 92       	push	r14
    467c:	ff 92       	push	r15
    467e:	cf 93       	push	r28
    4680:	df 93       	push	r29
    4682:	6b 01       	movw	r12, r22
    4684:	7c 01       	movw	r14, r24
    4686:	ea 01       	movw	r28, r20
    4688:	20 e0       	ldi	r18, 0x00	; 0
    468a:	30 e0       	ldi	r19, 0x00	; 0
    468c:	56 e1       	ldi	r21, 0x16	; 22
    468e:	52 9f       	mul	r21, r18
    4690:	f0 01       	movw	r30, r0
    4692:	53 9f       	mul	r21, r19
    4694:	f0 0d       	add	r31, r0
    4696:	11 24       	eor	r1, r1
    4698:	e2 58       	subi	r30, 0x82	; 130
    469a:	fd 4f       	sbci	r31, 0xFD	; 253
    469c:	80 81       	ld	r24, Z
    469e:	91 81       	ldd	r25, Z+1	; 0x01
    46a0:	a2 81       	ldd	r26, Z+2	; 0x02
    46a2:	b3 81       	ldd	r27, Z+3	; 0x03
    46a4:	8c 15       	cp	r24, r12
    46a6:	9d 05       	cpc	r25, r13
    46a8:	ae 05       	cpc	r26, r14
    46aa:	bf 05       	cpc	r27, r15
    46ac:	61 f4       	brne	.+24     	; 0x46c6 <tcp_entry_search+0x50>
    46ae:	52 9f       	mul	r21, r18
    46b0:	f0 01       	movw	r30, r0
    46b2:	53 9f       	mul	r21, r19
    46b4:	f0 0d       	add	r31, r0
    46b6:	11 24       	eor	r1, r1
    46b8:	e2 58       	subi	r30, 0x82	; 130
    46ba:	fd 4f       	sbci	r31, 0xFD	; 253
    46bc:	84 81       	ldd	r24, Z+4	; 0x04
    46be:	95 81       	ldd	r25, Z+5	; 0x05
    46c0:	8c 17       	cp	r24, r28
    46c2:	9d 07       	cpc	r25, r29
    46c4:	39 f0       	breq	.+14     	; 0x46d4 <tcp_entry_search+0x5e>
    46c6:	2f 5f       	subi	r18, 0xFF	; 255
    46c8:	3f 4f       	sbci	r19, 0xFF	; 255
    46ca:	25 30       	cpi	r18, 0x05	; 5
    46cc:	31 05       	cpc	r19, r1
    46ce:	f9 f6       	brne	.-66     	; 0x468e <tcp_entry_search+0x18>
    46d0:	85 e0       	ldi	r24, 0x05	; 5
    46d2:	01 c0       	rjmp	.+2      	; 0x46d6 <tcp_entry_search+0x60>
    46d4:	82 2f       	mov	r24, r18
    46d6:	df 91       	pop	r29
    46d8:	cf 91       	pop	r28
    46da:	ff 90       	pop	r15
    46dc:	ef 90       	pop	r14
    46de:	df 90       	pop	r13
    46e0:	cf 90       	pop	r12
    46e2:	08 95       	ret

000046e4 <udp_socket_process>:
    46e4:	80 91 9d 01 	lds	r24, 0x019D	; 0x80019d <UDP_PORT_TABLE>
    46e8:	90 91 9e 01 	lds	r25, 0x019E	; 0x80019e <UDP_PORT_TABLE+0x1>
    46ec:	00 97       	sbiw	r24, 0x00	; 0
    46ee:	71 f1       	breq	.+92     	; 0x474c <udp_socket_process+0x68>
    46f0:	60 91 94 03 	lds	r22, 0x0394	; 0x800394 <eth_buffer+0x24>
    46f4:	70 91 95 03 	lds	r23, 0x0395	; 0x800395 <eth_buffer+0x25>
    46f8:	76 27       	eor	r23, r22
    46fa:	67 27       	eor	r22, r23
    46fc:	76 27       	eor	r23, r22
    46fe:	86 17       	cp	r24, r22
    4700:	97 07       	cpc	r25, r23
    4702:	a1 f0       	breq	.+40     	; 0x472c <udp_socket_process+0x48>
    4704:	80 e0       	ldi	r24, 0x00	; 0
    4706:	8f 5f       	subi	r24, 0xFF	; 255
    4708:	48 2f       	mov	r20, r24
    470a:	50 e0       	ldi	r21, 0x00	; 0
    470c:	fa 01       	movw	r30, r20
    470e:	ee 0f       	add	r30, r30
    4710:	ff 1f       	adc	r31, r31
    4712:	ee 0f       	add	r30, r30
    4714:	ff 1f       	adc	r31, r31
    4716:	e3 56       	subi	r30, 0x63	; 99
    4718:	fe 4f       	sbci	r31, 0xFE	; 254
    471a:	20 81       	ld	r18, Z
    471c:	31 81       	ldd	r19, Z+1	; 0x01
    471e:	21 15       	cp	r18, r1
    4720:	31 05       	cpc	r19, r1
    4722:	a1 f0       	breq	.+40     	; 0x474c <udp_socket_process+0x68>
    4724:	26 17       	cp	r18, r22
    4726:	37 07       	cpc	r19, r23
    4728:	71 f7       	brne	.-36     	; 0x4706 <udp_socket_process+0x22>
    472a:	02 c0       	rjmp	.+4      	; 0x4730 <udp_socket_process+0x4c>
    472c:	40 e0       	ldi	r20, 0x00	; 0
    472e:	50 e0       	ldi	r21, 0x00	; 0
    4730:	67 2b       	or	r22, r23
    4732:	61 f0       	breq	.+24     	; 0x474c <udp_socket_process+0x68>
    4734:	44 0f       	add	r20, r20
    4736:	55 1f       	adc	r21, r21
    4738:	44 0f       	add	r20, r20
    473a:	55 1f       	adc	r21, r21
    473c:	fa 01       	movw	r30, r20
    473e:	e3 56       	subi	r30, 0x63	; 99
    4740:	fe 4f       	sbci	r31, 0xFE	; 254
    4742:	02 80       	ldd	r0, Z+2	; 0x02
    4744:	f3 81       	ldd	r31, Z+3	; 0x03
    4746:	e0 2d       	mov	r30, r0
    4748:	80 e0       	ldi	r24, 0x00	; 0
    474a:	09 95       	icall
    474c:	08 95       	ret

0000474e <create_new_tcp_packet>:
}

//----------------------------------------------------------------------------
//Diese Routine Erzeugt ein neues TCP Packet
void create_new_tcp_packet(unsigned int data_length,unsigned char index)
{
    474e:	cf 92       	push	r12
    4750:	df 92       	push	r13
    4752:	ef 92       	push	r14
    4754:	ff 92       	push	r15
    4756:	0f 93       	push	r16
    4758:	1f 93       	push	r17
    475a:	cf 93       	push	r28
    475c:	df 93       	push	r29
    475e:	8c 01       	movw	r16, r24
    struct IP_Header  *ip;

    tcp = (struct TCP_Header *)&eth_buffer[TCP_OFFSET];
    ip  = (struct IP_Header  *)&eth_buffer[IP_OFFSET];

    tcp->TCP_SrcPort   = tcp_entry[index].dest_port;
    4760:	c6 2e       	mov	r12, r22
    4762:	d1 2c       	mov	r13, r1
    4764:	26 e1       	ldi	r18, 0x16	; 22
    4766:	62 9f       	mul	r22, r18
    4768:	e0 01       	movw	r28, r0
    476a:	11 24       	eor	r1, r1
    476c:	c2 58       	subi	r28, 0x82	; 130
    476e:	dd 4f       	sbci	r29, 0xFD	; 253
    4770:	8e 81       	ldd	r24, Y+6	; 0x06
    4772:	9f 81       	ldd	r25, Y+7	; 0x07
    4774:	0f 2e       	mov	r0, r31
    4776:	f0 e7       	ldi	r31, 0x70	; 112
    4778:	ef 2e       	mov	r14, r31
    477a:	f3 e0       	ldi	r31, 0x03	; 3
    477c:	ff 2e       	mov	r15, r31
    477e:	f0 2d       	mov	r31, r0
    4780:	f7 01       	movw	r30, r14
    4782:	93 a3       	std	Z+35, r25	; 0x23
    4784:	82 a3       	std	Z+34, r24	; 0x22
    tcp->TCP_DestPort  = tcp_entry[index].src_port;
    4786:	8c 81       	ldd	r24, Y+4	; 0x04
    4788:	9d 81       	ldd	r25, Y+5	; 0x05
    478a:	95 a3       	std	Z+37, r25	; 0x25
    478c:	84 a3       	std	Z+36, r24	; 0x24
    tcp->TCP_UrgentPtr = 0;
    478e:	15 aa       	std	Z+53, r1	; 0x35
    4790:	14 aa       	std	Z+52, r1	; 0x34
    tcp->TCP_Window    = htons(MAX_WINDOWS_SIZE);
    4792:	81 e0       	ldi	r24, 0x01	; 1
    4794:	94 ef       	ldi	r25, 0xF4	; 244
    4796:	91 ab       	std	Z+49, r25	; 0x31
    4798:	80 ab       	std	Z+48, r24	; 0x30
    tcp->TCP_Hdrlen    = 0x50;
    479a:	80 e5       	ldi	r24, 0x50	; 80
    479c:	86 a7       	std	Z+46, r24	; 0x2e

    DEBUG("TCP SrcPort %4i\r\n", htons(tcp->TCP_SrcPort));

    result32 = htons32(tcp_entry[index].seq_counter); 
    479e:	6c 85       	ldd	r22, Y+12	; 0x0c
    47a0:	7d 85       	ldd	r23, Y+13	; 0x0d
    47a2:	8e 85       	ldd	r24, Y+14	; 0x0e
    47a4:	9f 85       	ldd	r25, Y+15	; 0x0f
    47a6:	0e 94 6d 1d 	call	0x3ada	; 0x3ada <htons32>

    tcp->TCP_HdrFlags = tcp_entry[index].status;
    47aa:	28 89       	ldd	r18, Y+16	; 0x10
    47ac:	f7 01       	movw	r30, r14
    47ae:	27 a7       	std	Z+47, r18	; 0x2f

    //Verbindung wird aufgebaut
    if(tcp_entry[index].status & SYN_FLAG)
    47b0:	28 89       	ldd	r18, Y+16	; 0x10
    47b2:	21 ff       	sbrs	r18, 1
    47b4:	10 c0       	rjmp	.+32     	; 0x47d6 <create_new_tcp_packet+0x88>
    {
        result32++;
    47b6:	6f 5f       	subi	r22, 0xFF	; 255
    47b8:	7f 4f       	sbci	r23, 0xFF	; 255
    47ba:	8f 4f       	sbci	r24, 0xFF	; 255
    47bc:	9f 4f       	sbci	r25, 0xFF	; 255
        // MSS-Option (siehe RFC 879) wil.
        eth_buffer[TCP_DATA_START]   = 2;
    47be:	22 e0       	ldi	r18, 0x02	; 2
    47c0:	26 ab       	std	Z+54, r18	; 0x36
        eth_buffer[TCP_DATA_START+1] = 4;
    47c2:	24 e0       	ldi	r18, 0x04	; 4
    47c4:	27 ab       	std	Z+55, r18	; 0x37
        eth_buffer[TCP_DATA_START+2] = (MAX_WINDOWS_SIZE >> 8) & 0xff;
    47c6:	21 e0       	ldi	r18, 0x01	; 1
    47c8:	20 af       	std	Z+56, r18	; 0x38
        eth_buffer[TCP_DATA_START+3] = MAX_WINDOWS_SIZE & 0xff;
    47ca:	24 ef       	ldi	r18, 0xF4	; 244
    47cc:	21 af       	std	Z+57, r18	; 0x39
        data_length                  = 0x04;
        tcp->TCP_Hdrlen              = 0x60;
    47ce:	20 e6       	ldi	r18, 0x60	; 96
    47d0:	26 a7       	std	Z+46, r18	; 0x2e
        // MSS-Option (siehe RFC 879) wil.
        eth_buffer[TCP_DATA_START]   = 2;
        eth_buffer[TCP_DATA_START+1] = 4;
        eth_buffer[TCP_DATA_START+2] = (MAX_WINDOWS_SIZE >> 8) & 0xff;
        eth_buffer[TCP_DATA_START+3] = MAX_WINDOWS_SIZE & 0xff;
        data_length                  = 0x04;
    47d2:	04 e0       	ldi	r16, 0x04	; 4
    47d4:	10 e0       	ldi	r17, 0x00	; 0
        tcp->TCP_Hdrlen              = 0x60;
    }
  
    tcp->TCP_Acknum = htons32(result32);
    47d6:	0e 94 6d 1d 	call	0x3ada	; 0x3ada <htons32>
    47da:	c0 e7       	ldi	r28, 0x70	; 112
    47dc:	d3 e0       	ldi	r29, 0x03	; 3
    47de:	6a a7       	std	Y+42, r22	; 0x2a
    47e0:	7b a7       	std	Y+43, r23	; 0x2b
    47e2:	8c a7       	std	Y+44, r24	; 0x2c
    47e4:	9d a7       	std	Y+45, r25	; 0x2d
    tcp->TCP_Seqnum = tcp_entry[index].ack_counter;
    47e6:	26 e1       	ldi	r18, 0x16	; 22
    47e8:	2c 9d       	mul	r18, r12
    47ea:	c0 01       	movw	r24, r0
    47ec:	2d 9d       	mul	r18, r13
    47ee:	90 0d       	add	r25, r0
    47f0:	11 24       	eor	r1, r1
    47f2:	9c 01       	movw	r18, r24
    47f4:	22 58       	subi	r18, 0x82	; 130
    47f6:	3d 4f       	sbci	r19, 0xFD	; 253
    47f8:	79 01       	movw	r14, r18
    47fa:	f9 01       	movw	r30, r18
    47fc:	80 85       	ldd	r24, Z+8	; 0x08
    47fe:	91 85       	ldd	r25, Z+9	; 0x09
    4800:	a2 85       	ldd	r26, Z+10	; 0x0a
    4802:	b3 85       	ldd	r27, Z+11	; 0x0b
    4804:	8e a3       	std	Y+38, r24	; 0x26
    4806:	9f a3       	std	Y+39, r25	; 0x27
    4808:	a8 a7       	std	Y+40, r26	; 0x28
    480a:	b9 a7       	std	Y+41, r27	; 0x29

    bufferlen = IP_VERS_LEN + TCP_HDR_LEN + data_length;    //IP Headerlnge + TCP Headerlnge
    ip->IP_Pktlen = htons(bufferlen);                      //Hier wird erstmal der IP Header neu erstellt
    480c:	c8 01       	movw	r24, r16
    480e:	88 96       	adiw	r24, 0x28	; 40
    4810:	98 27       	eor	r25, r24
    4812:	89 27       	eor	r24, r25
    4814:	98 27       	eor	r25, r24
    4816:	99 8b       	std	Y+17, r25	; 0x11
    4818:	88 8b       	std	Y+16, r24	; 0x10
    bufferlen += ETH_HDR_LEN;
    ip->IP_Proto = PROT_TCP;
    481a:	86 e0       	ldi	r24, 0x06	; 6
    481c:	8f 8b       	std	Y+23, r24	; 0x17
    make_ip_header (eth_buffer,tcp_entry[index].ip);
    481e:	40 81       	ld	r20, Z
    4820:	51 81       	ldd	r21, Z+1	; 0x01
    4822:	62 81       	ldd	r22, Z+2	; 0x02
    4824:	73 81       	ldd	r23, Z+3	; 0x03
    4826:	ce 01       	movw	r24, r28
    4828:	0e 94 a8 21 	call	0x4350	; 0x4350 <make_ip_header>

    tcp->TCP_Chksum = 0;
    482c:	1b aa       	std	Y+51, r1	; 0x33
    482e:	1a aa       	std	Y+50, r1	; 0x32

    //Berechnet Headerlnge und Addiert Pseudoheaderlnge 2XIP = 8
    result16 = htons(ip->IP_Pktlen) + 8;
    4830:	68 89       	ldd	r22, Y+16	; 0x10
    4832:	79 89       	ldd	r23, Y+17	; 0x11
    4834:	76 27       	eor	r23, r22
    4836:	67 27       	eor	r22, r23
    4838:	76 27       	eor	r23, r22
    483a:	68 5f       	subi	r22, 0xF8	; 248
    483c:	7f 4f       	sbci	r23, 0xFF	; 255
    result16 = result16 - ((ip->IP_Vers_Len & 0x0F) << 2);
    483e:	8e 85       	ldd	r24, Y+14	; 0x0e
    4840:	8f 70       	andi	r24, 0x0F	; 15
    4842:	f4 e0       	ldi	r31, 0x04	; 4
    4844:	8f 9f       	mul	r24, r31
    4846:	60 19       	sub	r22, r0
    4848:	71 09       	sbc	r23, r1
    484a:	11 24       	eor	r1, r1
    result32 = result16 - 2;
    484c:	9b 01       	movw	r18, r22
    484e:	22 50       	subi	r18, 0x02	; 2
    4850:	31 09       	sbc	r19, r1
    4852:	40 e0       	ldi	r20, 0x00	; 0
    4854:	50 e0       	ldi	r21, 0x00	; 0

    //Checksum
    result16 = checksum ((&ip->IP_Vers_Len+12), result16, result32);
    4856:	8a e8       	ldi	r24, 0x8A	; 138
    4858:	93 e0       	ldi	r25, 0x03	; 3
    485a:	0e 94 5c 21 	call	0x42b8	; 0x42b8 <checksum>
    tcp->TCP_Chksum = htons(result16);
    485e:	98 27       	eor	r25, r24
    4860:	89 27       	eor	r24, r25
    4862:	98 27       	eor	r25, r24
    4864:	9b ab       	std	Y+51, r25	; 0x33
    4866:	8a ab       	std	Y+50, r24	; 0x32

    //Send the TCP packet
    ETH_PACKET_SEND(bufferlen,eth_buffer);
    4868:	be 01       	movw	r22, r28
    486a:	c8 01       	movw	r24, r16
    486c:	c6 96       	adiw	r24, 0x36	; 54
    486e:	0e 94 13 1c 	call	0x3826	; 0x3826 <enc_send_packet>
	eth.no_reset	 = 1;	
    4872:	80 91 68 02 	lds	r24, 0x0268	; 0x800268 <eth>
    4876:	84 60       	ori	r24, 0x04	; 4
    4878:	80 93 68 02 	sts	0x0268, r24	; 0x800268 <eth>
    //Fr Retransmission
    tcp_entry[index].status = 0;
    487c:	f7 01       	movw	r30, r14
    487e:	10 8a       	std	Z+16, r1	; 0x10
    return;
}
    4880:	df 91       	pop	r29
    4882:	cf 91       	pop	r28
    4884:	1f 91       	pop	r17
    4886:	0f 91       	pop	r16
    4888:	ff 90       	pop	r15
    488a:	ef 90       	pop	r14
    488c:	df 90       	pop	r13
    488e:	cf 90       	pop	r12
    4890:	08 95       	ret

00004892 <tcp_Port_close>:
//----------------------------------------------------------------------------
//Diese Routine schliet einen offenen TCP-Port
void tcp_Port_close (unsigned char index)
{
	DEBUG("Port wird im TCP Stack geschlossen STACK:%i\r\n",index);
	tcp_entry[index].app_status = 0xFFFF;
    4892:	96 e1       	ldi	r25, 0x16	; 22
    4894:	89 9f       	mul	r24, r25
    4896:	f0 01       	movw	r30, r0
    4898:	11 24       	eor	r1, r1
    489a:	e2 58       	subi	r30, 0x82	; 130
    489c:	fd 4f       	sbci	r31, 0xFD	; 253
    489e:	2f ef       	ldi	r18, 0xFF	; 255
    48a0:	3f ef       	ldi	r19, 0xFF	; 255
    48a2:	32 8b       	std	Z+18, r19	; 0x12
    48a4:	21 8b       	std	Z+17, r18	; 0x11
	tcp_entry[index].status =  ACK_FLAG | FIN_FLAG;
    48a6:	91 e1       	ldi	r25, 0x11	; 17
    48a8:	90 8b       	std	Z+16, r25	; 0x10
	create_new_tcp_packet(0,index);
    48aa:	68 2f       	mov	r22, r24
    48ac:	80 e0       	ldi	r24, 0x00	; 0
    48ae:	90 e0       	ldi	r25, 0x00	; 0
    48b0:	0e 94 a7 23 	call	0x474e	; 0x474e <create_new_tcp_packet>
    48b4:	08 95       	ret

000048b6 <find_and_start>:
}

//----------------------------------------------------------------------------
//Diese Routine findet die Anwendung anhand des TCP Ports
void find_and_start (unsigned char index)
{
    48b6:	cf 93       	push	r28
    48b8:	df 93       	push	r29
    unsigned char port_index = 0;

    //Port mit Anwendung in der Liste suchen
    while ( (TCP_PORT_TABLE[port_index].port!=(htons(tcp_entry[index].dest_port))) &&
    48ba:	68 2f       	mov	r22, r24
    48bc:	70 e0       	ldi	r23, 0x00	; 0
    48be:	96 e1       	ldi	r25, 0x16	; 22
    48c0:	89 9f       	mul	r24, r25
    48c2:	f0 01       	movw	r30, r0
    48c4:	11 24       	eor	r1, r1
    48c6:	e2 58       	subi	r30, 0x82	; 130
    48c8:	fd 4f       	sbci	r31, 0xFD	; 253
    48ca:	26 81       	ldd	r18, Z+6	; 0x06
    48cc:	37 81       	ldd	r19, Z+7	; 0x07
    48ce:	32 27       	eor	r19, r18
    48d0:	23 27       	eor	r18, r19
    48d2:	32 27       	eor	r19, r18
    48d4:	40 91 b1 01 	lds	r20, 0x01B1	; 0x8001b1 <TCP_PORT_TABLE>
    48d8:	50 91 b2 01 	lds	r21, 0x01B2	; 0x8001b2 <TCP_PORT_TABLE+0x1>
    48dc:	42 17       	cp	r20, r18
    48de:	53 07       	cpc	r21, r19
    48e0:	f9 f0       	breq	.+62     	; 0x4920 <find_and_start+0x6a>
    48e2:	e1 eb       	ldi	r30, 0xB1	; 177
    48e4:	f1 e0       	ldi	r31, 0x01	; 1
    48e6:	21 e0       	ldi	r18, 0x01	; 1
    48e8:	30 e0       	ldi	r19, 0x00	; 0
    48ea:	96 e1       	ldi	r25, 0x16	; 22
    48ec:	96 9f       	mul	r25, r22
    48ee:	d0 01       	movw	r26, r0
    48f0:	97 9f       	mul	r25, r23
    48f2:	b0 0d       	add	r27, r0
    48f4:	11 24       	eor	r1, r1
    48f6:	ac 57       	subi	r26, 0x7C	; 124
    48f8:	bd 4f       	sbci	r27, 0xFD	; 253
          (port_index < MAX_APP_ENTRY)                                                 )
    { 
        port_index++;
    48fa:	92 2f       	mov	r25, r18
void find_and_start (unsigned char index)
{
    unsigned char port_index = 0;

    //Port mit Anwendung in der Liste suchen
    while ( (TCP_PORT_TABLE[port_index].port!=(htons(tcp_entry[index].dest_port))) &&
    48fc:	e9 01       	movw	r28, r18
    48fe:	64 81       	ldd	r22, Z+4	; 0x04
    4900:	75 81       	ldd	r23, Z+5	; 0x05
    4902:	4d 91       	ld	r20, X+
    4904:	5c 91       	ld	r21, X
    4906:	11 97       	sbiw	r26, 0x01	; 1
    4908:	2f 5f       	subi	r18, 0xFF	; 255
    490a:	3f 4f       	sbci	r19, 0xFF	; 255
    490c:	34 96       	adiw	r30, 0x04	; 4
    490e:	54 27       	eor	r21, r20
    4910:	45 27       	eor	r20, r21
    4912:	54 27       	eor	r21, r20
    4914:	64 17       	cp	r22, r20
    4916:	75 07       	cpc	r23, r21
    4918:	81 f7       	brne	.-32     	; 0x48fa <find_and_start+0x44>
          (port_index < MAX_APP_ENTRY)                                                 )
    { 
        port_index++;
    }
    if (port_index >= MAX_APP_ENTRY) return;
    491a:	95 30       	cpi	r25, 0x05	; 5
    491c:	18 f0       	brcs	.+6      	; 0x4924 <find_and_start+0x6e>
    491e:	0b c0       	rjmp	.+22     	; 0x4936 <find_and_start+0x80>
void find_and_start (unsigned char index)
{
    unsigned char port_index = 0;

    //Port mit Anwendung in der Liste suchen
    while ( (TCP_PORT_TABLE[port_index].port!=(htons(tcp_entry[index].dest_port))) &&
    4920:	c0 e0       	ldi	r28, 0x00	; 0
    4922:	d0 e0       	ldi	r29, 0x00	; 0
        port_index++;
    }
    if (port_index >= MAX_APP_ENTRY) return;
  
    //zugehrige Anwendung ausfhren (Senden wiederholen)
    TCP_PORT_TABLE[port_index].fp(index);
    4924:	cc 0f       	add	r28, r28
    4926:	dd 1f       	adc	r29, r29
    4928:	cc 0f       	add	r28, r28
    492a:	dd 1f       	adc	r29, r29
    492c:	cf 54       	subi	r28, 0x4F	; 79
    492e:	de 4f       	sbci	r29, 0xFE	; 254
    4930:	ea 81       	ldd	r30, Y+2	; 0x02
    4932:	fb 81       	ldd	r31, Y+3	; 0x03
    4934:	09 95       	icall
    return;
}
    4936:	df 91       	pop	r29
    4938:	cf 91       	pop	r28
    493a:	08 95       	ret

0000493c <tcp_index_del>:

//----------------------------------------------------------------------------
//Diese Routine lscht einen Eintrag
void tcp_index_del (unsigned char index)
{
	if (index<MAX_TCP_ENTRY + 1)
    493c:	86 30       	cpi	r24, 0x06	; 6
    493e:	70 f5       	brcc	.+92     	; 0x499c <tcp_index_del+0x60>
	{
		tcp_entry[index].ip = 0;
    4940:	96 e1       	ldi	r25, 0x16	; 22
    4942:	89 9f       	mul	r24, r25
    4944:	f0 01       	movw	r30, r0
    4946:	11 24       	eor	r1, r1
    4948:	df 01       	movw	r26, r30
    494a:	a2 58       	subi	r26, 0x82	; 130
    494c:	bd 4f       	sbci	r27, 0xFD	; 253
    494e:	1d 92       	st	X+, r1
    4950:	1d 92       	st	X+, r1
    4952:	1d 92       	st	X+, r1
    4954:	1c 92       	st	X, r1
    4956:	13 97       	sbiw	r26, 0x03	; 3
		tcp_entry[index].src_port = 0;
    4958:	15 96       	adiw	r26, 0x05	; 5
    495a:	1c 92       	st	X, r1
    495c:	1e 92       	st	-X, r1
    495e:	14 97       	sbiw	r26, 0x04	; 4
		tcp_entry[index].dest_port = 0;
    4960:	17 96       	adiw	r26, 0x07	; 7
    4962:	1c 92       	st	X, r1
    4964:	1e 92       	st	-X, r1
    4966:	16 97       	sbiw	r26, 0x06	; 6
		tcp_entry[index].ack_counter = 0;
    4968:	18 96       	adiw	r26, 0x08	; 8
    496a:	1d 92       	st	X+, r1
    496c:	1d 92       	st	X+, r1
    496e:	1d 92       	st	X+, r1
    4970:	1c 92       	st	X, r1
    4972:	1b 97       	sbiw	r26, 0x0b	; 11
		tcp_entry[index].seq_counter = 0;
    4974:	1c 96       	adiw	r26, 0x0c	; 12
    4976:	1d 92       	st	X+, r1
    4978:	1d 92       	st	X+, r1
    497a:	1d 92       	st	X+, r1
    497c:	1c 92       	st	X, r1
    497e:	1f 97       	sbiw	r26, 0x0f	; 15
		tcp_entry[index].status = 0;
    4980:	50 96       	adiw	r26, 0x10	; 16
    4982:	1c 92       	st	X, r1
    4984:	50 97       	sbiw	r26, 0x10	; 16
		tcp_entry[index].app_status = 0;
    4986:	52 96       	adiw	r26, 0x12	; 18
    4988:	1c 92       	st	X, r1
    498a:	1e 92       	st	-X, r1
    498c:	51 97       	sbiw	r26, 0x11	; 17
		tcp_entry[index].time = 0;
    498e:	53 96       	adiw	r26, 0x13	; 19
    4990:	1c 92       	st	X, r1
		tcp_entry[index].first_ack = 0;
    4992:	ed 56       	subi	r30, 0x6D	; 109
    4994:	fd 4f       	sbci	r31, 0xFD	; 253
    4996:	80 81       	ld	r24, Z
    4998:	8e 7f       	andi	r24, 0xFE	; 254
    499a:	80 83       	st	Z, r24
    499c:	08 95       	ret

0000499e <tcp_timer_call>:
}

//----------------------------------------------------------------------------
//Verwaltung des TCP Timers
void tcp_timer_call (void)
{
    499e:	ef 92       	push	r14
    49a0:	ff 92       	push	r15
    49a2:	0f 93       	push	r16
    49a4:	1f 93       	push	r17
    49a6:	cf 93       	push	r28
    49a8:	df 93       	push	r29
    49aa:	c0 e0       	ldi	r28, 0x00	; 0
    49ac:	d0 e0       	ldi	r29, 0x00	; 0
	for (unsigned char index = 0;index<MAX_TCP_ENTRY;index++)
	{
		if (tcp_entry[index].time == 0)
    49ae:	16 e1       	ldi	r17, 0x16	; 22
		{
			if (tcp_entry[index].ip != 0)
			{
				tcp_entry[index].time = TCP_MAX_ENTRY_TIME;
    49b0:	03 e0       	ldi	r16, 0x03	; 3
				if ((tcp_entry[index].error_count++) > MAX_TCP_ERRORCOUNT)
				{
					DEBUG("Eintrag wird entfernt MAX_ERROR STACK:%i\r\n",index);
					ETH_INT_DISABLE;
					tcp_entry[index].status =  RST_FLAG | ACK_FLAG;
    49b2:	0f 2e       	mov	r0, r31
    49b4:	f4 e1       	ldi	r31, 0x14	; 20
    49b6:	ff 2e       	mov	r15, r31
    49b8:	f0 2d       	mov	r31, r0
//Verwaltung des TCP Timers
void tcp_timer_call (void)
{
	for (unsigned char index = 0;index<MAX_TCP_ENTRY;index++)
	{
		if (tcp_entry[index].time == 0)
    49ba:	9e 01       	movw	r18, r28
    49bc:	1c 9f       	mul	r17, r28
    49be:	f0 01       	movw	r30, r0
    49c0:	1d 9f       	mul	r17, r29
    49c2:	f0 0d       	add	r31, r0
    49c4:	11 24       	eor	r1, r1
    49c6:	e2 58       	subi	r30, 0x82	; 130
    49c8:	fd 4f       	sbci	r31, 0xFD	; 253
    49ca:	83 89       	ldd	r24, Z+19	; 0x13
    49cc:	81 11       	cpse	r24, r1
    49ce:	38 c0       	rjmp	.+112    	; 0x4a40 <tcp_timer_call+0xa2>
		{
			if (tcp_entry[index].ip != 0)
    49d0:	1c 9f       	mul	r17, r28
    49d2:	f0 01       	movw	r30, r0
    49d4:	1d 9f       	mul	r17, r29
    49d6:	f0 0d       	add	r31, r0
    49d8:	11 24       	eor	r1, r1
    49da:	e2 58       	subi	r30, 0x82	; 130
    49dc:	fd 4f       	sbci	r31, 0xFD	; 253
    49de:	80 81       	ld	r24, Z
    49e0:	91 81       	ldd	r25, Z+1	; 0x01
    49e2:	a2 81       	ldd	r26, Z+2	; 0x02
    49e4:	b3 81       	ldd	r27, Z+3	; 0x03
    49e6:	89 2b       	or	r24, r25
    49e8:	8a 2b       	or	r24, r26
    49ea:	8b 2b       	or	r24, r27
    49ec:	e9 f1       	breq	.+122    	; 0x4a68 <tcp_timer_call+0xca>
			{
				tcp_entry[index].time = TCP_MAX_ENTRY_TIME;
    49ee:	12 9f       	mul	r17, r18
    49f0:	f0 01       	movw	r30, r0
    49f2:	13 9f       	mul	r17, r19
    49f4:	f0 0d       	add	r31, r0
    49f6:	11 24       	eor	r1, r1
    49f8:	e2 58       	subi	r30, 0x82	; 130
    49fa:	fd 4f       	sbci	r31, 0xFD	; 253
    49fc:	03 8b       	std	Z+19, r16	; 0x13
				if ((tcp_entry[index].error_count++) > MAX_TCP_ERRORCOUNT)
    49fe:	84 89       	ldd	r24, Z+20	; 0x14
    4a00:	91 e0       	ldi	r25, 0x01	; 1
    4a02:	98 0f       	add	r25, r24
    4a04:	94 8b       	std	Z+20, r25	; 0x14
    4a06:	86 30       	cpi	r24, 0x06	; 6
    4a08:	b8 f0       	brcs	.+46     	; 0x4a38 <tcp_timer_call+0x9a>
				{
					DEBUG("Eintrag wird entfernt MAX_ERROR STACK:%i\r\n",index);
					ETH_INT_DISABLE;
    4a0a:	8b b7       	in	r24, 0x3b	; 59
    4a0c:	8f 7d       	andi	r24, 0xDF	; 223
    4a0e:	8b bf       	out	0x3b, r24	; 59
					tcp_entry[index].status =  RST_FLAG | ACK_FLAG;
    4a10:	12 9f       	mul	r17, r18
    4a12:	f0 01       	movw	r30, r0
    4a14:	13 9f       	mul	r17, r19
    4a16:	f0 0d       	add	r31, r0
    4a18:	11 24       	eor	r1, r1
    4a1a:	e2 58       	subi	r30, 0x82	; 130
    4a1c:	fd 4f       	sbci	r31, 0xFD	; 253
    4a1e:	f0 8a       	std	Z+16, r15	; 0x10
					create_new_tcp_packet(0,index);
    4a20:	6c 2f       	mov	r22, r28
    4a22:	80 e0       	ldi	r24, 0x00	; 0
    4a24:	90 e0       	ldi	r25, 0x00	; 0
    4a26:	0e 94 a7 23 	call	0x474e	; 0x474e <create_new_tcp_packet>
					ETH_INT_ENABLE;
    4a2a:	8b b7       	in	r24, 0x3b	; 59
    4a2c:	80 62       	ori	r24, 0x20	; 32
    4a2e:	8b bf       	out	0x3b, r24	; 59
					tcp_index_del(index);
    4a30:	8c 2f       	mov	r24, r28
    4a32:	0e 94 9e 24 	call	0x493c	; 0x493c <tcp_index_del>
    4a36:	18 c0       	rjmp	.+48     	; 0x4a68 <tcp_timer_call+0xca>
				}
				else
				{
					DEBUG("Packet wird erneut gesendet STACK:%i\r\n",index);
					find_and_start (index);
    4a38:	8c 2f       	mov	r24, r28
    4a3a:	0e 94 5b 24 	call	0x48b6	; 0x48b6 <find_and_start>
    4a3e:	14 c0       	rjmp	.+40     	; 0x4a68 <tcp_timer_call+0xca>
				}
			}
		}
		else
		{
			if (tcp_entry[index].time != TCP_TIME_OFF)
    4a40:	1c 9f       	mul	r17, r28
    4a42:	f0 01       	movw	r30, r0
    4a44:	1d 9f       	mul	r17, r29
    4a46:	f0 0d       	add	r31, r0
    4a48:	11 24       	eor	r1, r1
    4a4a:	e2 58       	subi	r30, 0x82	; 130
    4a4c:	fd 4f       	sbci	r31, 0xFD	; 253
    4a4e:	83 89       	ldd	r24, Z+19	; 0x13
    4a50:	8f 3f       	cpi	r24, 0xFF	; 255
    4a52:	51 f0       	breq	.+20     	; 0x4a68 <tcp_timer_call+0xca>
			{
				tcp_entry[index].time--;
    4a54:	12 9f       	mul	r17, r18
    4a56:	f0 01       	movw	r30, r0
    4a58:	13 9f       	mul	r17, r19
    4a5a:	f0 0d       	add	r31, r0
    4a5c:	11 24       	eor	r1, r1
    4a5e:	e2 58       	subi	r30, 0x82	; 130
    4a60:	fd 4f       	sbci	r31, 0xFD	; 253
    4a62:	83 89       	ldd	r24, Z+19	; 0x13
    4a64:	81 50       	subi	r24, 0x01	; 1
    4a66:	83 8b       	std	Z+19, r24	; 0x13
    4a68:	21 96       	adiw	r28, 0x01	; 1

//----------------------------------------------------------------------------
//Verwaltung des TCP Timers
void tcp_timer_call (void)
{
	for (unsigned char index = 0;index<MAX_TCP_ENTRY;index++)
    4a6a:	c5 30       	cpi	r28, 0x05	; 5
    4a6c:	d1 05       	cpc	r29, r1
    4a6e:	09 f0       	breq	.+2      	; 0x4a72 <tcp_timer_call+0xd4>
    4a70:	a4 cf       	rjmp	.-184    	; 0x49ba <tcp_timer_call+0x1c>
			{
				tcp_entry[index].time--;
			}
		}
	}
}
    4a72:	df 91       	pop	r29
    4a74:	cf 91       	pop	r28
    4a76:	1f 91       	pop	r17
    4a78:	0f 91       	pop	r16
    4a7a:	ff 90       	pop	r15
    4a7c:	ef 90       	pop	r14
    4a7e:	08 95       	ret

00004a80 <tcp_socket_process>:
}

//----------------------------------------------------------------------------
//Diese Routine verwaltet die TCP Ports
void tcp_socket_process(void)
{
    4a80:	cf 92       	push	r12
    4a82:	df 92       	push	r13
    4a84:	ef 92       	push	r14
    4a86:	ff 92       	push	r15
    4a88:	0f 93       	push	r16
    4a8a:	1f 93       	push	r17
    4a8c:	cf 93       	push	r28
    4a8e:	df 93       	push	r29

	struct IP_Header *ip;
	ip = (struct IP_Header *)&eth_buffer[IP_OFFSET];

	//TCP DestPort mit Portanwendungsliste durchfhren
	while (TCP_PORT_TABLE[port_index].port && TCP_PORT_TABLE[port_index].port!=(htons(tcp->TCP_DestPort)))
    4a90:	80 91 b1 01 	lds	r24, 0x01B1	; 0x8001b1 <TCP_PORT_TABLE>
    4a94:	90 91 b2 01 	lds	r25, 0x01B2	; 0x8001b2 <TCP_PORT_TABLE+0x1>
    4a98:	00 97       	sbiw	r24, 0x00	; 0
    4a9a:	09 f4       	brne	.+2      	; 0x4a9e <tcp_socket_process+0x1e>
    4a9c:	c9 c1       	rjmp	.+914    	; 0x4e30 <tcp_socket_process+0x3b0>

//----------------------------------------------------------------------------
//Converts integer variables to network Byte order
unsigned int htons(unsigned int val)
{
  return HTONS(val);
    4a9e:	40 91 94 03 	lds	r20, 0x0394	; 0x800394 <eth_buffer+0x24>
    4aa2:	50 91 95 03 	lds	r21, 0x0395	; 0x800395 <eth_buffer+0x25>
    4aa6:	54 27       	eor	r21, r20
    4aa8:	45 27       	eor	r20, r21
    4aaa:	54 27       	eor	r21, r20

	struct IP_Header *ip;
	ip = (struct IP_Header *)&eth_buffer[IP_OFFSET];

	//TCP DestPort mit Portanwendungsliste durchfhren
	while (TCP_PORT_TABLE[port_index].port && TCP_PORT_TABLE[port_index].port!=(htons(tcp->TCP_DestPort)))
    4aac:	84 17       	cp	r24, r20
    4aae:	95 07       	cpc	r25, r21
    4ab0:	a9 f0       	breq	.+42     	; 0x4adc <tcp_socket_process+0x5c>
    4ab2:	80 e0       	ldi	r24, 0x00	; 0
	{ 
		port_index++;
    4ab4:	8f 5f       	subi	r24, 0xFF	; 255

	struct IP_Header *ip;
	ip = (struct IP_Header *)&eth_buffer[IP_OFFSET];

	//TCP DestPort mit Portanwendungsliste durchfhren
	while (TCP_PORT_TABLE[port_index].port && TCP_PORT_TABLE[port_index].port!=(htons(tcp->TCP_DestPort)))
    4ab6:	c8 2f       	mov	r28, r24
    4ab8:	d0 e0       	ldi	r29, 0x00	; 0
    4aba:	fe 01       	movw	r30, r28
    4abc:	ee 0f       	add	r30, r30
    4abe:	ff 1f       	adc	r31, r31
    4ac0:	ee 0f       	add	r30, r30
    4ac2:	ff 1f       	adc	r31, r31
    4ac4:	ef 54       	subi	r30, 0x4F	; 79
    4ac6:	fe 4f       	sbci	r31, 0xFE	; 254
    4ac8:	20 81       	ld	r18, Z
    4aca:	31 81       	ldd	r19, Z+1	; 0x01
    4acc:	21 15       	cp	r18, r1
    4ace:	31 05       	cpc	r19, r1
    4ad0:	09 f4       	brne	.+2      	; 0x4ad4 <tcp_socket_process+0x54>
    4ad2:	ae c1       	rjmp	.+860    	; 0x4e30 <tcp_socket_process+0x3b0>
    4ad4:	24 17       	cp	r18, r20
    4ad6:	35 07       	cpc	r19, r21
    4ad8:	69 f7       	brne	.-38     	; 0x4ab4 <tcp_socket_process+0x34>
    4ada:	02 c0       	rjmp	.+4      	; 0x4ae0 <tcp_socket_process+0x60>
    4adc:	c0 e0       	ldi	r28, 0x00	; 0
    4ade:	d0 e0       	ldi	r29, 0x00	; 0
		port_index++;
	}
	
	// Wenn index zu gross, dann beenden keine vorhandene Anwendung fr Port
	//Geht von einem Client was aus? Will eine Clientanwendung einen Port ffnen?
	if (!TCP_PORT_TABLE[port_index].port)
    4ae0:	45 2b       	or	r20, r21
    4ae2:	09 f4       	brne	.+2      	; 0x4ae6 <tcp_socket_process+0x66>
    4ae4:	a5 c1       	rjmp	.+842    	; 0x4e30 <tcp_socket_process+0x3b0>
		DEBUG("TCP Keine Anwendung gefunden!\r\n");
		return;
	}	
	
	//Server ffnet Port
	if((tcp->TCP_HdrFlags & SYN_FLAG) && (tcp->TCP_HdrFlags & ACK_FLAG))
    4ae6:	80 91 9f 03 	lds	r24, 0x039F	; 0x80039f <eth_buffer+0x2f>
    4aea:	98 2f       	mov	r25, r24
    4aec:	92 71       	andi	r25, 0x12	; 18
    4aee:	92 31       	cpi	r25, 0x12	; 18
    4af0:	c9 f5       	brne	.+114    	; 0x4b64 <tcp_socket_process+0xe4>
	{	
		//Nimmt Eintrag auf da es eine Client - Anwendung fr den Port gibt
		tcp_entry_add (eth_buffer);
    4af2:	80 e7       	ldi	r24, 0x70	; 112
    4af4:	93 e0       	ldi	r25, 0x03	; 3
    4af6:	0e 94 39 22 	call	0x4472	; 0x4472 <tcp_entry_add>
		//War der Eintrag erfolgreich?
		index = tcp_entry_search (ip->IP_Srcaddr,tcp->TCP_SrcPort);
    4afa:	e0 e7       	ldi	r30, 0x70	; 112
    4afc:	f3 e0       	ldi	r31, 0x03	; 3
    4afe:	42 a1       	ldd	r20, Z+34	; 0x22
    4b00:	53 a1       	ldd	r21, Z+35	; 0x23
    4b02:	62 8d       	ldd	r22, Z+26	; 0x1a
    4b04:	73 8d       	ldd	r23, Z+27	; 0x1b
    4b06:	84 8d       	ldd	r24, Z+28	; 0x1c
    4b08:	95 8d       	ldd	r25, Z+29	; 0x1d
    4b0a:	0e 94 3b 23 	call	0x4676	; 0x4676 <tcp_entry_search>
    4b0e:	c8 2f       	mov	r28, r24
		if (index >= MAX_TCP_ENTRY) //Eintrag gefunden wenn ungleich
    4b10:	85 30       	cpi	r24, 0x05	; 5
    4b12:	08 f0       	brcs	.+2      	; 0x4b16 <tcp_socket_process+0x96>
    4b14:	8d c1       	rjmp	.+794    	; 0x4e30 <tcp_socket_process+0x3b0>
		{
			DEBUG("TCP Eintrag nicht erfolgreich!\r\n");
			return;
		}
	
		tcp_entry[index].time = MAX_TCP_PORT_OPEN_TIME;
    4b16:	26 e1       	ldi	r18, 0x16	; 22
    4b18:	82 9f       	mul	r24, r18
    4b1a:	80 01       	movw	r16, r0
    4b1c:	11 24       	eor	r1, r1
    4b1e:	02 58       	subi	r16, 0x82	; 130
    4b20:	1d 4f       	sbci	r17, 0xFD	; 253
    4b22:	8e e1       	ldi	r24, 0x1E	; 30
    4b24:	f8 01       	movw	r30, r16
    4b26:	83 8b       	std	Z+19, r24	; 0x13
		DEBUG("TCP Port wurde vom Server geffnet STACK:%i\r\n",index);
		result32 = htons32(tcp_entry[index].seq_counter) + 1;
    4b28:	64 85       	ldd	r22, Z+12	; 0x0c
    4b2a:	75 85       	ldd	r23, Z+13	; 0x0d
    4b2c:	86 85       	ldd	r24, Z+14	; 0x0e
    4b2e:	97 85       	ldd	r25, Z+15	; 0x0f
    4b30:	0e 94 6d 1d 	call	0x3ada	; 0x3ada <htons32>
		tcp_entry[index].seq_counter = htons32(result32);
    4b34:	6f 5f       	subi	r22, 0xFF	; 255
    4b36:	7f 4f       	sbci	r23, 0xFF	; 255
    4b38:	8f 4f       	sbci	r24, 0xFF	; 255
    4b3a:	9f 4f       	sbci	r25, 0xFF	; 255
    4b3c:	0e 94 6d 1d 	call	0x3ada	; 0x3ada <htons32>
    4b40:	f8 01       	movw	r30, r16
    4b42:	64 87       	std	Z+12, r22	; 0x0c
    4b44:	75 87       	std	Z+13, r23	; 0x0d
    4b46:	86 87       	std	Z+14, r24	; 0x0e
    4b48:	97 87       	std	Z+15, r25	; 0x0f
		tcp_entry[index].status =  ACK_FLAG;
    4b4a:	80 e1       	ldi	r24, 0x10	; 16
    4b4c:	80 8b       	std	Z+16, r24	; 0x10
		create_new_tcp_packet(0,index);
    4b4e:	6c 2f       	mov	r22, r28
    4b50:	80 e0       	ldi	r24, 0x00	; 0
    4b52:	90 e0       	ldi	r25, 0x00	; 0
    4b54:	0e 94 a7 23 	call	0x474e	; 0x474e <create_new_tcp_packet>
		//Server Port wurde geffnet App. kann nun daten senden!
		tcp_entry[index].app_status = 1;
    4b58:	81 e0       	ldi	r24, 0x01	; 1
    4b5a:	90 e0       	ldi	r25, 0x00	; 0
    4b5c:	f8 01       	movw	r30, r16
    4b5e:	92 8b       	std	Z+18, r25	; 0x12
    4b60:	81 8b       	std	Z+17, r24	; 0x11
		return;
    4b62:	66 c1       	rjmp	.+716    	; 0x4e30 <tcp_socket_process+0x3b0>
	}
	
	//Verbindungsaufbau nicht fr Anwendung bestimmt
	if(tcp->TCP_HdrFlags == SYN_FLAG)
    4b64:	82 30       	cpi	r24, 0x02	; 2
    4b66:	f9 f4       	brne	.+62     	; 0x4ba6 <tcp_socket_process+0x126>
	{
		//Nimmt Eintrag auf da es eine Server - Anwendung fr den Port gibt
		tcp_entry_add (eth_buffer);
    4b68:	80 e7       	ldi	r24, 0x70	; 112
    4b6a:	93 e0       	ldi	r25, 0x03	; 3
    4b6c:	0e 94 39 22 	call	0x4472	; 0x4472 <tcp_entry_add>
		//War der Eintrag erfolgreich?
		index = tcp_entry_search (ip->IP_Srcaddr,tcp->TCP_SrcPort);
    4b70:	e0 e7       	ldi	r30, 0x70	; 112
    4b72:	f3 e0       	ldi	r31, 0x03	; 3
    4b74:	42 a1       	ldd	r20, Z+34	; 0x22
    4b76:	53 a1       	ldd	r21, Z+35	; 0x23
    4b78:	62 8d       	ldd	r22, Z+26	; 0x1a
    4b7a:	73 8d       	ldd	r23, Z+27	; 0x1b
    4b7c:	84 8d       	ldd	r24, Z+28	; 0x1c
    4b7e:	95 8d       	ldd	r25, Z+29	; 0x1d
    4b80:	0e 94 3b 23 	call	0x4676	; 0x4676 <tcp_entry_search>
		if (index >= MAX_TCP_ENTRY) //Eintrag gefunden wenn ungleich
    4b84:	85 30       	cpi	r24, 0x05	; 5
    4b86:	08 f0       	brcs	.+2      	; 0x4b8a <tcp_socket_process+0x10a>
    4b88:	53 c1       	rjmp	.+678    	; 0x4e30 <tcp_socket_process+0x3b0>
			return;
		}
	
		DEBUG("TCP New SERVER Connection! STACK:%i\r\n",index);
		
		tcp_entry[index].status =  ACK_FLAG | SYN_FLAG;
    4b8a:	26 e1       	ldi	r18, 0x16	; 22
    4b8c:	82 9f       	mul	r24, r18
    4b8e:	f0 01       	movw	r30, r0
    4b90:	11 24       	eor	r1, r1
    4b92:	e2 58       	subi	r30, 0x82	; 130
    4b94:	fd 4f       	sbci	r31, 0xFD	; 253
    4b96:	92 e1       	ldi	r25, 0x12	; 18
    4b98:	90 8b       	std	Z+16, r25	; 0x10
		create_new_tcp_packet(0,index);
    4b9a:	68 2f       	mov	r22, r24
    4b9c:	80 e0       	ldi	r24, 0x00	; 0
    4b9e:	90 e0       	ldi	r25, 0x00	; 0
    4ba0:	0e 94 a7 23 	call	0x474e	; 0x474e <create_new_tcp_packet>
		return;
    4ba4:	45 c1       	rjmp	.+650    	; 0x4e30 <tcp_socket_process+0x3b0>
	}

	//Packeteintrag im TCP Stack finden!
	index = tcp_entry_search (ip->IP_Srcaddr,tcp->TCP_SrcPort);
    4ba6:	e0 e7       	ldi	r30, 0x70	; 112
    4ba8:	f3 e0       	ldi	r31, 0x03	; 3
    4baa:	42 a1       	ldd	r20, Z+34	; 0x22
    4bac:	53 a1       	ldd	r21, Z+35	; 0x23
    4bae:	62 8d       	ldd	r22, Z+26	; 0x1a
    4bb0:	73 8d       	ldd	r23, Z+27	; 0x1b
    4bb2:	84 8d       	ldd	r24, Z+28	; 0x1c
    4bb4:	95 8d       	ldd	r25, Z+29	; 0x1d
    4bb6:	0e 94 3b 23 	call	0x4676	; 0x4676 <tcp_entry_search>
    4bba:	18 2f       	mov	r17, r24
	
	if (index >= MAX_TCP_ENTRY) //Eintrag nicht gefunden
    4bbc:	85 30       	cpi	r24, 0x05	; 5
    4bbe:	b8 f1       	brcs	.+110    	; 0x4c2e <tcp_socket_process+0x1ae>
	{
		DEBUG("TCP Eintrag nicht gefunden\r\n");
		
		if(tcp->TCP_HdrFlags & FIN_FLAG || tcp->TCP_HdrFlags & RST_FLAG)
    4bc0:	80 91 9f 03 	lds	r24, 0x039F	; 0x80039f <eth_buffer+0x2f>
    4bc4:	85 70       	andi	r24, 0x05	; 5
    4bc6:	09 f4       	brne	.+2      	; 0x4bca <tcp_socket_process+0x14a>
    4bc8:	33 c1       	rjmp	.+614    	; 0x4e30 <tcp_socket_process+0x3b0>
		{
			tcp_entry_add (eth_buffer);//Temporrer Indexplatz	
    4bca:	80 e7       	ldi	r24, 0x70	; 112
    4bcc:	93 e0       	ldi	r25, 0x03	; 3
    4bce:	0e 94 39 22 	call	0x4472	; 0x4472 <tcp_entry_add>
			result32 = htons32(tcp_entry[index].seq_counter) + 1;
    4bd2:	e1 2e       	mov	r14, r17
    4bd4:	f1 2c       	mov	r15, r1
    4bd6:	36 e1       	ldi	r19, 0x16	; 22
    4bd8:	13 9f       	mul	r17, r19
    4bda:	e0 01       	movw	r28, r0
    4bdc:	11 24       	eor	r1, r1
    4bde:	c2 58       	subi	r28, 0x82	; 130
    4be0:	dd 4f       	sbci	r29, 0xFD	; 253
    4be2:	6c 85       	ldd	r22, Y+12	; 0x0c
    4be4:	7d 85       	ldd	r23, Y+13	; 0x0d
    4be6:	8e 85       	ldd	r24, Y+14	; 0x0e
    4be8:	9f 85       	ldd	r25, Y+15	; 0x0f
    4bea:	0e 94 6d 1d 	call	0x3ada	; 0x3ada <htons32>
			tcp_entry[index].seq_counter = htons32(result32);
    4bee:	6f 5f       	subi	r22, 0xFF	; 255
    4bf0:	7f 4f       	sbci	r23, 0xFF	; 255
    4bf2:	8f 4f       	sbci	r24, 0xFF	; 255
    4bf4:	9f 4f       	sbci	r25, 0xFF	; 255
    4bf6:	0e 94 6d 1d 	call	0x3ada	; 0x3ada <htons32>
    4bfa:	6c 87       	std	Y+12, r22	; 0x0c
    4bfc:	7d 87       	std	Y+13, r23	; 0x0d
    4bfe:	8e 87       	std	Y+14, r24	; 0x0e
    4c00:	9f 87       	std	Y+15, r25	; 0x0f
			
			if (tcp_entry[index].status & FIN_FLAG)
    4c02:	88 89       	ldd	r24, Y+16	; 0x10
    4c04:	80 ff       	sbrs	r24, 0
    4c06:	0f c0       	rjmp	.+30     	; 0x4c26 <tcp_socket_process+0x1a6>
			{
				tcp_entry[index].status = ACK_FLAG;
    4c08:	86 e1       	ldi	r24, 0x16	; 22
    4c0a:	8e 9d       	mul	r24, r14
    4c0c:	f0 01       	movw	r30, r0
    4c0e:	8f 9d       	mul	r24, r15
    4c10:	f0 0d       	add	r31, r0
    4c12:	11 24       	eor	r1, r1
    4c14:	e2 58       	subi	r30, 0x82	; 130
    4c16:	fd 4f       	sbci	r31, 0xFD	; 253
    4c18:	80 e1       	ldi	r24, 0x10	; 16
    4c1a:	80 8b       	std	Z+16, r24	; 0x10
				create_new_tcp_packet(0,index);
    4c1c:	61 2f       	mov	r22, r17
    4c1e:	80 e0       	ldi	r24, 0x00	; 0
    4c20:	90 e0       	ldi	r25, 0x00	; 0
    4c22:	0e 94 a7 23 	call	0x474e	; 0x474e <create_new_tcp_packet>
			}
			tcp_index_del(index);
    4c26:	81 2f       	mov	r24, r17
    4c28:	0e 94 9e 24 	call	0x493c	; 0x493c <tcp_index_del>
			DEBUG("TCP-Stack Eintrag gelscht! STACK:%i\r\n",index);
			return;
    4c2c:	01 c1       	rjmp	.+514    	; 0x4e30 <tcp_socket_process+0x3b0>
		return;
	}


	//Refresh des Eintrages
	tcp_entry_add (eth_buffer);
    4c2e:	80 e7       	ldi	r24, 0x70	; 112
    4c30:	93 e0       	ldi	r25, 0x03	; 3
    4c32:	0e 94 39 22 	call	0x4472	; 0x4472 <tcp_entry_add>
	
	//Host will verbindung beenden!
	if(tcp_entry[index].status & FIN_FLAG || tcp_entry[index].status & RST_FLAG)
    4c36:	c1 2e       	mov	r12, r17
    4c38:	d1 2c       	mov	r13, r1
    4c3a:	86 e1       	ldi	r24, 0x16	; 22
    4c3c:	18 9f       	mul	r17, r24
    4c3e:	f0 01       	movw	r30, r0
    4c40:	11 24       	eor	r1, r1
    4c42:	e2 58       	subi	r30, 0x82	; 130
    4c44:	fd 4f       	sbci	r31, 0xFD	; 253
    4c46:	80 89       	ldd	r24, Z+16	; 0x10
    4c48:	80 fd       	sbrc	r24, 0
    4c4a:	0b c0       	rjmp	.+22     	; 0x4c62 <tcp_socket_process+0x1e2>
    4c4c:	86 e1       	ldi	r24, 0x16	; 22
    4c4e:	8c 9d       	mul	r24, r12
    4c50:	f0 01       	movw	r30, r0
    4c52:	8d 9d       	mul	r24, r13
    4c54:	f0 0d       	add	r31, r0
    4c56:	11 24       	eor	r1, r1
    4c58:	e2 58       	subi	r30, 0x82	; 130
    4c5a:	fd 4f       	sbci	r31, 0xFD	; 253
    4c5c:	80 89       	ldd	r24, Z+16	; 0x10
    4c5e:	82 ff       	sbrs	r24, 2
    4c60:	34 c0       	rjmp	.+104    	; 0x4cca <tcp_socket_process+0x24a>
	{	
		result32 = htons32(tcp_entry[index].seq_counter) + 1;
    4c62:	26 e1       	ldi	r18, 0x16	; 22
    4c64:	2c 9d       	mul	r18, r12
    4c66:	c0 01       	movw	r24, r0
    4c68:	2d 9d       	mul	r18, r13
    4c6a:	90 0d       	add	r25, r0
    4c6c:	11 24       	eor	r1, r1
    4c6e:	fc 01       	movw	r30, r24
    4c70:	e2 58       	subi	r30, 0x82	; 130
    4c72:	fd 4f       	sbci	r31, 0xFD	; 253
    4c74:	7f 01       	movw	r14, r30
    4c76:	64 85       	ldd	r22, Z+12	; 0x0c
    4c78:	75 85       	ldd	r23, Z+13	; 0x0d
    4c7a:	86 85       	ldd	r24, Z+14	; 0x0e
    4c7c:	97 85       	ldd	r25, Z+15	; 0x0f
    4c7e:	0e 94 6d 1d 	call	0x3ada	; 0x3ada <htons32>
		tcp_entry[index].seq_counter = htons32(result32);
    4c82:	6f 5f       	subi	r22, 0xFF	; 255
    4c84:	7f 4f       	sbci	r23, 0xFF	; 255
    4c86:	8f 4f       	sbci	r24, 0xFF	; 255
    4c88:	9f 4f       	sbci	r25, 0xFF	; 255
    4c8a:	0e 94 6d 1d 	call	0x3ada	; 0x3ada <htons32>
    4c8e:	f7 01       	movw	r30, r14
    4c90:	64 87       	std	Z+12, r22	; 0x0c
    4c92:	75 87       	std	Z+13, r23	; 0x0d
    4c94:	86 87       	std	Z+14, r24	; 0x0e
    4c96:	97 87       	std	Z+15, r25	; 0x0f
		
		if (tcp_entry[index].status & FIN_FLAG)
    4c98:	80 89       	ldd	r24, Z+16	; 0x10
    4c9a:	80 ff       	sbrs	r24, 0
    4c9c:	12 c0       	rjmp	.+36     	; 0x4cc2 <tcp_socket_process+0x242>
		{
			// Ende der Anwendung mitteilen !
			TCP_PORT_TABLE[port_index].fp(index);
    4c9e:	cc 0f       	add	r28, r28
    4ca0:	dd 1f       	adc	r29, r29
    4ca2:	cc 0f       	add	r28, r28
    4ca4:	dd 1f       	adc	r29, r29
    4ca6:	cf 54       	subi	r28, 0x4F	; 79
    4ca8:	de 4f       	sbci	r29, 0xFE	; 254
    4caa:	ea 81       	ldd	r30, Y+2	; 0x02
    4cac:	fb 81       	ldd	r31, Y+3	; 0x03
    4cae:	81 2f       	mov	r24, r17
    4cb0:	09 95       	icall

			tcp_entry[index].status = ACK_FLAG | FIN_FLAG;
    4cb2:	f7 01       	movw	r30, r14
    4cb4:	81 e1       	ldi	r24, 0x11	; 17
    4cb6:	80 8b       	std	Z+16, r24	; 0x10
			create_new_tcp_packet(0,index);
    4cb8:	61 2f       	mov	r22, r17
    4cba:	80 e0       	ldi	r24, 0x00	; 0
    4cbc:	90 e0       	ldi	r25, 0x00	; 0
    4cbe:	0e 94 a7 23 	call	0x474e	; 0x474e <create_new_tcp_packet>
		}
		tcp_index_del(index);
    4cc2:	81 2f       	mov	r24, r17
    4cc4:	0e 94 9e 24 	call	0x493c	; 0x493c <tcp_index_del>
		DEBUG("TCP-Stack Eintrag gelscht! STACK:%i\r\n",index);
		return;
    4cc8:	b3 c0       	rjmp	.+358    	; 0x4e30 <tcp_socket_process+0x3b0>
	}
	
	//Daten fr Anwendung PSH-Flag gesetzt?
	if((tcp_entry[index].status & PSH_FLAG) && 
    4cca:	86 e1       	ldi	r24, 0x16	; 22
    4ccc:	8c 9d       	mul	r24, r12
    4cce:	f0 01       	movw	r30, r0
    4cd0:	8d 9d       	mul	r24, r13
    4cd2:	f0 0d       	add	r31, r0
    4cd4:	11 24       	eor	r1, r1
    4cd6:	e2 58       	subi	r30, 0x82	; 130
    4cd8:	fd 4f       	sbci	r31, 0xFD	; 253
    4cda:	80 89       	ldd	r24, Z+16	; 0x10
    4cdc:	83 ff       	sbrs	r24, 3
    4cde:	3c c0       	rjmp	.+120    	; 0x4d58 <tcp_socket_process+0x2d8>
		(tcp_entry[index].status & ACK_FLAG))
    4ce0:	86 e1       	ldi	r24, 0x16	; 22
    4ce2:	8c 9d       	mul	r24, r12
    4ce4:	f0 01       	movw	r30, r0
    4ce6:	8d 9d       	mul	r24, r13
    4ce8:	f0 0d       	add	r31, r0
    4cea:	11 24       	eor	r1, r1
    4cec:	e2 58       	subi	r30, 0x82	; 130
    4cee:	fd 4f       	sbci	r31, 0xFD	; 253
    4cf0:	80 89       	ldd	r24, Z+16	; 0x10
		DEBUG("TCP-Stack Eintrag gelscht! STACK:%i\r\n",index);
		return;
	}
	
	//Daten fr Anwendung PSH-Flag gesetzt?
	if((tcp_entry[index].status & PSH_FLAG) && 
    4cf2:	84 ff       	sbrs	r24, 4
    4cf4:	31 c0       	rjmp	.+98     	; 0x4d58 <tcp_socket_process+0x2d8>
		(tcp_entry[index].status & ACK_FLAG))
	{
		//zugehrige Anwendung ausfhren
		if(tcp_entry[index].app_status < 0xFFFE) tcp_entry[index].app_status++;	
    4cf6:	86 e1       	ldi	r24, 0x16	; 22
    4cf8:	8c 9d       	mul	r24, r12
    4cfa:	f0 01       	movw	r30, r0
    4cfc:	8d 9d       	mul	r24, r13
    4cfe:	f0 0d       	add	r31, r0
    4d00:	11 24       	eor	r1, r1
    4d02:	e2 58       	subi	r30, 0x82	; 130
    4d04:	fd 4f       	sbci	r31, 0xFD	; 253
    4d06:	81 89       	ldd	r24, Z+17	; 0x11
    4d08:	92 89       	ldd	r25, Z+18	; 0x12
    4d0a:	8e 3f       	cpi	r24, 0xFE	; 254
    4d0c:	9f 4f       	sbci	r25, 0xFF	; 255
    4d0e:	68 f4       	brcc	.+26     	; 0x4d2a <tcp_socket_process+0x2aa>
    4d10:	86 e1       	ldi	r24, 0x16	; 22
    4d12:	8c 9d       	mul	r24, r12
    4d14:	f0 01       	movw	r30, r0
    4d16:	8d 9d       	mul	r24, r13
    4d18:	f0 0d       	add	r31, r0
    4d1a:	11 24       	eor	r1, r1
    4d1c:	e2 58       	subi	r30, 0x82	; 130
    4d1e:	fd 4f       	sbci	r31, 0xFD	; 253
    4d20:	81 89       	ldd	r24, Z+17	; 0x11
    4d22:	92 89       	ldd	r25, Z+18	; 0x12
    4d24:	01 96       	adiw	r24, 0x01	; 1
    4d26:	92 8b       	std	Z+18, r25	; 0x12
    4d28:	81 8b       	std	Z+17, r24	; 0x11
		tcp_entry[index].status =  ACK_FLAG | PSH_FLAG;
    4d2a:	86 e1       	ldi	r24, 0x16	; 22
    4d2c:	8c 9d       	mul	r24, r12
    4d2e:	f0 01       	movw	r30, r0
    4d30:	8d 9d       	mul	r24, r13
    4d32:	f0 0d       	add	r31, r0
    4d34:	11 24       	eor	r1, r1
    4d36:	e2 58       	subi	r30, 0x82	; 130
    4d38:	fd 4f       	sbci	r31, 0xFD	; 253
    4d3a:	88 e1       	ldi	r24, 0x18	; 24
    4d3c:	80 8b       	std	Z+16, r24	; 0x10
		TCP_PORT_TABLE[port_index].fp(index); 
    4d3e:	fe 01       	movw	r30, r28
    4d40:	ee 0f       	add	r30, r30
    4d42:	ff 1f       	adc	r31, r31
    4d44:	ee 0f       	add	r30, r30
    4d46:	ff 1f       	adc	r31, r31
    4d48:	ef 54       	subi	r30, 0x4F	; 79
    4d4a:	fe 4f       	sbci	r31, 0xFE	; 254
    4d4c:	02 80       	ldd	r0, Z+2	; 0x02
    4d4e:	f3 81       	ldd	r31, Z+3	; 0x03
    4d50:	e0 2d       	mov	r30, r0
    4d52:	81 2f       	mov	r24, r17
    4d54:	09 95       	icall
		return;
    4d56:	6c c0       	rjmp	.+216    	; 0x4e30 <tcp_socket_process+0x3b0>
	}
	
	//Empfangene Packet wurde besttigt keine Daten fr Anwendung
	//z.B. nach Verbindungsaufbau (SYN-PACKET)
	if((tcp_entry[index].status & ACK_FLAG) && (tcp_entry[index].first_ack == 0))
    4d58:	86 e1       	ldi	r24, 0x16	; 22
    4d5a:	8c 9d       	mul	r24, r12
    4d5c:	f0 01       	movw	r30, r0
    4d5e:	8d 9d       	mul	r24, r13
    4d60:	f0 0d       	add	r31, r0
    4d62:	11 24       	eor	r1, r1
    4d64:	e2 58       	subi	r30, 0x82	; 130
    4d66:	fd 4f       	sbci	r31, 0xFD	; 253
    4d68:	80 89       	ldd	r24, Z+16	; 0x10
    4d6a:	84 ff       	sbrs	r24, 4
    4d6c:	17 c0       	rjmp	.+46     	; 0x4d9c <tcp_socket_process+0x31c>
    4d6e:	86 e1       	ldi	r24, 0x16	; 22
    4d70:	8c 9d       	mul	r24, r12
    4d72:	f0 01       	movw	r30, r0
    4d74:	8d 9d       	mul	r24, r13
    4d76:	f0 0d       	add	r31, r0
    4d78:	11 24       	eor	r1, r1
    4d7a:	ed 56       	subi	r30, 0x6D	; 109
    4d7c:	fd 4f       	sbci	r31, 0xFD	; 253
    4d7e:	80 81       	ld	r24, Z
    4d80:	80 fd       	sbrc	r24, 0
    4d82:	0c c0       	rjmp	.+24     	; 0x4d9c <tcp_socket_process+0x31c>
	{
		//keine weitere Aktion
		tcp_entry[index].first_ack = 1;
    4d84:	86 e1       	ldi	r24, 0x16	; 22
    4d86:	8c 9d       	mul	r24, r12
    4d88:	f0 01       	movw	r30, r0
    4d8a:	8d 9d       	mul	r24, r13
    4d8c:	f0 0d       	add	r31, r0
    4d8e:	11 24       	eor	r1, r1
    4d90:	ed 56       	subi	r30, 0x6D	; 109
    4d92:	fd 4f       	sbci	r31, 0xFD	; 253
    4d94:	80 81       	ld	r24, Z
    4d96:	81 60       	ori	r24, 0x01	; 1
    4d98:	80 83       	st	Z, r24
		return;
    4d9a:	4a c0       	rjmp	.+148    	; 0x4e30 <tcp_socket_process+0x3b0>
	}
	
	//Empfangsbesttigung fr ein von der Anwendung gesendetes Packet (ENDE)
	if((tcp_entry[index].status & ACK_FLAG) && (tcp_entry[index].first_ack == 1))
    4d9c:	86 e1       	ldi	r24, 0x16	; 22
    4d9e:	8c 9d       	mul	r24, r12
    4da0:	f0 01       	movw	r30, r0
    4da2:	8d 9d       	mul	r24, r13
    4da4:	f0 0d       	add	r31, r0
    4da6:	11 24       	eor	r1, r1
    4da8:	e2 58       	subi	r30, 0x82	; 130
    4daa:	fd 4f       	sbci	r31, 0xFD	; 253
    4dac:	80 89       	ldd	r24, Z+16	; 0x10
    4dae:	84 ff       	sbrs	r24, 4
    4db0:	3f c0       	rjmp	.+126    	; 0x4e30 <tcp_socket_process+0x3b0>
    4db2:	86 e1       	ldi	r24, 0x16	; 22
    4db4:	8c 9d       	mul	r24, r12
    4db6:	f0 01       	movw	r30, r0
    4db8:	8d 9d       	mul	r24, r13
    4dba:	f0 0d       	add	r31, r0
    4dbc:	11 24       	eor	r1, r1
    4dbe:	ed 56       	subi	r30, 0x6D	; 109
    4dc0:	fd 4f       	sbci	r31, 0xFD	; 253
    4dc2:	80 81       	ld	r24, Z
    4dc4:	80 ff       	sbrs	r24, 0
    4dc6:	34 c0       	rjmp	.+104    	; 0x4e30 <tcp_socket_process+0x3b0>
	{
		//ACK fr Verbindungs abbau
		if(tcp_entry[index].app_status == 0xFFFF)
    4dc8:	86 e1       	ldi	r24, 0x16	; 22
    4dca:	8c 9d       	mul	r24, r12
    4dcc:	f0 01       	movw	r30, r0
    4dce:	8d 9d       	mul	r24, r13
    4dd0:	f0 0d       	add	r31, r0
    4dd2:	11 24       	eor	r1, r1
    4dd4:	e2 58       	subi	r30, 0x82	; 130
    4dd6:	fd 4f       	sbci	r31, 0xFD	; 253
    4dd8:	81 89       	ldd	r24, Z+17	; 0x11
    4dda:	92 89       	ldd	r25, Z+18	; 0x12
    4ddc:	01 96       	adiw	r24, 0x01	; 1
    4dde:	41 f1       	breq	.+80     	; 0x4e30 <tcp_socket_process+0x3b0>
		{
			return;
		}

		//zugehrige Anwendung ausfhren
		tcp_entry[index].status =  ACK_FLAG;
    4de0:	86 e1       	ldi	r24, 0x16	; 22
    4de2:	8c 9d       	mul	r24, r12
    4de4:	f0 01       	movw	r30, r0
    4de6:	8d 9d       	mul	r24, r13
    4de8:	f0 0d       	add	r31, r0
    4dea:	11 24       	eor	r1, r1
    4dec:	e2 58       	subi	r30, 0x82	; 130
    4dee:	fd 4f       	sbci	r31, 0xFD	; 253
    4df0:	80 e1       	ldi	r24, 0x10	; 16
    4df2:	80 8b       	std	Z+16, r24	; 0x10
		if(tcp_entry[index].app_status < 0xFFFE) tcp_entry[index].app_status++;
    4df4:	81 89       	ldd	r24, Z+17	; 0x11
    4df6:	92 89       	ldd	r25, Z+18	; 0x12
    4df8:	8e 3f       	cpi	r24, 0xFE	; 254
    4dfa:	9f 4f       	sbci	r25, 0xFF	; 255
    4dfc:	68 f4       	brcc	.+26     	; 0x4e18 <tcp_socket_process+0x398>
    4dfe:	86 e1       	ldi	r24, 0x16	; 22
    4e00:	8c 9d       	mul	r24, r12
    4e02:	f0 01       	movw	r30, r0
    4e04:	8d 9d       	mul	r24, r13
    4e06:	f0 0d       	add	r31, r0
    4e08:	11 24       	eor	r1, r1
    4e0a:	e2 58       	subi	r30, 0x82	; 130
    4e0c:	fd 4f       	sbci	r31, 0xFD	; 253
    4e0e:	81 89       	ldd	r24, Z+17	; 0x11
    4e10:	92 89       	ldd	r25, Z+18	; 0x12
    4e12:	01 96       	adiw	r24, 0x01	; 1
    4e14:	92 8b       	std	Z+18, r25	; 0x12
    4e16:	81 8b       	std	Z+17, r24	; 0x11
		TCP_PORT_TABLE[port_index].fp(index);
    4e18:	fe 01       	movw	r30, r28
    4e1a:	ee 0f       	add	r30, r30
    4e1c:	ff 1f       	adc	r31, r31
    4e1e:	ee 0f       	add	r30, r30
    4e20:	ff 1f       	adc	r31, r31
    4e22:	ef 54       	subi	r30, 0x4F	; 79
    4e24:	fe 4f       	sbci	r31, 0xFE	; 254
    4e26:	02 80       	ldd	r0, Z+2	; 0x02
    4e28:	f3 81       	ldd	r31, Z+3	; 0x03
    4e2a:	e0 2d       	mov	r30, r0
    4e2c:	81 2f       	mov	r24, r17
    4e2e:	09 95       	icall
		return;
	}
	return;
}
    4e30:	df 91       	pop	r29
    4e32:	cf 91       	pop	r28
    4e34:	1f 91       	pop	r17
    4e36:	0f 91       	pop	r16
    4e38:	ff 90       	pop	r15
    4e3a:	ef 90       	pop	r14
    4e3c:	df 90       	pop	r13
    4e3e:	cf 90       	pop	r12
    4e40:	08 95       	ret

00004e42 <check_packet>:
	return;
}
//----------------------------------------------------------------------------
//Check Packet and call Stack for TCP or UDP
void check_packet (void)
{
    4e42:	ef 92       	push	r14
    4e44:	ff 92       	push	r15
    4e46:	0f 93       	push	r16
    4e48:	1f 93       	push	r17
    ethernet = (struct Ethernet_Header *)&eth_buffer[ETHER_OFFSET];
    ip       = (struct IP_Header       *)&eth_buffer[IP_OFFSET];
    tcp      = (struct TCP_Header      *)&eth_buffer[TCP_OFFSET];
    icmp     = (struct ICMP_Header     *)&eth_buffer[ICMP_OFFSET];
    
    if(ethernet->EnetPacketType == HTONS(0x0806) )     //ARP
    4e4a:	80 91 7c 03 	lds	r24, 0x037C	; 0x80037c <eth_buffer+0xc>
    4e4e:	90 91 7d 03 	lds	r25, 0x037D	; 0x80037d <eth_buffer+0xd>
    4e52:	88 30       	cpi	r24, 0x08	; 8
    4e54:	26 e0       	ldi	r18, 0x06	; 6
    4e56:	92 07       	cpc	r25, r18
    4e58:	19 f4       	brne	.+6      	; 0x4e60 <check_packet+0x1e>
    {
        arp_reply(); // check arp packet request/reply
    4e5a:	0e 94 c0 20 	call	0x4180	; 0x4180 <arp_reply>
    4e5e:	74 c0       	rjmp	.+232    	; 0x4f48 <check_packet+0x106>
    }
    else
    {
        if( ethernet->EnetPacketType == HTONS(0x0800) )  // if IP
    4e60:	08 97       	sbiw	r24, 0x08	; 8
    4e62:	09 f0       	breq	.+2      	; 0x4e66 <check_packet+0x24>
    4e64:	71 c0       	rjmp	.+226    	; 0x4f48 <check_packet+0x106>
        {              
            if( ip->IP_Destaddr == *((unsigned long*)&myip[0]) )  // if my IP address 
    4e66:	80 91 8e 03 	lds	r24, 0x038E	; 0x80038e <eth_buffer+0x1e>
    4e6a:	90 91 8f 03 	lds	r25, 0x038F	; 0x80038f <eth_buffer+0x1f>
    4e6e:	a0 91 90 03 	lds	r26, 0x0390	; 0x800390 <eth_buffer+0x20>
    4e72:	b0 91 91 03 	lds	r27, 0x0391	; 0x800391 <eth_buffer+0x21>
    4e76:	40 91 cf 05 	lds	r20, 0x05CF	; 0x8005cf <myip>
    4e7a:	50 91 d0 05 	lds	r21, 0x05D0	; 0x8005d0 <myip+0x1>
    4e7e:	60 91 d1 05 	lds	r22, 0x05D1	; 0x8005d1 <myip+0x2>
    4e82:	70 91 d2 05 	lds	r23, 0x05D2	; 0x8005d2 <myip+0x3>
    4e86:	84 17       	cp	r24, r20
    4e88:	95 07       	cpc	r25, r21
    4e8a:	a6 07       	cpc	r26, r22
    4e8c:	b7 07       	cpc	r27, r23
    4e8e:	09 f0       	breq	.+2      	; 0x4e92 <check_packet+0x50>
    4e90:	42 c0       	rjmp	.+132    	; 0x4f16 <check_packet+0xd4>
            {
                arp_entry_add();  ///Refresh des ARP Eintrages
    4e92:	0e 94 e7 1e 	call	0x3dce	; 0x3dce <arp_entry_add>
                if(ip->IP_Proto == PROT_ICMP)
    4e96:	80 91 87 03 	lds	r24, 0x0387	; 0x800387 <eth_buffer+0x17>
    4e9a:	81 30       	cpi	r24, 0x01	; 1
    4e9c:	89 f5       	brne	.+98     	; 0x4f00 <check_packet+0xbe>
                {
                    switch ( icmp->ICMP_Type )
    4e9e:	80 91 92 03 	lds	r24, 0x0392	; 0x800392 <eth_buffer+0x22>
    4ea2:	88 23       	and	r24, r24
    4ea4:	91 f0       	breq	.+36     	; 0x4eca <check_packet+0x88>
    4ea6:	88 30       	cpi	r24, 0x08	; 8
    4ea8:	09 f0       	breq	.+2      	; 0x4eac <check_packet+0x6a>
    4eaa:	4e c0       	rjmp	.+156    	; 0x4f48 <check_packet+0x106>
                    {
                        case (8): //Ping reqest
                            icmp_send(ip->IP_Srcaddr,0,0,icmp->ICMP_SeqNum,icmp->ICMP_Id); 
    4eac:	e0 e7       	ldi	r30, 0x70	; 112
    4eae:	f3 e0       	ldi	r31, 0x03	; 3
    4eb0:	e6 a0       	ldd	r14, Z+38	; 0x26
    4eb2:	f7 a0       	ldd	r15, Z+39	; 0x27
    4eb4:	00 a5       	ldd	r16, Z+40	; 0x28
    4eb6:	11 a5       	ldd	r17, Z+41	; 0x29
    4eb8:	62 8d       	ldd	r22, Z+26	; 0x1a
    4eba:	73 8d       	ldd	r23, Z+27	; 0x1b
    4ebc:	84 8d       	ldd	r24, Z+28	; 0x1c
    4ebe:	95 8d       	ldd	r25, Z+29	; 0x1d
    4ec0:	20 e0       	ldi	r18, 0x00	; 0
    4ec2:	40 e0       	ldi	r20, 0x00	; 0
    4ec4:	0e 94 f5 21 	call	0x43ea	; 0x43ea <icmp_send>
                            break;
    4ec8:	3f c0       	rjmp	.+126    	; 0x4f48 <check_packet+0x106>
                            
                        case (0): //Ping reply
                            if ((*((unsigned long*)&ping.ip1[0])) == ip->IP_Srcaddr)
    4eca:	40 91 c9 05 	lds	r20, 0x05C9	; 0x8005c9 <ping>
    4ece:	50 91 ca 05 	lds	r21, 0x05CA	; 0x8005ca <ping+0x1>
    4ed2:	60 91 cb 05 	lds	r22, 0x05CB	; 0x8005cb <ping+0x2>
    4ed6:	70 91 cc 05 	lds	r23, 0x05CC	; 0x8005cc <ping+0x3>
    4eda:	80 91 8a 03 	lds	r24, 0x038A	; 0x80038a <eth_buffer+0x1a>
    4ede:	90 91 8b 03 	lds	r25, 0x038B	; 0x80038b <eth_buffer+0x1b>
    4ee2:	a0 91 8c 03 	lds	r26, 0x038C	; 0x80038c <eth_buffer+0x1c>
    4ee6:	b0 91 8d 03 	lds	r27, 0x038D	; 0x80038d <eth_buffer+0x1d>
    4eea:	48 17       	cp	r20, r24
    4eec:	59 07       	cpc	r21, r25
    4eee:	6a 07       	cpc	r22, r26
    4ef0:	7b 07       	cpc	r23, r27
    4ef2:	51 f5       	brne	.+84     	; 0x4f48 <check_packet+0x106>
                            {
                                ping.result |= 0x01;
    4ef4:	e9 ec       	ldi	r30, 0xC9	; 201
    4ef6:	f5 e0       	ldi	r31, 0x05	; 5
    4ef8:	85 81       	ldd	r24, Z+5	; 0x05
    4efa:	81 60       	ori	r24, 0x01	; 1
    4efc:	85 83       	std	Z+5, r24	; 0x05
    4efe:	24 c0       	rjmp	.+72     	; 0x4f48 <check_packet+0x106>
                    }
                    return;
                }
                else
                {
                    if( ip->IP_Proto == PROT_TCP ) tcp_socket_process();
    4f00:	86 30       	cpi	r24, 0x06	; 6
    4f02:	11 f4       	brne	.+4      	; 0x4f08 <check_packet+0xc6>
    4f04:	0e 94 40 25 	call	0x4a80	; 0x4a80 <tcp_socket_process>
                    if( ip->IP_Proto == PROT_UDP ) udp_socket_process();
    4f08:	80 91 87 03 	lds	r24, 0x0387	; 0x800387 <eth_buffer+0x17>
    4f0c:	81 31       	cpi	r24, 0x11	; 17
    4f0e:	e1 f4       	brne	.+56     	; 0x4f48 <check_packet+0x106>
    4f10:	0e 94 72 23 	call	0x46e4	; 0x46e4 <udp_socket_process>
    4f14:	19 c0       	rjmp	.+50     	; 0x4f48 <check_packet+0x106>
                }
            }
            else
            if (ip->IP_Destaddr == (unsigned long)0xffffffff || ip->IP_Destaddr == *((unsigned long*)&broadcast_ip[0]) ) // if broadcast
    4f16:	8f 3f       	cpi	r24, 0xFF	; 255
    4f18:	2f ef       	ldi	r18, 0xFF	; 255
    4f1a:	92 07       	cpc	r25, r18
    4f1c:	a2 07       	cpc	r26, r18
    4f1e:	b2 07       	cpc	r27, r18
    4f20:	69 f0       	breq	.+26     	; 0x4f3c <check_packet+0xfa>
    4f22:	40 91 db 05 	lds	r20, 0x05DB	; 0x8005db <broadcast_ip>
    4f26:	50 91 dc 05 	lds	r21, 0x05DC	; 0x8005dc <broadcast_ip+0x1>
    4f2a:	60 91 dd 05 	lds	r22, 0x05DD	; 0x8005dd <broadcast_ip+0x2>
    4f2e:	70 91 de 05 	lds	r23, 0x05DE	; 0x8005de <broadcast_ip+0x3>
    4f32:	84 17       	cp	r24, r20
    4f34:	95 07       	cpc	r25, r21
    4f36:	a6 07       	cpc	r26, r22
    4f38:	b7 07       	cpc	r27, r23
    4f3a:	31 f4       	brne	.+12     	; 0x4f48 <check_packet+0x106>
            {
                if( ip->IP_Proto == PROT_UDP ) udp_socket_process();
    4f3c:	80 91 87 03 	lds	r24, 0x0387	; 0x800387 <eth_buffer+0x17>
    4f40:	81 31       	cpi	r24, 0x11	; 17
    4f42:	11 f4       	brne	.+4      	; 0x4f48 <check_packet+0x106>
    4f44:	0e 94 72 23 	call	0x46e4	; 0x46e4 <udp_socket_process>
            }
        }
    }
    return;
}
    4f48:	1f 91       	pop	r17
    4f4a:	0f 91       	pop	r16
    4f4c:	ff 90       	pop	r15
    4f4e:	ef 90       	pop	r14
    4f50:	08 95       	ret

00004f52 <eth_get_data>:

//----------------------------------------------------------------------------
//ETH get data
void eth_get_data (void)
{ 	
	if(eth.timer)
    4f52:	80 91 68 02 	lds	r24, 0x0268	; 0x800268 <eth>
    4f56:	81 ff       	sbrs	r24, 1
    4f58:	09 c0       	rjmp	.+18     	; 0x4f6c <eth_get_data+0x1a>
	{
		tcp_timer_call();
    4f5a:	0e 94 cf 24 	call	0x499e	; 0x499e <tcp_timer_call>
		arp_timer_call();
    4f5e:	0e 94 51 1e 	call	0x3ca2	; 0x3ca2 <arp_timer_call>
		eth.timer = 0;
    4f62:	80 91 68 02 	lds	r24, 0x0268	; 0x800268 <eth>
    4f66:	8d 7f       	andi	r24, 0xFD	; 253
    4f68:	80 93 68 02 	sts	0x0268, r24	; 0x800268 <eth>
	}	
	if(eth.data_present)
    4f6c:	80 91 68 02 	lds	r24, 0x0268	; 0x800268 <eth>
    4f70:	80 fd       	sbrc	r24, 0
    4f72:	0f c0       	rjmp	.+30     	; 0x4f92 <eth_get_data+0x40>
    4f74:	08 95       	ret
			while (ByteL != ByteH) //(!= bedeutet ungleich)
			{	
	#endif	
				unsigned int packet_length;
				  
				packet_length = ETH_PACKET_RECEIVE(MTU_SIZE,eth_buffer);
    4f76:	60 e7       	ldi	r22, 0x70	; 112
    4f78:	73 e0       	ldi	r23, 0x03	; 3
    4f7a:	88 e5       	ldi	r24, 0x58	; 88
    4f7c:	92 e0       	ldi	r25, 0x02	; 2
    4f7e:	0e 94 d9 1c 	call	0x39b2	; 0x39b2 <enc_receive_packet>
				if(packet_length > 0)
    4f82:	00 97       	sbiw	r24, 0x00	; 0
    4f84:	31 f0       	breq	.+12     	; 0x4f92 <eth_get_data+0x40>
				{
					eth_buffer[packet_length+1] = 0;
    4f86:	fc 01       	movw	r30, r24
    4f88:	e0 59       	subi	r30, 0x90	; 144
    4f8a:	fc 4f       	sbci	r31, 0xFC	; 252
    4f8c:	11 82       	std	Z+1, r1	; 0x01
					check_packet();
    4f8e:	0e 94 21 27 	call	0x4e42	; 0x4e42 <check_packet>
		eth.timer = 0;
	}	
	if(eth.data_present)
	{
	#if USE_ENC28J60
		while(ETH_INT_ACTIVE)
    4f92:	b2 9b       	sbis	0x16, 2	; 22
    4f94:	f0 cf       	rjmp	.-32     	; 0x4f76 <eth_get_data+0x24>
		}
	#if USE_RTL8019
		Networkcard_INT_RES();
		Networkcard_Start();
	#endif
		eth.data_present = 0;
    4f96:	80 91 68 02 	lds	r24, 0x0268	; 0x800268 <eth>
    4f9a:	8e 7f       	andi	r24, 0xFE	; 254
    4f9c:	80 93 68 02 	sts	0x0268, r24	; 0x800268 <eth>
		ETH_INT_ENABLE;
    4fa0:	8b b7       	in	r24, 0x3b	; 59
    4fa2:	80 62       	ori	r24, 0x20	; 32
    4fa4:	8b bf       	out	0x3b, r24	; 59
    4fa6:	08 95       	ret

00004fa8 <arp_request>:
}

//----------------------------------------------------------------------------
//Diese Routine erzeugt einen ARP Request
char arp_request (unsigned long dest_ip)
{
    4fa8:	8f 92       	push	r8
    4faa:	9f 92       	push	r9
    4fac:	af 92       	push	r10
    4fae:	bf 92       	push	r11
    4fb0:	cf 92       	push	r12
    4fb2:	df 92       	push	r13
    4fb4:	ef 92       	push	r14
    4fb6:	ff 92       	push	r15
    4fb8:	0f 93       	push	r16
    4fba:	1f 93       	push	r17
    4fbc:	cf 93       	push	r28
    4fbe:	df 93       	push	r29
    4fc0:	cd b7       	in	r28, 0x3d	; 61
    4fc2:	de b7       	in	r29, 0x3e	; 62
    4fc4:	aa 97       	sbiw	r28, 0x2a	; 42
    4fc6:	0f b6       	in	r0, 0x3f	; 63
    4fc8:	f8 94       	cli
    4fca:	de bf       	out	0x3e, r29	; 62
    4fcc:	0f be       	out	0x3f, r0	; 63
    4fce:	cd bf       	out	0x3d, r28	; 61
    4fd0:	6b 01       	movw	r12, r22
    4fd2:	7c 01       	movw	r14, r24
    ethernet = (struct Ethernet_Header *)&buffer[ETHER_OFFSET];
    arp      = (struct ARP_Header      *)&buffer[ARP_OFFSET];

    dest_ip_store = dest_ip;

    if ( (dest_ip & (*((unsigned long *)&netmask[0])))==
    4fd4:	80 91 cf 05 	lds	r24, 0x05CF	; 0x8005cf <myip>
    4fd8:	90 91 d0 05 	lds	r25, 0x05D0	; 0x8005d0 <myip+0x1>
    4fdc:	a0 91 d1 05 	lds	r26, 0x05D1	; 0x8005d1 <myip+0x2>
    4fe0:	b0 91 d2 05 	lds	r27, 0x05D2	; 0x8005d2 <myip+0x3>
    4fe4:	8c 25       	eor	r24, r12
    4fe6:	9d 25       	eor	r25, r13
    4fe8:	ae 25       	eor	r26, r14
    4fea:	bf 25       	eor	r27, r15
    4fec:	40 91 d7 05 	lds	r20, 0x05D7	; 0x8005d7 <netmask>
    4ff0:	50 91 d8 05 	lds	r21, 0x05D8	; 0x8005d8 <netmask+0x1>
    4ff4:	60 91 d9 05 	lds	r22, 0x05D9	; 0x8005d9 <netmask+0x2>
    4ff8:	70 91 da 05 	lds	r23, 0x05DA	; 0x8005da <netmask+0x3>
    4ffc:	84 23       	and	r24, r20
    4ffe:	95 23       	and	r25, r21
    5000:	a6 23       	and	r26, r22
    5002:	b7 23       	and	r27, r23
    5004:	89 2b       	or	r24, r25
    5006:	8a 2b       	or	r24, r26
    5008:	8b 2b       	or	r24, r27
    500a:	49 f0       	breq	.+18     	; 0x501e <arp_request+0x76>
        DEBUG("MY NETWORK!\r\n");
    }
    else
    {
        DEBUG("ROUTING!\r\n");
        dest_ip = (*((unsigned long *)&router_ip[0]));
    500c:	b0 90 d3 05 	lds	r11, 0x05D3	; 0x8005d3 <router_ip>
    5010:	a0 90 d4 05 	lds	r10, 0x05D4	; 0x8005d4 <router_ip+0x1>
    5014:	90 90 d5 05 	lds	r9, 0x05D5	; 0x8005d5 <router_ip+0x2>
    5018:	80 90 d6 05 	lds	r8, 0x05D6	; 0x8005d6 <router_ip+0x3>
    501c:	04 c0       	rjmp	.+8      	; 0x5026 <arp_request+0x7e>
    501e:	bc 2c       	mov	r11, r12
    5020:	ad 2c       	mov	r10, r13
    5022:	9e 2c       	mov	r9, r14
    5024:	8f 2c       	mov	r8, r15
    }

    ethernet->EnetPacketType = HTONS(0x0806);          // Nutzlast 0x0800=IP Datagramm;0x0806 = ARP
    5026:	88 e0       	ldi	r24, 0x08	; 8
    5028:	96 e0       	ldi	r25, 0x06	; 6
    502a:	9e 87       	std	Y+14, r25	; 0x0e
    502c:	8d 87       	std	Y+13, r24	; 0x0d
  
    new_eth_header (buffer,dest_ip);
    502e:	4b 2d       	mov	r20, r11
    5030:	5a 2d       	mov	r21, r10
    5032:	69 2d       	mov	r22, r9
    5034:	78 2d       	mov	r23, r8
    5036:	ce 01       	movw	r24, r28
    5038:	01 96       	adiw	r24, 0x01	; 1
    503a:	0e 94 87 20 	call	0x410e	; 0x410e <new_eth_header>
  
    arp->ARP_SIPAddr = *((unsigned long *)&myip[0]);   // MyIP = ARP Source IP
    503e:	80 91 cf 05 	lds	r24, 0x05CF	; 0x8005cf <myip>
    5042:	90 91 d0 05 	lds	r25, 0x05D0	; 0x8005d0 <myip+0x1>
    5046:	a0 91 d1 05 	lds	r26, 0x05D1	; 0x8005d1 <myip+0x2>
    504a:	b0 91 d2 05 	lds	r27, 0x05D2	; 0x8005d2 <myip+0x3>
    504e:	8d 8f       	std	Y+29, r24	; 0x1d
    5050:	9e 8f       	std	Y+30, r25	; 0x1e
    5052:	af 8f       	std	Y+31, r26	; 0x1f
    5054:	b8 a3       	std	Y+32, r27	; 0x20
    arp->ARP_TIPAddr = dest_ip;                         // Dest IP 
    5056:	bf a2       	std	Y+39, r11	; 0x27
    5058:	a8 a6       	std	Y+40, r10	; 0x28
    505a:	99 a6       	std	Y+41, r9	; 0x29
    505c:	8a a6       	std	Y+42, r8	; 0x2a
    505e:	aa e6       	ldi	r26, 0x6A	; 106
    5060:	b3 e0       	ldi	r27, 0x03	; 3
    5062:	fe 01       	movw	r30, r28
    5064:	77 96       	adiw	r30, 0x17	; 23
    5066:	9e 01       	movw	r18, r28
    5068:	23 5e       	subi	r18, 0xE3	; 227
    506a:	3f 4f       	sbci	r19, 0xFF	; 255
  
    for(count = 0; count < 6; count++)
    {
        arp->ARP_SHAddr[count] = mymac[count];
    506c:	8d 91       	ld	r24, X+
    506e:	81 93       	st	Z+, r24
        arp->ARP_THAddr[count] = 0;
    5070:	11 86       	std	Z+9, r1	; 0x09
    new_eth_header (buffer,dest_ip);
  
    arp->ARP_SIPAddr = *((unsigned long *)&myip[0]);   // MyIP = ARP Source IP
    arp->ARP_TIPAddr = dest_ip;                         // Dest IP 
  
    for(count = 0; count < 6; count++)
    5072:	e2 17       	cp	r30, r18
    5074:	f3 07       	cpc	r31, r19
    5076:	d1 f7       	brne	.-12     	; 0x506c <arp_request+0xc4>
    {
        arp->ARP_SHAddr[count] = mymac[count];
        arp->ARP_THAddr[count] = 0;
    }
  
    arp->ARP_HWType = HTONS(0x0001);
    5078:	80 e0       	ldi	r24, 0x00	; 0
    507a:	91 e0       	ldi	r25, 0x01	; 1
    507c:	98 8b       	std	Y+16, r25	; 0x10
    507e:	8f 87       	std	Y+15, r24	; 0x0f
    arp->ARP_PRType = HTONS(0x0800);
    5080:	28 e0       	ldi	r18, 0x08	; 8
    5082:	30 e0       	ldi	r19, 0x00	; 0
    5084:	3a 8b       	std	Y+18, r19	; 0x12
    5086:	29 8b       	std	Y+17, r18	; 0x11
    arp->ARP_HWLen  = 0x06;
    5088:	26 e0       	ldi	r18, 0x06	; 6
    508a:	2b 8b       	std	Y+19, r18	; 0x13
    arp->ARP_PRLen  = 0x04;
    508c:	24 e0       	ldi	r18, 0x04	; 4
    508e:	2c 8b       	std	Y+20, r18	; 0x14
    arp->ARP_Op     = HTONS(0x0001);
    5090:	9e 8b       	std	Y+22, r25	; 0x16
    5092:	8d 8b       	std	Y+21, r24	; 0x15

    ETH_PACKET_SEND(ARP_REQUEST_LEN, buffer);        //send....
    5094:	be 01       	movw	r22, r28
    5096:	6f 5f       	subi	r22, 0xFF	; 255
    5098:	7f 4f       	sbci	r23, 0xFF	; 255
    509a:	8a e2       	ldi	r24, 0x2A	; 42
    509c:	90 e0       	ldi	r25, 0x00	; 0
    509e:	0e 94 13 1c 	call	0x3826	; 0x3826 <enc_send_packet>
	eth.no_reset	 = 1;	
    50a2:	80 91 68 02 	lds	r24, 0x0268	; 0x800268 <eth>
    50a6:	84 60       	ori	r24, 0x04	; 4
    50a8:	80 93 68 02 	sts	0x0268, r24	; 0x800268 <eth>
    50ac:	14 e1       	ldi	r17, 0x14	; 20
  
    for(count = 0; count<20; count++)
    {
        index_tmp = arp_entry_search(dest_ip_store);
    50ae:	c7 01       	movw	r24, r14
    50b0:	b6 01       	movw	r22, r12
    50b2:	0e 94 50 20 	call	0x40a0	; 0x40a0 <arp_entry_search>
    50b6:	08 2f       	mov	r16, r24
        index = arp_entry_search(dest_ip);
    50b8:	6b 2d       	mov	r22, r11
    50ba:	7a 2d       	mov	r23, r10
    50bc:	89 2d       	mov	r24, r9
    50be:	98 2d       	mov	r25, r8
    50c0:	0e 94 50 20 	call	0x40a0	; 0x40a0 <arp_entry_search>
        if (index < MAX_ARP_ENTRY || index_tmp < MAX_ARP_ENTRY)
    50c4:	85 30       	cpi	r24, 0x05	; 5
    50c6:	28 f0       	brcs	.+10     	; 0x50d2 <arp_request+0x12a>
    50c8:	05 30       	cpi	r16, 0x05	; 5
    50ca:	18 f1       	brcs	.+70     	; 0x5112 <arp_request+0x16a>
    50cc:	80 e0       	ldi	r24, 0x00	; 0
    50ce:	90 e0       	ldi	r25, 0x00	; 0
    50d0:	14 c0       	rjmp	.+40     	; 0x50fa <arp_request+0x152>
        {
            DEBUG("ARP EINTRAG GEFUNDEN!\r\n");
            if (index_tmp < MAX_ARP_ENTRY) return(1);//OK
    50d2:	05 30       	cpi	r16, 0x05	; 5
    50d4:	00 f1       	brcs	.+64     	; 0x5116 <arp_request+0x16e>
            arp_entry[index].arp_t_ip = dest_ip_store;
    50d6:	90 e0       	ldi	r25, 0x00	; 0
    50d8:	fc 01       	movw	r30, r24
    50da:	ee 0f       	add	r30, r30
    50dc:	ff 1f       	adc	r31, r31
    50de:	e8 0f       	add	r30, r24
    50e0:	f9 1f       	adc	r31, r25
    50e2:	ee 0f       	add	r30, r30
    50e4:	ff 1f       	adc	r31, r31
    50e6:	ee 0f       	add	r30, r30
    50e8:	ff 1f       	adc	r31, r31
    50ea:	e4 5d       	subi	r30, 0xD4	; 212
    50ec:	fd 4f       	sbci	r31, 0xFD	; 253
    50ee:	c6 82       	std	Z+6, r12	; 0x06
    50f0:	d7 82       	std	Z+7, r13	; 0x07
    50f2:	e0 86       	std	Z+8, r14	; 0x08
    50f4:	f1 86       	std	Z+9, r15	; 0x09
            return(1);//OK
    50f6:	81 e0       	ldi	r24, 0x01	; 1
    50f8:	0f c0       	rjmp	.+30     	; 0x5118 <arp_request+0x170>
        }
        for(a=0;a<10000;a++)
        {
            asm("nop");
    50fa:	00 00       	nop
    50fc:	01 96       	adiw	r24, 0x01	; 1
            DEBUG("ARP EINTRAG GEFUNDEN!\r\n");
            if (index_tmp < MAX_ARP_ENTRY) return(1);//OK
            arp_entry[index].arp_t_ip = dest_ip_store;
            return(1);//OK
        }
        for(a=0;a<10000;a++)
    50fe:	80 31       	cpi	r24, 0x10	; 16
    5100:	27 e2       	ldi	r18, 0x27	; 39
    5102:	92 07       	cpc	r25, r18
    5104:	d1 f7       	brne	.-12     	; 0x50fa <arp_request+0x152>
        {
            asm("nop");
        }
        eth_get_data();
    5106:	0e 94 a9 27 	call	0x4f52	; 0x4f52 <eth_get_data>
    510a:	11 50       	subi	r17, 0x01	; 1
    arp->ARP_Op     = HTONS(0x0001);

    ETH_PACKET_SEND(ARP_REQUEST_LEN, buffer);        //send....
	eth.no_reset	 = 1;	
  
    for(count = 0; count<20; count++)
    510c:	81 f6       	brne	.-96     	; 0x50ae <arp_request+0x106>
            asm("nop");
        }
        eth_get_data();
        DEBUG("**KEINEN ARP EINTRAG GEFUNDEN**\r\n");
    }
    return(0);//keine Antwort
    510e:	80 e0       	ldi	r24, 0x00	; 0
    5110:	03 c0       	rjmp	.+6      	; 0x5118 <arp_request+0x170>
        index_tmp = arp_entry_search(dest_ip_store);
        index = arp_entry_search(dest_ip);
        if (index < MAX_ARP_ENTRY || index_tmp < MAX_ARP_ENTRY)
        {
            DEBUG("ARP EINTRAG GEFUNDEN!\r\n");
            if (index_tmp < MAX_ARP_ENTRY) return(1);//OK
    5112:	81 e0       	ldi	r24, 0x01	; 1
    5114:	01 c0       	rjmp	.+2      	; 0x5118 <arp_request+0x170>
    5116:	81 e0       	ldi	r24, 0x01	; 1
        }
        eth_get_data();
        DEBUG("**KEINEN ARP EINTRAG GEFUNDEN**\r\n");
    }
    return(0);//keine Antwort
}
    5118:	aa 96       	adiw	r28, 0x2a	; 42
    511a:	0f b6       	in	r0, 0x3f	; 63
    511c:	f8 94       	cli
    511e:	de bf       	out	0x3e, r29	; 62
    5120:	0f be       	out	0x3f, r0	; 63
    5122:	cd bf       	out	0x3d, r28	; 61
    5124:	df 91       	pop	r29
    5126:	cf 91       	pop	r28
    5128:	1f 91       	pop	r17
    512a:	0f 91       	pop	r16
    512c:	ff 90       	pop	r15
    512e:	ef 90       	pop	r14
    5130:	df 90       	pop	r13
    5132:	cf 90       	pop	r12
    5134:	bf 90       	pop	r11
    5136:	af 90       	pop	r10
    5138:	9f 90       	pop	r9
    513a:	8f 90       	pop	r8
    513c:	08 95       	ret

0000513e <telnetd_init>:
//----------------------------------------------------------------------------
//Initialisierung des telnetd Testservers
void telnetd_init (void)
{
	//Serverport und Anwendung in TCP Anwendungsliste eintragen
	add_tcp_app (TELNET_APP_PORT, (void(*)(unsigned char))telnetd);
    513e:	6f e2       	ldi	r22, 0x2F	; 47
    5140:	79 e2       	ldi	r23, 0x29	; 41
    5142:	87 e1       	ldi	r24, 0x17	; 23
    5144:	90 e0       	ldi	r25, 0x00	; 0
    5146:	0e 94 a3 1e 	call	0x3d46	; 0x3d46 <add_tcp_app>
    514a:	08 95       	ret

0000514c <telnetd_send_data>:
}

//----------------------------------------------------------------------------
//telnet Testserver
void telnetd_send_data (void)
{
    514c:	ef 92       	push	r14
    514e:	ff 92       	push	r15
    5150:	0f 93       	push	r16
    5152:	1f 93       	push	r17
    5154:	cf 93       	push	r28
    5156:	df 93       	push	r29
	unsigned char index;
	if (rx_buffer_pointer_in != retransmission_pointer)
    5158:	c0 91 e5 00 	lds	r28, 0x00E5	; 0x8000e5 <rx_buffer_pointer_in>
    515c:	d0 91 e6 00 	lds	r29, 0x00E6	; 0x8000e6 <rx_buffer_pointer_in+0x1>
    5160:	80 91 67 03 	lds	r24, 0x0367	; 0x800367 <retransmission_pointer>
    5164:	90 91 68 03 	lds	r25, 0x0368	; 0x800368 <retransmission_pointer+0x1>
    5168:	c8 17       	cp	r28, r24
    516a:	d9 07       	cpc	r29, r25
    516c:	09 f4       	brne	.+2      	; 0x5170 <telnetd_send_data+0x24>
    516e:	70 c0       	rjmp	.+224    	; 0x5250 <telnetd_send_data+0x104>
	{
		for (index = 0;index<MAX_TCP_ENTRY;index++)
		{
			if(tcp_entry[index].dest_port == HTONS(23))
    5170:	80 91 84 02 	lds	r24, 0x0284	; 0x800284 <tcp_entry+0x6>
    5174:	90 91 85 02 	lds	r25, 0x0285	; 0x800285 <tcp_entry+0x7>
    5178:	81 15       	cp	r24, r1
    517a:	97 41       	sbci	r25, 0x17	; 23
    517c:	99 f0       	breq	.+38     	; 0x51a4 <telnetd_send_data+0x58>
    517e:	81 e0       	ldi	r24, 0x01	; 1
    5180:	90 e0       	ldi	r25, 0x00	; 0
    5182:	46 e1       	ldi	r20, 0x16	; 22
    5184:	68 2f       	mov	r22, r24
    5186:	8c 01       	movw	r16, r24
    5188:	48 9f       	mul	r20, r24
    518a:	f0 01       	movw	r30, r0
    518c:	49 9f       	mul	r20, r25
    518e:	f0 0d       	add	r31, r0
    5190:	11 24       	eor	r1, r1
    5192:	e2 58       	subi	r30, 0x82	; 130
    5194:	fd 4f       	sbci	r31, 0xFD	; 253
    5196:	26 81       	ldd	r18, Z+6	; 0x06
    5198:	37 81       	ldd	r19, Z+7	; 0x07
    519a:	21 15       	cp	r18, r1
    519c:	37 41       	sbci	r19, 0x17	; 23
    519e:	09 f0       	breq	.+2      	; 0x51a2 <telnetd_send_data+0x56>
    51a0:	47 c0       	rjmp	.+142    	; 0x5230 <telnetd_send_data+0xe4>
    51a2:	03 c0       	rjmp	.+6      	; 0x51aa <telnetd_send_data+0x5e>
    51a4:	00 e0       	ldi	r16, 0x00	; 0
    51a6:	10 e0       	ldi	r17, 0x00	; 0
    51a8:	60 e0       	ldi	r22, 0x00	; 0
			{
				if(!telnetd_status.ack_wait)
    51aa:	80 91 69 03 	lds	r24, 0x0369	; 0x800369 <telnetd_status>
    51ae:	80 fd       	sbrc	r24, 0
    51b0:	4f c0       	rjmp	.+158    	; 0x5250 <telnetd_send_data+0x104>
					{
					telnetd_status.ack_wait = 1;
    51b2:	80 91 69 03 	lds	r24, 0x0369	; 0x800369 <telnetd_status>
    51b6:	81 60       	ori	r24, 0x01	; 1
    51b8:	80 93 69 03 	sts	0x0369, r24	; 0x800369 <telnetd_status>
					unsigned int count = 0;
					retransmission_pointer = rx_buffer_pointer_out; 
    51bc:	80 91 e3 00 	lds	r24, 0x00E3	; 0x8000e3 <rx_buffer_pointer_out>
    51c0:	90 91 e4 00 	lds	r25, 0x00E4	; 0x8000e4 <rx_buffer_pointer_out+0x1>
    51c4:	90 93 68 03 	sts	0x0368, r25	; 0x800368 <retransmission_pointer+0x1>
    51c8:	80 93 67 03 	sts	0x0367, r24	; 0x800367 <retransmission_pointer>
    51cc:	a6 ea       	ldi	r26, 0xA6	; 166
    51ce:	b3 e0       	ldi	r27, 0x03	; 3
			if(tcp_entry[index].dest_port == HTONS(23))
			{
				if(!telnetd_status.ack_wait)
					{
					telnetd_status.ack_wait = 1;
					unsigned int count = 0;
    51d0:	80 e0       	ldi	r24, 0x00	; 0
    51d2:	90 e0       	ldi	r25, 0x00	; 0
					{
						eth_buffer[TCP_DATA_START+count] = *retransmission_pointer++;
						count++;
						if (retransmission_pointer == &usart_rx_buffer[BUFFER_SIZE-1])
						{
							retransmission_pointer = &usart_rx_buffer[0];
    51d4:	0f 2e       	mov	r0, r31
    51d6:	f8 ec       	ldi	r31, 0xC8	; 200
    51d8:	ef 2e       	mov	r14, r31
    51da:	f1 e0       	ldi	r31, 0x01	; 1
    51dc:	ff 2e       	mov	r15, r31
    51de:	f0 2d       	mov	r31, r0
					{
					telnetd_status.ack_wait = 1;
					unsigned int count = 0;
					retransmission_pointer = rx_buffer_pointer_out; 
					
					while(rx_buffer_pointer_in != retransmission_pointer)
    51e0:	11 c0       	rjmp	.+34     	; 0x5204 <telnetd_send_data+0xb8>
					{
						eth_buffer[TCP_DATA_START+count] = *retransmission_pointer++;
    51e2:	9f 01       	movw	r18, r30
    51e4:	2f 5f       	subi	r18, 0xFF	; 255
    51e6:	3f 4f       	sbci	r19, 0xFF	; 255
    51e8:	30 93 68 03 	sts	0x0368, r19	; 0x800368 <retransmission_pointer+0x1>
    51ec:	20 93 67 03 	sts	0x0367, r18	; 0x800367 <retransmission_pointer>
    51f0:	40 81       	ld	r20, Z
    51f2:	4d 93       	st	X+, r20
						count++;
    51f4:	01 96       	adiw	r24, 0x01	; 1
						if (retransmission_pointer == &usart_rx_buffer[BUFFER_SIZE-1])
    51f6:	2b 52       	subi	r18, 0x2B	; 43
    51f8:	32 40       	sbci	r19, 0x02	; 2
    51fa:	21 f4       	brne	.+8      	; 0x5204 <telnetd_send_data+0xb8>
						{
							retransmission_pointer = &usart_rx_buffer[0];
    51fc:	f0 92 68 03 	sts	0x0368, r15	; 0x800368 <retransmission_pointer+0x1>
    5200:	e0 92 67 03 	sts	0x0367, r14	; 0x800367 <retransmission_pointer>
					{
					telnetd_status.ack_wait = 1;
					unsigned int count = 0;
					retransmission_pointer = rx_buffer_pointer_out; 
					
					while(rx_buffer_pointer_in != retransmission_pointer)
    5204:	e0 91 67 03 	lds	r30, 0x0367	; 0x800367 <retransmission_pointer>
    5208:	f0 91 68 03 	lds	r31, 0x0368	; 0x800368 <retransmission_pointer+0x1>
    520c:	ce 17       	cp	r28, r30
    520e:	df 07       	cpc	r29, r31
    5210:	41 f7       	brne	.-48     	; 0x51e2 <telnetd_send_data+0x96>
						if (retransmission_pointer == &usart_rx_buffer[BUFFER_SIZE-1])
						{
							retransmission_pointer = &usart_rx_buffer[0];
						}
					}
					tcp_entry[index].status =  ACK_FLAG | PSH_FLAG;
    5212:	26 e1       	ldi	r18, 0x16	; 22
    5214:	20 9f       	mul	r18, r16
    5216:	e0 01       	movw	r28, r0
    5218:	21 9f       	mul	r18, r17
    521a:	d0 0d       	add	r29, r0
    521c:	11 24       	eor	r1, r1
    521e:	c2 58       	subi	r28, 0x82	; 130
    5220:	dd 4f       	sbci	r29, 0xFD	; 253
    5222:	28 e1       	ldi	r18, 0x18	; 24
    5224:	28 8b       	std	Y+16, r18	; 0x10
					create_new_tcp_packet(count,index);
    5226:	0e 94 a7 23 	call	0x474e	; 0x474e <create_new_tcp_packet>
					tcp_entry[index].time = TCP_MAX_ENTRY_TIME;
    522a:	83 e0       	ldi	r24, 0x03	; 3
    522c:	8b 8b       	std	Y+19, r24	; 0x13
					return;
    522e:	10 c0       	rjmp	.+32     	; 0x5250 <telnetd_send_data+0x104>
    5230:	01 96       	adiw	r24, 0x01	; 1
void telnetd_send_data (void)
{
	unsigned char index;
	if (rx_buffer_pointer_in != retransmission_pointer)
	{
		for (index = 0;index<MAX_TCP_ENTRY;index++)
    5232:	85 30       	cpi	r24, 0x05	; 5
    5234:	91 05       	cpc	r25, r1
    5236:	09 f0       	breq	.+2      	; 0x523a <telnetd_send_data+0xee>
    5238:	a5 cf       	rjmp	.-182    	; 0x5184 <telnetd_send_data+0x38>
    523a:	06 c0       	rjmp	.+12     	; 0x5248 <telnetd_send_data+0xfc>
		}
		if (index >= MAX_TCP_ENTRY)
		{
			if(usart_status.usart_disable)
			{
				usart_status.usart_disable = 0;
    523c:	80 91 c7 01 	lds	r24, 0x01C7	; 0x8001c7 <usart_status>
    5240:	8b 7f       	andi	r24, 0xFB	; 251
    5242:	80 93 c7 01 	sts	0x01C7, r24	; 0x8001c7 <usart_status>
    5246:	04 c0       	rjmp	.+8      	; 0x5250 <telnetd_send_data+0x104>
				}
			}
		}
		if (index >= MAX_TCP_ENTRY)
		{
			if(usart_status.usart_disable)
    5248:	80 91 c7 01 	lds	r24, 0x01C7	; 0x8001c7 <usart_status>
    524c:	82 fd       	sbrc	r24, 2
    524e:	f6 cf       	rjmp	.-20     	; 0x523c <telnetd_send_data+0xf0>
			{
				usart_status.usart_disable = 0;
			}
		}
	}
}
    5250:	df 91       	pop	r29
    5252:	cf 91       	pop	r28
    5254:	1f 91       	pop	r17
    5256:	0f 91       	pop	r16
    5258:	ff 90       	pop	r15
    525a:	ef 90       	pop	r14
    525c:	08 95       	ret

0000525e <telnetd>:
}

//----------------------------------------------------------------------------
//telnet Testserver
void telnetd (unsigned char index)
{
    525e:	ef 92       	push	r14
    5260:	ff 92       	push	r15
    5262:	0f 93       	push	r16
    5264:	1f 93       	push	r17
    5266:	cf 93       	push	r28
    5268:	df 93       	push	r29
	TELNET_DEBUG("TELNET Anwendung gestartet\r\n");
	
    //Verbindung wurde abgebaut!
    if (tcp_entry[index].status & FIN_FLAG)
    526a:	48 2f       	mov	r20, r24
    526c:	50 e0       	ldi	r21, 0x00	; 0
    526e:	96 e1       	ldi	r25, 0x16	; 22
    5270:	89 9f       	mul	r24, r25
    5272:	f0 01       	movw	r30, r0
    5274:	11 24       	eor	r1, r1
    5276:	e2 58       	subi	r30, 0x82	; 130
    5278:	fd 4f       	sbci	r31, 0xFD	; 253
    527a:	90 89       	ldd	r25, Z+16	; 0x10
    527c:	90 ff       	sbrs	r25, 0
    527e:	06 c0       	rjmp	.+12     	; 0x528c <telnetd+0x2e>
    {
        usart_status.usart_disable = 0;
    5280:	80 91 c7 01 	lds	r24, 0x01C7	; 0x8001c7 <usart_status>
    5284:	8b 7f       	andi	r24, 0xFB	; 251
    5286:	80 93 c7 01 	sts	0x01C7, r24	; 0x8001c7 <usart_status>
        return;
    528a:	23 c1       	rjmp	.+582    	; 0x54d2 <telnetd+0x274>
    528c:	18 2f       	mov	r17, r24
    }
    
	if (tcp_entry[index].app_status == 0 || tcp_entry[index].app_status == 1)
    528e:	86 e1       	ldi	r24, 0x16	; 22
    5290:	84 9f       	mul	r24, r20
    5292:	f0 01       	movw	r30, r0
    5294:	85 9f       	mul	r24, r21
    5296:	f0 0d       	add	r31, r0
    5298:	11 24       	eor	r1, r1
    529a:	e2 58       	subi	r30, 0x82	; 130
    529c:	fd 4f       	sbci	r31, 0xFD	; 253
    529e:	81 89       	ldd	r24, Z+17	; 0x11
    52a0:	92 89       	ldd	r25, Z+18	; 0x12
    52a2:	89 2b       	or	r24, r25
    52a4:	61 f0       	breq	.+24     	; 0x52be <telnetd+0x60>
    52a6:	86 e1       	ldi	r24, 0x16	; 22
    52a8:	84 9f       	mul	r24, r20
    52aa:	f0 01       	movw	r30, r0
    52ac:	85 9f       	mul	r24, r21
    52ae:	f0 0d       	add	r31, r0
    52b0:	11 24       	eor	r1, r1
    52b2:	e2 58       	subi	r30, 0x82	; 130
    52b4:	fd 4f       	sbci	r31, 0xFD	; 253
    52b6:	81 89       	ldd	r24, Z+17	; 0x11
    52b8:	92 89       	ldd	r25, Z+18	; 0x12
    52ba:	01 97       	sbiw	r24, 0x01	; 1
    52bc:	31 f5       	brne	.+76     	; 0x530a <telnetd+0xac>
	{
		tcp_entry[index].app_status = 1; 
    52be:	86 e1       	ldi	r24, 0x16	; 22
    52c0:	84 9f       	mul	r24, r20
    52c2:	e0 01       	movw	r28, r0
    52c4:	85 9f       	mul	r24, r21
    52c6:	d0 0d       	add	r29, r0
    52c8:	11 24       	eor	r1, r1
    52ca:	c2 58       	subi	r28, 0x82	; 130
    52cc:	dd 4f       	sbci	r29, 0xFD	; 253
    52ce:	81 e0       	ldi	r24, 0x01	; 1
    52d0:	90 e0       	ldi	r25, 0x00	; 0
    52d2:	9a 8b       	std	Y+18, r25	; 0x12
    52d4:	89 8b       	std	Y+17, r24	; 0x11
		memcpy_P(&eth_buffer[TCP_DATA_START],PSTR("Start Telnet Server:\r\n"),22);
    52d6:	46 e1       	ldi	r20, 0x16	; 22
    52d8:	50 e0       	ldi	r21, 0x00	; 0
    52da:	6d e4       	ldi	r22, 0x4D	; 77
    52dc:	7e e1       	ldi	r23, 0x1E	; 30
    52de:	86 ea       	ldi	r24, 0xA6	; 166
    52e0:	93 e0       	ldi	r25, 0x03	; 3
    52e2:	0e 94 14 2e 	call	0x5c28	; 0x5c28 <memcpy_P>
		create_new_tcp_packet(22,index);
    52e6:	61 2f       	mov	r22, r17
    52e8:	86 e1       	ldi	r24, 0x16	; 22
    52ea:	90 e0       	ldi	r25, 0x00	; 0
    52ec:	0e 94 a7 23 	call	0x474e	; 0x474e <create_new_tcp_packet>
		usart_status.usart_disable = 1;
    52f0:	80 91 c7 01 	lds	r24, 0x01C7	; 0x8001c7 <usart_status>
    52f4:	84 60       	ori	r24, 0x04	; 4
    52f6:	80 93 c7 01 	sts	0x01C7, r24	; 0x8001c7 <usart_status>
		telnetd_status.ack_wait = 0;
    52fa:	80 91 69 03 	lds	r24, 0x0369	; 0x800369 <telnetd_status>
    52fe:	8e 7f       	andi	r24, 0xFE	; 254
    5300:	80 93 69 03 	sts	0x0369, r24	; 0x800369 <telnetd_status>
		tcp_entry[index].time = TCP_TIME_OFF;
    5304:	8f ef       	ldi	r24, 0xFF	; 255
    5306:	8b 8b       	std	Y+19, r24	; 0x13
		return;
    5308:	e4 c0       	rjmp	.+456    	; 0x54d2 <telnetd+0x274>
	}	

	if ((tcp_entry[index].app_status > 1) && (tcp_entry[index].status&PSH_FLAG))
    530a:	86 e1       	ldi	r24, 0x16	; 22
    530c:	84 9f       	mul	r24, r20
    530e:	f0 01       	movw	r30, r0
    5310:	85 9f       	mul	r24, r21
    5312:	f0 0d       	add	r31, r0
    5314:	11 24       	eor	r1, r1
    5316:	e2 58       	subi	r30, 0x82	; 130
    5318:	fd 4f       	sbci	r31, 0xFD	; 253
    531a:	81 89       	ldd	r24, Z+17	; 0x11
    531c:	92 89       	ldd	r25, Z+18	; 0x12
    531e:	02 97       	sbiw	r24, 0x02	; 2
    5320:	08 f4       	brcc	.+2      	; 0x5324 <telnetd+0xc6>
    5322:	92 c0       	rjmp	.+292    	; 0x5448 <telnetd+0x1ea>
    5324:	86 e1       	ldi	r24, 0x16	; 22
    5326:	84 9f       	mul	r24, r20
    5328:	f0 01       	movw	r30, r0
    532a:	85 9f       	mul	r24, r21
    532c:	f0 0d       	add	r31, r0
    532e:	11 24       	eor	r1, r1
    5330:	e2 58       	subi	r30, 0x82	; 130
    5332:	fd 4f       	sbci	r31, 0xFD	; 253
    5334:	80 89       	ldd	r24, Z+16	; 0x10
    5336:	83 ff       	sbrs	r24, 3
    5338:	87 c0       	rjmp	.+270    	; 0x5448 <telnetd+0x1ea>
	{
		tcp_entry[index].app_status = 2;	
    533a:	86 e1       	ldi	r24, 0x16	; 22
    533c:	84 9f       	mul	r24, r20
    533e:	f0 01       	movw	r30, r0
    5340:	85 9f       	mul	r24, r21
    5342:	f0 0d       	add	r31, r0
    5344:	11 24       	eor	r1, r1
    5346:	e2 58       	subi	r30, 0x82	; 130
    5348:	fd 4f       	sbci	r31, 0xFD	; 253
    534a:	82 e0       	ldi	r24, 0x02	; 2
    534c:	90 e0       	ldi	r25, 0x00	; 0
    534e:	92 8b       	std	Z+18, r25	; 0x12
    5350:	81 8b       	std	Z+17, r24	; 0x11
		
		//Ack erhalten vom gesendeten Packet
		if ((tcp_entry[index].app_status > 1)&&(tcp_entry[index].status&ACK_FLAG)&&(telnetd_status.ack_wait))
    5352:	81 89       	ldd	r24, Z+17	; 0x11
    5354:	92 89       	ldd	r25, Z+18	; 0x12
    5356:	02 97       	sbiw	r24, 0x02	; 2
    5358:	30 f1       	brcs	.+76     	; 0x53a6 <telnetd+0x148>
    535a:	86 e1       	ldi	r24, 0x16	; 22
    535c:	84 9f       	mul	r24, r20
    535e:	f0 01       	movw	r30, r0
    5360:	85 9f       	mul	r24, r21
    5362:	f0 0d       	add	r31, r0
    5364:	11 24       	eor	r1, r1
    5366:	e2 58       	subi	r30, 0x82	; 130
    5368:	fd 4f       	sbci	r31, 0xFD	; 253
    536a:	80 89       	ldd	r24, Z+16	; 0x10
    536c:	84 ff       	sbrs	r24, 4
    536e:	1b c0       	rjmp	.+54     	; 0x53a6 <telnetd+0x148>
    5370:	80 91 69 03 	lds	r24, 0x0369	; 0x800369 <telnetd_status>
    5374:	80 ff       	sbrs	r24, 0
    5376:	17 c0       	rjmp	.+46     	; 0x53a6 <telnetd+0x148>
		{
			tcp_entry[index].time = TCP_TIME_OFF;
    5378:	86 e1       	ldi	r24, 0x16	; 22
    537a:	84 9f       	mul	r24, r20
    537c:	f0 01       	movw	r30, r0
    537e:	85 9f       	mul	r24, r21
    5380:	f0 0d       	add	r31, r0
    5382:	11 24       	eor	r1, r1
    5384:	e2 58       	subi	r30, 0x82	; 130
    5386:	fd 4f       	sbci	r31, 0xFD	; 253
    5388:	8f ef       	ldi	r24, 0xFF	; 255
    538a:	83 8b       	std	Z+19, r24	; 0x13
			rx_buffer_pointer_out = retransmission_pointer;
    538c:	80 91 67 03 	lds	r24, 0x0367	; 0x800367 <retransmission_pointer>
    5390:	90 91 68 03 	lds	r25, 0x0368	; 0x800368 <retransmission_pointer+0x1>
    5394:	90 93 e4 00 	sts	0x00E4, r25	; 0x8000e4 <rx_buffer_pointer_out+0x1>
    5398:	80 93 e3 00 	sts	0x00E3, r24	; 0x8000e3 <rx_buffer_pointer_out>
			telnetd_status.ack_wait = 0;
    539c:	80 91 69 03 	lds	r24, 0x0369	; 0x800369 <telnetd_status>
    53a0:	8e 7f       	andi	r24, 0xFE	; 254
    53a2:	80 93 69 03 	sts	0x0369, r24	; 0x800369 <telnetd_status>
		}
		
		for (int a = TCP_DATA_START_VAR;a<(TCP_DATA_END_VAR+1);a++)
    53a6:	e0 e7       	ldi	r30, 0x70	; 112
    53a8:	f3 e0       	ldi	r31, 0x03	; 3
    53aa:	a6 a5       	ldd	r26, Z+46	; 0x2e
    53ac:	a0 7f       	andi	r26, 0xF0	; 240
    53ae:	b0 e0       	ldi	r27, 0x00	; 0
    53b0:	b5 95       	asr	r27
    53b2:	a7 95       	ror	r26
    53b4:	b5 95       	asr	r27
    53b6:	a7 95       	ror	r26
    53b8:	9d 01       	movw	r18, r26
    53ba:	2e 5d       	subi	r18, 0xDE	; 222
    53bc:	3f 4f       	sbci	r19, 0xFF	; 255
    53be:	80 89       	ldd	r24, Z+16	; 0x10
    53c0:	90 e0       	ldi	r25, 0x00	; 0
    53c2:	98 2f       	mov	r25, r24
    53c4:	88 27       	eor	r24, r24
    53c6:	61 89       	ldd	r22, Z+17	; 0x11
    53c8:	86 0f       	add	r24, r22
    53ca:	91 1d       	adc	r25, r1
    53cc:	8a 1b       	sub	r24, r26
    53ce:	9b 0b       	sbc	r25, r27
    53d0:	83 96       	adiw	r24, 0x23	; 35
    53d2:	28 17       	cp	r18, r24
    53d4:	39 07       	cpc	r19, r25
    53d6:	44 f5       	brge	.+80     	; 0x5428 <telnetd+0x1ca>
    53d8:	ae 56       	subi	r26, 0x6E	; 110
    53da:	bc 4f       	sbci	r27, 0xFC	; 252
		{
			tcp_entry[index].time = TCP_TIME_OFF;
    53dc:	86 e1       	ldi	r24, 0x16	; 22
    53de:	84 9f       	mul	r24, r20
    53e0:	e0 01       	movw	r28, r0
    53e2:	85 9f       	mul	r24, r21
    53e4:	d0 0d       	add	r29, r0
    53e6:	11 24       	eor	r1, r1
    53e8:	cf 56       	subi	r28, 0x6F	; 111
    53ea:	dd 4f       	sbci	r29, 0xFD	; 253
    53ec:	0f ef       	ldi	r16, 0xFF	; 255
    53ee:	08 83       	st	Y, r16
                    usart_rx_buffer[buffercounter++] = receive_char;    
                }
            #else
                #if !USE_CAM  
                    //Warten solange bis Zeichen gesendet wurde
                    while(!(USR & (1<<UDRE)));
    53f0:	5d 9b       	sbis	0x0b, 5	; 11
    53f2:	fe cf       	rjmp	.-4      	; 0x53f0 <telnetd+0x192>
                    //Ausgabe des Zeichens
                    UDR = eth_buffer[a];
    53f4:	8d 91       	ld	r24, X+
    53f6:	8c b9       	out	0x0c, r24	; 12
			tcp_entry[index].time = TCP_TIME_OFF;
			rx_buffer_pointer_out = retransmission_pointer;
			telnetd_status.ack_wait = 0;
		}
		
		for (int a = TCP_DATA_START_VAR;a<(TCP_DATA_END_VAR+1);a++)
    53f8:	2f 5f       	subi	r18, 0xFF	; 255
    53fa:	3f 4f       	sbci	r19, 0xFF	; 255
    53fc:	80 89       	ldd	r24, Z+16	; 0x10
    53fe:	90 e0       	ldi	r25, 0x00	; 0
    5400:	98 2f       	mov	r25, r24
    5402:	88 27       	eor	r24, r24
    5404:	61 89       	ldd	r22, Z+17	; 0x11
    5406:	7c 01       	movw	r14, r24
    5408:	e6 0e       	add	r14, r22
    540a:	f1 1c       	adc	r15, r1
    540c:	86 a5       	ldd	r24, Z+46	; 0x2e
    540e:	80 7f       	andi	r24, 0xF0	; 240
    5410:	90 e0       	ldi	r25, 0x00	; 0
    5412:	95 95       	asr	r25
    5414:	87 95       	ror	r24
    5416:	95 95       	asr	r25
    5418:	87 95       	ror	r24
    541a:	e8 1a       	sub	r14, r24
    541c:	f9 0a       	sbc	r15, r25
    541e:	c7 01       	movw	r24, r14
    5420:	83 96       	adiw	r24, 0x23	; 35
    5422:	28 17       	cp	r18, r24
    5424:	39 07       	cpc	r19, r25
    5426:	1c f3       	brlt	.-58     	; 0x53ee <telnetd+0x190>
                    //Ausgabe des Zeichens
                    UDR = eth_buffer[a];
                #endif
            #endif
		}	
		tcp_entry[index].status =  ACK_FLAG;
    5428:	86 e1       	ldi	r24, 0x16	; 22
    542a:	84 9f       	mul	r24, r20
    542c:	f0 01       	movw	r30, r0
    542e:	85 9f       	mul	r24, r21
    5430:	f0 0d       	add	r31, r0
    5432:	11 24       	eor	r1, r1
    5434:	e2 58       	subi	r30, 0x82	; 130
    5436:	fd 4f       	sbci	r31, 0xFD	; 253
    5438:	80 e1       	ldi	r24, 0x10	; 16
    543a:	80 8b       	std	Z+16, r24	; 0x10
		create_new_tcp_packet(0,index);
    543c:	61 2f       	mov	r22, r17
    543e:	80 e0       	ldi	r24, 0x00	; 0
    5440:	90 e0       	ldi	r25, 0x00	; 0
    5442:	0e 94 a7 23 	call	0x474e	; 0x474e <create_new_tcp_packet>
		return;
    5446:	45 c0       	rjmp	.+138    	; 0x54d2 <telnetd+0x274>
	}
	
	//Ack erhalten vom gesendeten Packet
	if ((tcp_entry[index].app_status > 1)&&(tcp_entry[index].status&ACK_FLAG)&&(telnetd_status.ack_wait))
    5448:	86 e1       	ldi	r24, 0x16	; 22
    544a:	84 9f       	mul	r24, r20
    544c:	f0 01       	movw	r30, r0
    544e:	85 9f       	mul	r24, r21
    5450:	f0 0d       	add	r31, r0
    5452:	11 24       	eor	r1, r1
    5454:	e2 58       	subi	r30, 0x82	; 130
    5456:	fd 4f       	sbci	r31, 0xFD	; 253
    5458:	81 89       	ldd	r24, Z+17	; 0x11
    545a:	92 89       	ldd	r25, Z+18	; 0x12
    545c:	02 97       	sbiw	r24, 0x02	; 2
    545e:	38 f1       	brcs	.+78     	; 0x54ae <telnetd+0x250>
    5460:	86 e1       	ldi	r24, 0x16	; 22
    5462:	84 9f       	mul	r24, r20
    5464:	f0 01       	movw	r30, r0
    5466:	85 9f       	mul	r24, r21
    5468:	f0 0d       	add	r31, r0
    546a:	11 24       	eor	r1, r1
    546c:	e2 58       	subi	r30, 0x82	; 130
    546e:	fd 4f       	sbci	r31, 0xFD	; 253
    5470:	80 89       	ldd	r24, Z+16	; 0x10
    5472:	84 ff       	sbrs	r24, 4
    5474:	1c c0       	rjmp	.+56     	; 0x54ae <telnetd+0x250>
    5476:	80 91 69 03 	lds	r24, 0x0369	; 0x800369 <telnetd_status>
    547a:	80 ff       	sbrs	r24, 0
    547c:	18 c0       	rjmp	.+48     	; 0x54ae <telnetd+0x250>
	{
		tcp_entry[index].time = TCP_TIME_OFF;
    547e:	86 e1       	ldi	r24, 0x16	; 22
    5480:	84 9f       	mul	r24, r20
    5482:	f0 01       	movw	r30, r0
    5484:	85 9f       	mul	r24, r21
    5486:	f0 0d       	add	r31, r0
    5488:	11 24       	eor	r1, r1
    548a:	e2 58       	subi	r30, 0x82	; 130
    548c:	fd 4f       	sbci	r31, 0xFD	; 253
    548e:	8f ef       	ldi	r24, 0xFF	; 255
    5490:	83 8b       	std	Z+19, r24	; 0x13
		rx_buffer_pointer_out = retransmission_pointer;
    5492:	80 91 67 03 	lds	r24, 0x0367	; 0x800367 <retransmission_pointer>
    5496:	90 91 68 03 	lds	r25, 0x0368	; 0x800368 <retransmission_pointer+0x1>
    549a:	90 93 e4 00 	sts	0x00E4, r25	; 0x8000e4 <rx_buffer_pointer_out+0x1>
    549e:	80 93 e3 00 	sts	0x00E3, r24	; 0x8000e3 <rx_buffer_pointer_out>
		telnetd_status.ack_wait = 0;
    54a2:	80 91 69 03 	lds	r24, 0x0369	; 0x800369 <telnetd_status>
    54a6:	8e 7f       	andi	r24, 0xFE	; 254
    54a8:	80 93 69 03 	sts	0x0369, r24	; 0x800369 <telnetd_status>
		return;
    54ac:	12 c0       	rjmp	.+36     	; 0x54d2 <telnetd+0x274>
	}
	
	//Time out kein ack angekommen
	if (tcp_entry[index].status == 0) 
    54ae:	86 e1       	ldi	r24, 0x16	; 22
    54b0:	84 9f       	mul	r24, r20
    54b2:	f0 01       	movw	r30, r0
    54b4:	85 9f       	mul	r24, r21
    54b6:	f0 0d       	add	r31, r0
    54b8:	11 24       	eor	r1, r1
    54ba:	e2 58       	subi	r30, 0x82	; 130
    54bc:	fd 4f       	sbci	r31, 0xFD	; 253
    54be:	80 89       	ldd	r24, Z+16	; 0x10
    54c0:	81 11       	cpse	r24, r1
    54c2:	07 c0       	rjmp	.+14     	; 0x54d2 <telnetd+0x274>
	{
		//Daten nochmal senden
		telnetd_status.ack_wait = 0;
    54c4:	80 91 69 03 	lds	r24, 0x0369	; 0x800369 <telnetd_status>
    54c8:	8e 7f       	andi	r24, 0xFE	; 254
    54ca:	80 93 69 03 	sts	0x0369, r24	; 0x800369 <telnetd_status>
		telnetd_send_data ();
    54ce:	0e 94 a6 28 	call	0x514c	; 0x514c <telnetd_send_data>
		return;
	}
	
	return;
}
    54d2:	df 91       	pop	r29
    54d4:	cf 91       	pop	r28
    54d6:	1f 91       	pop	r17
    54d8:	0f 91       	pop	r16
    54da:	ff 90       	pop	r15
    54dc:	ef 90       	pop	r14
    54de:	08 95       	ret

000054e0 <timer_init>:
			while(ASSR & 0x07);
			//Capture/Compare-Interrupt aktiv
			TIMSK = (1<<OCIE2);			
		#endif
	#else
			TCCR1B |= (1<<WGM12) | (1<<CS10 | 0<<CS11 | 1<<CS12);
    54e0:	8e b5       	in	r24, 0x2e	; 46
    54e2:	8d 60       	ori	r24, 0x0D	; 13
    54e4:	8e bd       	out	0x2e, r24	; 46
			TCNT1 = 0;
    54e6:	1d bc       	out	0x2d, r1	; 45
    54e8:	1c bc       	out	0x2c, r1	; 44
			OCR1A = (F_CPU / 1024) - 1;
    54ea:	88 e0       	ldi	r24, 0x08	; 8
    54ec:	9d e3       	ldi	r25, 0x3D	; 61
    54ee:	9b bd       	out	0x2b, r25	; 43
    54f0:	8a bd       	out	0x2a, r24	; 42
			TIMSK |= (1 << OCIE1A);
    54f2:	89 b7       	in	r24, 0x39	; 57
    54f4:	80 61       	ori	r24, 0x10	; 16
    54f6:	89 bf       	out	0x39, r24	; 57
    54f8:	08 95       	ret

000054fa <__vector_7>:
    ISR (TIMER2_COMP_vect)
	#endif
#else
	ISR (TIMER1_COMPA_vect)
#endif
{
    54fa:	1f 92       	push	r1
    54fc:	0f 92       	push	r0
    54fe:	0f b6       	in	r0, 0x3f	; 63
    5500:	0f 92       	push	r0
    5502:	11 24       	eor	r1, r1
    5504:	2f 93       	push	r18
    5506:	3f 93       	push	r19
    5508:	8f 93       	push	r24
    550a:	9f 93       	push	r25
    550c:	af 93       	push	r26
    550e:	bf 93       	push	r27
	//tick 1 second
	time++;
    5510:	80 91 04 03 	lds	r24, 0x0304	; 0x800304 <time>
    5514:	90 91 05 03 	lds	r25, 0x0305	; 0x800305 <time+0x1>
    5518:	a0 91 06 03 	lds	r26, 0x0306	; 0x800306 <time+0x2>
    551c:	b0 91 07 03 	lds	r27, 0x0307	; 0x800307 <time+0x3>
    5520:	01 96       	adiw	r24, 0x01	; 1
    5522:	a1 1d       	adc	r26, r1
    5524:	b1 1d       	adc	r27, r1
    5526:	80 93 04 03 	sts	0x0304, r24	; 0x800304 <time>
    552a:	90 93 05 03 	sts	0x0305, r25	; 0x800305 <time+0x1>
    552e:	a0 93 06 03 	sts	0x0306, r26	; 0x800306 <time+0x2>
    5532:	b0 93 07 03 	sts	0x0307, r27	; 0x800307 <time+0x3>
    if((stack_watchdog++) > WTT)  //emergency reset of the stack
    5536:	80 91 02 03 	lds	r24, 0x0302	; 0x800302 <stack_watchdog>
    553a:	90 91 03 03 	lds	r25, 0x0303	; 0x800303 <stack_watchdog+0x1>
    553e:	9c 01       	movw	r18, r24
    5540:	2f 5f       	subi	r18, 0xFF	; 255
    5542:	3f 4f       	sbci	r19, 0xFF	; 255
    5544:	30 93 03 03 	sts	0x0303, r19	; 0x800303 <stack_watchdog+0x1>
    5548:	20 93 02 03 	sts	0x0302, r18	; 0x800302 <stack_watchdog>
    554c:	81 3b       	cpi	r24, 0xB1	; 177
    554e:	94 40       	sbci	r25, 0x04	; 4
    5550:	18 f0       	brcs	.+6      	; 0x5558 <__vector_7+0x5e>
    {
        RESET();
    5552:	e0 e0       	ldi	r30, 0x00	; 0
    5554:	f0 e0       	ldi	r31, 0x00	; 0
    5556:	09 94       	ijmp
	}
    eth.timer = 1;
    5558:	80 91 68 02 	lds	r24, 0x0268	; 0x800268 <eth>
    555c:	82 60       	ori	r24, 0x02	; 2
    555e:	80 93 68 02 	sts	0x0268, r24	; 0x800268 <eth>
    #endif //USE_DHCP
	
	#if USE_ARTNET
	artnet_tick();
	#endif //USE_ARTNET
}
    5562:	bf 91       	pop	r27
    5564:	af 91       	pop	r26
    5566:	9f 91       	pop	r25
    5568:	8f 91       	pop	r24
    556a:	3f 91       	pop	r19
    556c:	2f 91       	pop	r18
    556e:	0f 90       	pop	r0
    5570:	0f be       	out	0x3f, r0	; 63
    5572:	0f 90       	pop	r0
    5574:	1f 90       	pop	r1
    5576:	18 95       	reti

00005578 <usart_init>:
void usart_init(unsigned long baudrate) 
{ 
#if !USE_CAM
	//Serielle Schnittstelle 1
  	//Enable TXEN im Register UCR TX-Data Enable
	UCR =(1 << TXEN | 1 << RXEN | 1<< RXCIE);
    5578:	28 e9       	ldi	r18, 0x98	; 152
    557a:	2a b9       	out	0x0a, r18	; 10
	// 1 = Parity Mode Enabled, Even Parity
	// 2 = Parity Mode Enabled, Odd Parity
	//UCSRC = 0x06 + ((parity+1)<<4);
	//UCSRC |= (1<<USBS);
	//Teiler wird gesetzt 
	UBRR=(F_CPU / (baudrate * 16L) - 1);
    557c:	dc 01       	movw	r26, r24
    557e:	cb 01       	movw	r24, r22
    5580:	88 0f       	add	r24, r24
    5582:	99 1f       	adc	r25, r25
    5584:	aa 1f       	adc	r26, r26
    5586:	bb 1f       	adc	r27, r27
    5588:	88 0f       	add	r24, r24
    558a:	99 1f       	adc	r25, r25
    558c:	aa 1f       	adc	r26, r26
    558e:	bb 1f       	adc	r27, r27
    5590:	9c 01       	movw	r18, r24
    5592:	ad 01       	movw	r20, r26
    5594:	22 0f       	add	r18, r18
    5596:	33 1f       	adc	r19, r19
    5598:	44 1f       	adc	r20, r20
    559a:	55 1f       	adc	r21, r21
    559c:	22 0f       	add	r18, r18
    559e:	33 1f       	adc	r19, r19
    55a0:	44 1f       	adc	r20, r20
    55a2:	55 1f       	adc	r21, r21
    55a4:	60 e0       	ldi	r22, 0x00	; 0
    55a6:	74 e2       	ldi	r23, 0x24	; 36
    55a8:	84 ef       	ldi	r24, 0xF4	; 244
    55aa:	90 e0       	ldi	r25, 0x00	; 0
    55ac:	0e 94 b5 2c 	call	0x596a	; 0x596a <__udivmodsi4>
    55b0:	21 50       	subi	r18, 0x01	; 1
    55b2:	29 b9       	out	0x09, r18	; 9
	usart_status.usart_disable = 0;
    55b4:	80 91 c7 01 	lds	r24, 0x01C7	; 0x8001c7 <usart_status>
    55b8:	8b 7f       	andi	r24, 0xFB	; 251
    55ba:	80 93 c7 01 	sts	0x01C7, r24	; 0x8001c7 <usart_status>
    55be:	08 95       	ret

000055c0 <usart_write_char>:
        }
    }
    return;
#else
    #if !USE_CAM
        if(!usart_status.usart_disable)
    55c0:	90 91 c7 01 	lds	r25, 0x01C7	; 0x8001c7 <usart_status>
    55c4:	92 fd       	sbrc	r25, 2
    55c6:	03 c0       	rjmp	.+6      	; 0x55ce <usart_write_char+0xe>
        {
            //Warten solange bis Zeichen gesendet wurde
            while(!(USR & (1<<UDRE)));
    55c8:	5d 9b       	sbis	0x0b, 5	; 11
    55ca:	fe cf       	rjmp	.-4      	; 0x55c8 <usart_write_char+0x8>
            //Ausgabe des Zeichens
            UDR = c;
    55cc:	8c b9       	out	0x0c, r24	; 12
    55ce:	08 95       	ret

000055d0 <usart_write_str>:
}

//----------------------------------------------------------------------------
//Ausgabe eines Strings
void usart_write_str(char *str)
{
    55d0:	cf 93       	push	r28
    55d2:	df 93       	push	r29
    55d4:	ec 01       	movw	r28, r24
	while (*str)
    55d6:	88 81       	ld	r24, Y
    55d8:	88 23       	and	r24, r24
    55da:	31 f0       	breq	.+12     	; 0x55e8 <usart_write_str+0x18>
    55dc:	21 96       	adiw	r28, 0x01	; 1
	{
		usart_write_char(*str++);
    55de:	0e 94 e0 2a 	call	0x55c0	; 0x55c0 <usart_write_char>

//----------------------------------------------------------------------------
//Ausgabe eines Strings
void usart_write_str(char *str)
{
	while (*str)
    55e2:	89 91       	ld	r24, Y+
    55e4:	81 11       	cpse	r24, r1
    55e6:	fb cf       	rjmp	.-10     	; 0x55de <usart_write_str+0xe>
	{
		usart_write_char(*str++);
	}
}
    55e8:	df 91       	pop	r29
    55ea:	cf 91       	pop	r28
    55ec:	08 95       	ret

000055ee <usart_write_P>:
#endif
}

//------------------------------------------------------------------------------
void usart_write_P (const char *Buffer,...)
{
    55ee:	2f 92       	push	r2
    55f0:	3f 92       	push	r3
    55f2:	4f 92       	push	r4
    55f4:	5f 92       	push	r5
    55f6:	6f 92       	push	r6
    55f8:	7f 92       	push	r7
    55fa:	8f 92       	push	r8
    55fc:	9f 92       	push	r9
    55fe:	af 92       	push	r10
    5600:	bf 92       	push	r11
    5602:	cf 92       	push	r12
    5604:	df 92       	push	r13
    5606:	ef 92       	push	r14
    5608:	ff 92       	push	r15
    560a:	0f 93       	push	r16
    560c:	1f 93       	push	r17
    560e:	cf 93       	push	r28
    5610:	df 93       	push	r29
    5612:	cd b7       	in	r28, 0x3d	; 61
    5614:	de b7       	in	r29, 0x3e	; 62
    5616:	64 97       	sbiw	r28, 0x14	; 20
    5618:	0f b6       	in	r0, 0x3f	; 63
    561a:	f8 94       	cli
    561c:	de bf       	out	0x3e, r29	; 62
    561e:	0f be       	out	0x3f, r0	; 63
    5620:	cd bf       	out	0x3d, r28	; 61
    5622:	fe 01       	movw	r30, r28
    5624:	b9 96       	adiw	r30, 0x29	; 41
    5626:	01 91       	ld	r16, Z+
    5628:	11 91       	ld	r17, Z+
	va_list ap;
	va_start (ap, Buffer);	
    562a:	5f 01       	movw	r10, r30
	
	int format_flag;
	char str_buffer[10];
	char str_null_buffer[10];
	char move = 0;
    562c:	81 2c       	mov	r8, r1
				case 'x':
					Base = 16;
					//****************************
					ConversionLoop:
					//****************************
					itoa(va_arg(ap,int),str_buffer,Base);
    562e:	21 2c       	mov	r2, r1
					int b=0;
    5630:	61 2c       	mov	r6, r1
    5632:	51 2c       	mov	r5, r1
						str_null_buffer[tmp] = '\0';
						strcat(str_null_buffer,str_buffer);
						strcpy(str_buffer,str_null_buffer);
						}
					usart_write_str (str_buffer);
					move =0;
    5634:	71 2c       	mov	r7, r1
					if (b<move)
						{
						move -=b;
						for (tmp = 0;tmp<move;tmp++)
							{
							str_null_buffer[tmp] = '0';
    5636:	0f 2e       	mov	r0, r31
    5638:	f0 e3       	ldi	r31, 0x30	; 48
    563a:	9f 2e       	mov	r9, r31
    563c:	f0 2d       	mov	r31, r0
					goto ConversionLoop;
				case 'o':
					Base = 8;
					goto ConversionLoop;
				case 'x':
					Base = 16;
    563e:	68 94       	set
    5640:	44 24       	eor	r4, r4
    5642:	44 f8       	bld	r4, 4
					break;
				case 'i':
					Base = 10;
					goto ConversionLoop;
				case 'o':
					Base = 8;
    5644:	68 94       	set
    5646:	33 24       	eor	r3, r3
    5648:	33 f8       	bld	r3, 3
    564a:	01 c0       	rjmp	.+2      	; 0x564e <usart_write_P+0x60>
		by = pgm_read_byte(Buffer++);
		if(by==0) break; // end of format string
            
		if (by == '%')
		{
            by = pgm_read_byte(Buffer++);
    564c:	86 01       	movw	r16, r12
	char *ptr;
		
	//Ausgabe der Zeichen
    for(;;)
	{
		by = pgm_read_byte(Buffer++);
    564e:	78 01       	movw	r14, r16
    5650:	2f ef       	ldi	r18, 0xFF	; 255
    5652:	e2 1a       	sub	r14, r18
    5654:	f2 0a       	sbc	r15, r18
    5656:	f8 01       	movw	r30, r16
    5658:	84 91       	lpm	r24, Z
		if(by==0) break; // end of format string
    565a:	88 23       	and	r24, r24
    565c:	09 f4       	brne	.+2      	; 0x5660 <usart_write_P+0x72>
    565e:	cf c0       	rjmp	.+414    	; 0x57fe <usart_write_P+0x210>
            
		if (by == '%')
    5660:	85 32       	cpi	r24, 0x25	; 37
    5662:	09 f0       	breq	.+2      	; 0x5666 <usart_write_P+0x78>
    5664:	9f c0       	rjmp	.+318    	; 0x57a4 <usart_write_P+0x1b6>
		{
            by = pgm_read_byte(Buffer++);
    5666:	68 01       	movw	r12, r16
    5668:	f2 e0       	ldi	r31, 0x02	; 2
    566a:	cf 0e       	add	r12, r31
    566c:	d1 1c       	adc	r13, r1
    566e:	f7 01       	movw	r30, r14
    5670:	84 91       	lpm	r24, Z
			if (isdigit(by)>0)
    5672:	28 2f       	mov	r18, r24
    5674:	30 e0       	ldi	r19, 0x00	; 0
    5676:	20 53       	subi	r18, 0x30	; 48
    5678:	31 09       	sbc	r19, r1
    567a:	2a 30       	cpi	r18, 0x0A	; 10
    567c:	31 05       	cpc	r19, r1
    567e:	08 f0       	brcs	.+2      	; 0x5682 <usart_write_P+0x94>
    5680:	9f c0       	rjmp	.+318    	; 0x57c0 <usart_write_P+0x1d2>
				{
                                 
 				str_null_buffer[0] = by;
    5682:	8b 87       	std	Y+11, r24	; 0x0b
				str_null_buffer[1] = '\0';
    5684:	7c 86       	std	Y+12, r7	; 0x0c
				move = atoi(str_null_buffer);
    5686:	ce 01       	movw	r24, r28
    5688:	0b 96       	adiw	r24, 0x0b	; 11
    568a:	0e 94 ed 2d 	call	0x5bda	; 0x5bda <atoi>
    568e:	88 2e       	mov	r8, r24
                by = pgm_read_byte(Buffer++);
    5690:	0d 5f       	subi	r16, 0xFD	; 253
    5692:	1f 4f       	sbci	r17, 0xFF	; 255
    5694:	f6 01       	movw	r30, r12
    5696:	84 91       	lpm	r24, Z
				}

			switch (by)
    5698:	89 36       	cpi	r24, 0x69	; 105
    569a:	09 f4       	brne	.+2      	; 0x569e <usart_write_P+0xb0>
    569c:	a4 c0       	rjmp	.+328    	; 0x57e6 <usart_write_P+0x1f8>
    569e:	28 f4       	brcc	.+10     	; 0x56aa <usart_write_P+0xbc>
    56a0:	82 36       	cpi	r24, 0x62	; 98
    56a2:	a9 f1       	breq	.+106    	; 0x570e <usart_write_P+0x120>
    56a4:	83 36       	cpi	r24, 0x63	; 99
    56a6:	01 f1       	breq	.+64     	; 0x56e8 <usart_write_P+0xfa>
    56a8:	d2 cf       	rjmp	.-92     	; 0x564e <usart_write_P+0x60>
    56aa:	83 37       	cpi	r24, 0x73	; 115
    56ac:	31 f0       	breq	.+12     	; 0x56ba <usart_write_P+0xcc>
    56ae:	88 37       	cpi	r24, 0x78	; 120
    56b0:	51 f1       	breq	.+84     	; 0x5706 <usart_write_P+0x118>
    56b2:	8f 36       	cpi	r24, 0x6F	; 111
    56b4:	61 f6       	brne	.-104    	; 0x564e <usart_write_P+0x60>
    56b6:	23 c0       	rjmp	.+70     	; 0x56fe <usart_write_P+0x110>
		by = pgm_read_byte(Buffer++);
		if(by==0) break; // end of format string
            
		if (by == '%')
		{
            by = pgm_read_byte(Buffer++);
    56b8:	86 01       	movw	r16, r12
				}

			switch (by)
				{
                case 's':
                    ptr = va_arg(ap,char *);
    56ba:	f5 01       	movw	r30, r10
    56bc:	01 90       	ld	r0, Z+
    56be:	f0 81       	ld	r31, Z
    56c0:	e0 2d       	mov	r30, r0
    56c2:	22 e0       	ldi	r18, 0x02	; 2
    56c4:	a2 0e       	add	r10, r18
    56c6:	b1 1c       	adc	r11, r1
                    while(*ptr) { usart_write_char(*ptr++); }
    56c8:	80 81       	ld	r24, Z
    56ca:	88 23       	and	r24, r24
    56cc:	09 f4       	brne	.+2      	; 0x56d0 <usart_write_P+0xe2>
    56ce:	bf cf       	rjmp	.-130    	; 0x564e <usart_write_P+0x60>
    56d0:	7f 01       	movw	r14, r30
    56d2:	9f ef       	ldi	r25, 0xFF	; 255
    56d4:	e9 1a       	sub	r14, r25
    56d6:	f9 0a       	sbc	r15, r25
    56d8:	0e 94 e0 2a 	call	0x55c0	; 0x55c0 <usart_write_char>
    56dc:	f7 01       	movw	r30, r14
    56de:	81 91       	ld	r24, Z+
    56e0:	7f 01       	movw	r14, r30
    56e2:	81 11       	cpse	r24, r1
    56e4:	f9 cf       	rjmp	.-14     	; 0x56d8 <usart_write_P+0xea>
    56e6:	b3 cf       	rjmp	.-154    	; 0x564e <usart_write_P+0x60>
				{
                                 
 				str_null_buffer[0] = by;
				str_null_buffer[1] = '\0';
				move = atoi(str_null_buffer);
                by = pgm_read_byte(Buffer++);
    56e8:	68 01       	movw	r12, r16
				case 'b':
					Base = 2;
					goto ConversionLoop;
				case 'c':
					//Int to char
					format_flag = va_arg(ap,int);
    56ea:	85 01       	movw	r16, r10
    56ec:	0e 5f       	subi	r16, 0xFE	; 254
    56ee:	1f 4f       	sbci	r17, 0xFF	; 255
					usart_write_char (format_flag++);
    56f0:	f5 01       	movw	r30, r10
    56f2:	80 81       	ld	r24, Z
    56f4:	0e 94 e0 2a 	call	0x55c0	; 0x55c0 <usart_write_char>
				case 'b':
					Base = 2;
					goto ConversionLoop;
				case 'c':
					//Int to char
					format_flag = va_arg(ap,int);
    56f8:	58 01       	movw	r10, r16
					usart_write_char (format_flag++);
					break;
    56fa:	86 01       	movw	r16, r12
    56fc:	a8 cf       	rjmp	.-176    	; 0x564e <usart_write_P+0x60>
				{
                                 
 				str_null_buffer[0] = by;
				str_null_buffer[1] = '\0';
				move = atoi(str_null_buffer);
                by = pgm_read_byte(Buffer++);
    56fe:	68 01       	movw	r12, r16
				case 'i':
					Base = 10;
					goto ConversionLoop;
				case 'o':
					Base = 8;
					goto ConversionLoop;
    5700:	86 01       	movw	r16, r12
					break;
				case 'i':
					Base = 10;
					goto ConversionLoop;
				case 'o':
					Base = 8;
    5702:	43 2d       	mov	r20, r3
					goto ConversionLoop;
    5704:	74 c0       	rjmp	.+232    	; 0x57ee <usart_write_P+0x200>
				{
                                 
 				str_null_buffer[0] = by;
				str_null_buffer[1] = '\0';
				move = atoi(str_null_buffer);
                by = pgm_read_byte(Buffer++);
    5706:	68 01       	movw	r12, r16
    5708:	86 01       	movw	r16, r12
					goto ConversionLoop;
				case 'o':
					Base = 8;
					goto ConversionLoop;
				case 'x':
					Base = 16;
    570a:	44 2d       	mov	r20, r4
    570c:	70 c0       	rjmp	.+224    	; 0x57ee <usart_write_P+0x200>
					//****************************
					ConversionLoop:
					//****************************
					itoa(va_arg(ap,int),str_buffer,Base);
    570e:	f5 01       	movw	r30, r10
    5710:	80 81       	ld	r24, Z
    5712:	91 81       	ldd	r25, Z+1	; 0x01
    5714:	f2 e0       	ldi	r31, 0x02	; 2
    5716:	af 0e       	add	r10, r31
    5718:	b1 1c       	adc	r11, r1
    571a:	42 e0       	ldi	r20, 0x02	; 2
    571c:	52 2d       	mov	r21, r2
extern __inline__ __ATTR_GNU_INLINE__
char *itoa (int __val, char *__s, int __radix)
{
    if (!__builtin_constant_p (__radix)) {
	extern char *__itoa (int, char *, int);
	return __itoa (__val, __s, __radix);
    571e:	be 01       	movw	r22, r28
    5720:	6f 5f       	subi	r22, 0xFF	; 255
    5722:	7f 4f       	sbci	r23, 0xFF	; 255
    5724:	0e 94 d7 2e 	call	0x5dae	; 0x5dae <itoa>
    5728:	fe 01       	movw	r30, r28
    572a:	31 96       	adiw	r30, 0x01	; 1
					int b=0;
    572c:	86 2d       	mov	r24, r6
    572e:	95 2d       	mov	r25, r5
					while (str_buffer[b++] != 0){};
    5730:	01 c0       	rjmp	.+2      	; 0x5734 <usart_write_P+0x146>
    5732:	ca 01       	movw	r24, r20
    5734:	ac 01       	movw	r20, r24
    5736:	4f 5f       	subi	r20, 0xFF	; 255
    5738:	5f 4f       	sbci	r21, 0xFF	; 255
    573a:	21 91       	ld	r18, Z+
    573c:	21 11       	cpse	r18, r1
    573e:	f9 cf       	rjmp	.-14     	; 0x5732 <usart_write_P+0x144>
					b--;
					if (b<move)
    5740:	28 2d       	mov	r18, r8
    5742:	30 e0       	ldi	r19, 0x00	; 0
    5744:	82 17       	cp	r24, r18
    5746:	93 07       	cpc	r25, r19
    5748:	3c f5       	brge	.+78     	; 0x5798 <usart_write_P+0x1aa>
						{
						move -=b;
    574a:	88 1a       	sub	r8, r24
						for (tmp = 0;tmp<move;tmp++)
    574c:	28 2d       	mov	r18, r8
    574e:	30 e0       	ldi	r19, 0x00	; 0
    5750:	12 16       	cp	r1, r18
    5752:	13 06       	cpc	r1, r19
    5754:	54 f4       	brge	.+20     	; 0x576a <usart_write_P+0x17c>
    5756:	fe 01       	movw	r30, r28
    5758:	3b 96       	adiw	r30, 0x0b	; 11
    575a:	cf 01       	movw	r24, r30
    575c:	88 0d       	add	r24, r8
    575e:	91 1d       	adc	r25, r1
							{
							str_null_buffer[tmp] = '0';
    5760:	91 92       	st	Z+, r9
					while (str_buffer[b++] != 0){};
					b--;
					if (b<move)
						{
						move -=b;
						for (tmp = 0;tmp<move;tmp++)
    5762:	8e 17       	cp	r24, r30
    5764:	9f 07       	cpc	r25, r31
    5766:	e1 f7       	brne	.-8      	; 0x5760 <usart_write_P+0x172>
    5768:	02 c0       	rjmp	.+4      	; 0x576e <usart_write_P+0x180>
    576a:	26 2d       	mov	r18, r6
    576c:	35 2d       	mov	r19, r5
							{
							str_null_buffer[tmp] = '0';
							}
						//tmp ++;
						str_null_buffer[tmp] = '\0';
    576e:	eb e0       	ldi	r30, 0x0B	; 11
    5770:	f0 e0       	ldi	r31, 0x00	; 0
    5772:	ec 0f       	add	r30, r28
    5774:	fd 1f       	adc	r31, r29
    5776:	e2 0f       	add	r30, r18
    5778:	f3 1f       	adc	r31, r19
    577a:	10 82       	st	Z, r1
						strcat(str_null_buffer,str_buffer);
    577c:	be 01       	movw	r22, r28
    577e:	6f 5f       	subi	r22, 0xFF	; 255
    5780:	7f 4f       	sbci	r23, 0xFF	; 255
    5782:	ce 01       	movw	r24, r28
    5784:	0b 96       	adiw	r24, 0x0b	; 11
    5786:	0e 94 a2 2e 	call	0x5d44	; 0x5d44 <strcat>
						strcpy(str_buffer,str_null_buffer);
    578a:	be 01       	movw	r22, r28
    578c:	65 5f       	subi	r22, 0xF5	; 245
    578e:	7f 4f       	sbci	r23, 0xFF	; 255
    5790:	ce 01       	movw	r24, r28
    5792:	01 96       	adiw	r24, 0x01	; 1
    5794:	0e 94 ad 2e 	call	0x5d5a	; 0x5d5a <strcpy>
						}
					usart_write_str (str_buffer);
    5798:	ce 01       	movw	r24, r28
    579a:	01 96       	adiw	r24, 0x01	; 1
    579c:	0e 94 e8 2a 	call	0x55d0	; 0x55d0 <usart_write_str>
					move =0;
    57a0:	87 2c       	mov	r8, r7
					break;
    57a2:	55 cf       	rjmp	.-342    	; 0x564e <usart_write_P+0x60>
				}
			
			}	
		else
		{
			usart_write_char ( by );	
    57a4:	0e 94 e0 2a 	call	0x55c0	; 0x55c0 <usart_write_char>
	char *ptr;
		
	//Ausgabe der Zeichen
    for(;;)
	{
		by = pgm_read_byte(Buffer++);
    57a8:	87 01       	movw	r16, r14
    57aa:	51 cf       	rjmp	.-350    	; 0x564e <usart_write_P+0x60>
				case 'x':
					Base = 16;
					//****************************
					ConversionLoop:
					//****************************
					itoa(va_arg(ap,int),str_buffer,Base);
    57ac:	f5 01       	movw	r30, r10
    57ae:	80 81       	ld	r24, Z
    57b0:	91 81       	ldd	r25, Z+1	; 0x01
    57b2:	22 e0       	ldi	r18, 0x02	; 2
    57b4:	a2 0e       	add	r10, r18
    57b6:	b1 1c       	adc	r11, r1
		by = pgm_read_byte(Buffer++);
		if(by==0) break; // end of format string
            
		if (by == '%')
		{
            by = pgm_read_byte(Buffer++);
    57b8:	86 01       	movw	r16, r12
				case 'x':
					Base = 16;
					//****************************
					ConversionLoop:
					//****************************
					itoa(va_arg(ap,int),str_buffer,Base);
    57ba:	42 e0       	ldi	r20, 0x02	; 2
    57bc:	52 2d       	mov	r21, r2
    57be:	af cf       	rjmp	.-162    	; 0x571e <usart_write_P+0x130>
				str_null_buffer[1] = '\0';
				move = atoi(str_null_buffer);
                by = pgm_read_byte(Buffer++);
				}

			switch (by)
    57c0:	89 36       	cpi	r24, 0x69	; 105
    57c2:	99 f0       	breq	.+38     	; 0x57ea <usart_write_P+0x1fc>
    57c4:	30 f4       	brcc	.+12     	; 0x57d2 <usart_write_P+0x1e4>
    57c6:	82 36       	cpi	r24, 0x62	; 98
    57c8:	89 f3       	breq	.-30     	; 0x57ac <usart_write_P+0x1be>
    57ca:	83 36       	cpi	r24, 0x63	; 99
    57cc:	09 f4       	brne	.+2      	; 0x57d0 <usart_write_P+0x1e2>
    57ce:	8d cf       	rjmp	.-230    	; 0x56ea <usart_write_P+0xfc>
    57d0:	3d cf       	rjmp	.-390    	; 0x564c <usart_write_P+0x5e>
    57d2:	83 37       	cpi	r24, 0x73	; 115
    57d4:	09 f4       	brne	.+2      	; 0x57d8 <usart_write_P+0x1ea>
    57d6:	70 cf       	rjmp	.-288    	; 0x56b8 <usart_write_P+0xca>
    57d8:	88 37       	cpi	r24, 0x78	; 120
    57da:	09 f4       	brne	.+2      	; 0x57de <usart_write_P+0x1f0>
    57dc:	95 cf       	rjmp	.-214    	; 0x5708 <usart_write_P+0x11a>
    57de:	8f 36       	cpi	r24, 0x6F	; 111
    57e0:	09 f0       	breq	.+2      	; 0x57e4 <usart_write_P+0x1f6>
    57e2:	34 cf       	rjmp	.-408    	; 0x564c <usart_write_P+0x5e>
    57e4:	8d cf       	rjmp	.-230    	; 0x5700 <usart_write_P+0x112>
					//Int to char
					format_flag = va_arg(ap,int);
					usart_write_char (format_flag++);
					break;
				case 'i':
					Base = 10;
    57e6:	4a e0       	ldi	r20, 0x0A	; 10
    57e8:	02 c0       	rjmp	.+4      	; 0x57ee <usart_write_P+0x200>
		by = pgm_read_byte(Buffer++);
		if(by==0) break; // end of format string
            
		if (by == '%')
		{
            by = pgm_read_byte(Buffer++);
    57ea:	86 01       	movw	r16, r12
					//Int to char
					format_flag = va_arg(ap,int);
					usart_write_char (format_flag++);
					break;
				case 'i':
					Base = 10;
    57ec:	4a e0       	ldi	r20, 0x0A	; 10
				case 'x':
					Base = 16;
					//****************************
					ConversionLoop:
					//****************************
					itoa(va_arg(ap,int),str_buffer,Base);
    57ee:	50 e0       	ldi	r21, 0x00	; 0
    57f0:	f5 01       	movw	r30, r10
    57f2:	80 81       	ld	r24, Z
    57f4:	91 81       	ldd	r25, Z+1	; 0x01
    57f6:	e2 e0       	ldi	r30, 0x02	; 2
    57f8:	ae 0e       	add	r10, r30
    57fa:	b1 1c       	adc	r11, r1
    57fc:	90 cf       	rjmp	.-224    	; 0x571e <usart_write_P+0x130>
		{
			usart_write_char ( by );	
		}
	}
	va_end(ap);
}
    57fe:	64 96       	adiw	r28, 0x14	; 20
    5800:	0f b6       	in	r0, 0x3f	; 63
    5802:	f8 94       	cli
    5804:	de bf       	out	0x3e, r29	; 62
    5806:	0f be       	out	0x3f, r0	; 63
    5808:	cd bf       	out	0x3d, r28	; 61
    580a:	df 91       	pop	r29
    580c:	cf 91       	pop	r28
    580e:	1f 91       	pop	r17
    5810:	0f 91       	pop	r16
    5812:	ff 90       	pop	r15
    5814:	ef 90       	pop	r14
    5816:	df 90       	pop	r13
    5818:	cf 90       	pop	r12
    581a:	bf 90       	pop	r11
    581c:	af 90       	pop	r10
    581e:	9f 90       	pop	r9
    5820:	8f 90       	pop	r8
    5822:	7f 90       	pop	r7
    5824:	6f 90       	pop	r6
    5826:	5f 90       	pop	r5
    5828:	4f 90       	pop	r4
    582a:	3f 90       	pop	r3
    582c:	2f 90       	pop	r2
    582e:	08 95       	ret

00005830 <__vector_13>:
//----------------------------------------------------------------------------
//Empfang eines Zeichens
#if !USE_CAM
#if !USE_ARTNET
ISR (USART_RX)
{
    5830:	1f 92       	push	r1
    5832:	0f 92       	push	r0
    5834:	0f b6       	in	r0, 0x3f	; 63
    5836:	0f 92       	push	r0
    5838:	11 24       	eor	r1, r1
    583a:	2f 93       	push	r18
    583c:	3f 93       	push	r19
    583e:	4f 93       	push	r20
    5840:	5f 93       	push	r21
    5842:	6f 93       	push	r22
    5844:	7f 93       	push	r23
    5846:	8f 93       	push	r24
    5848:	9f 93       	push	r25
    584a:	af 93       	push	r26
    584c:	bf 93       	push	r27
    584e:	cf 93       	push	r28
    5850:	ef 93       	push	r30
    5852:	ff 93       	push	r31
	if(!usart_status.usart_disable)
    5854:	80 91 c7 01 	lds	r24, 0x01C7	; 0x8001c7 <usart_status>
    5858:	82 fd       	sbrc	r24, 2
    585a:	54 c0       	rjmp	.+168    	; 0x5904 <__vector_13+0xd4>
	{
		unsigned char receive_char;
		receive_char = (UDR);
    585c:	cc b1       	in	r28, 0x0c	; 12
		
		#if USART_ECHO
		usart_write_char(receive_char);
    585e:	8c 2f       	mov	r24, r28
    5860:	0e 94 e0 2a 	call	0x55c0	; 0x55c0 <usart_write_char>
		#endif
	
		if (usart_status.usart_ready)
    5864:	80 91 c7 01 	lds	r24, 0x01C7	; 0x8001c7 <usart_status>
    5868:	80 ff       	sbrs	r24, 0
    586a:	06 c0       	rjmp	.+12     	; 0x5878 <__vector_13+0x48>
		{
			usart_status.usart_rx_ovl = 1;
    586c:	80 91 c7 01 	lds	r24, 0x01C7	; 0x8001c7 <usart_status>
    5870:	82 60       	ori	r24, 0x02	; 2
    5872:	80 93 c7 01 	sts	0x01C7, r24	; 0x8001c7 <usart_status>
			return; 
    5876:	67 c0       	rjmp	.+206    	; 0x5946 <__vector_13+0x116>
		}
        
        if (receive_char == 0x08)
    5878:	c8 30       	cpi	r28, 0x08	; 8
    587a:	89 f4       	brne	.+34     	; 0x589e <__vector_13+0x6e>
        {
            if (buffercounter) buffercounter--;
    587c:	80 91 c5 01 	lds	r24, 0x01C5	; 0x8001c5 <buffercounter>
    5880:	90 91 c6 01 	lds	r25, 0x01C6	; 0x8001c6 <buffercounter+0x1>
    5884:	89 2b       	or	r24, r25
    5886:	09 f4       	brne	.+2      	; 0x588a <__vector_13+0x5a>
    5888:	5e c0       	rjmp	.+188    	; 0x5946 <__vector_13+0x116>
    588a:	80 91 c5 01 	lds	r24, 0x01C5	; 0x8001c5 <buffercounter>
    588e:	90 91 c6 01 	lds	r25, 0x01C6	; 0x8001c6 <buffercounter+0x1>
    5892:	01 97       	sbiw	r24, 0x01	; 1
    5894:	90 93 c6 01 	sts	0x01C6, r25	; 0x8001c6 <buffercounter+0x1>
    5898:	80 93 c5 01 	sts	0x01C5, r24	; 0x8001c5 <buffercounter>
    589c:	54 c0       	rjmp	.+168    	; 0x5946 <__vector_13+0x116>
            return;
        }
    
		if (receive_char == '\r' && (!(usart_rx_buffer[buffercounter-1] == '\\')))
    589e:	cd 30       	cpi	r28, 0x0D	; 13
    58a0:	d1 f4       	brne	.+52     	; 0x58d6 <__vector_13+0xa6>
    58a2:	e0 91 c5 01 	lds	r30, 0x01C5	; 0x8001c5 <buffercounter>
    58a6:	f0 91 c6 01 	lds	r31, 0x01C6	; 0x8001c6 <buffercounter+0x1>
    58aa:	e9 53       	subi	r30, 0x39	; 57
    58ac:	fe 4f       	sbci	r31, 0xFE	; 254
    58ae:	80 81       	ld	r24, Z
    58b0:	8c 35       	cpi	r24, 0x5C	; 92
    58b2:	89 f0       	breq	.+34     	; 0x58d6 <__vector_13+0xa6>
		{
			usart_rx_buffer[buffercounter] = 0;
    58b4:	e0 91 c5 01 	lds	r30, 0x01C5	; 0x8001c5 <buffercounter>
    58b8:	f0 91 c6 01 	lds	r31, 0x01C6	; 0x8001c6 <buffercounter+0x1>
    58bc:	e8 53       	subi	r30, 0x38	; 56
    58be:	fe 4f       	sbci	r31, 0xFE	; 254
    58c0:	10 82       	st	Z, r1
			buffercounter = 0;
    58c2:	10 92 c6 01 	sts	0x01C6, r1	; 0x8001c6 <buffercounter+0x1>
    58c6:	10 92 c5 01 	sts	0x01C5, r1	; 0x8001c5 <buffercounter>
			usart_status.usart_ready = 1;
    58ca:	80 91 c7 01 	lds	r24, 0x01C7	; 0x8001c7 <usart_status>
    58ce:	81 60       	ori	r24, 0x01	; 1
    58d0:	80 93 c7 01 	sts	0x01C7, r24	; 0x8001c7 <usart_status>
			return;    
    58d4:	38 c0       	rjmp	.+112    	; 0x5946 <__vector_13+0x116>
		}
	
		if (buffercounter < BUFFER_SIZE - 1)
    58d6:	80 91 c5 01 	lds	r24, 0x01C5	; 0x8001c5 <buffercounter>
    58da:	90 91 c6 01 	lds	r25, 0x01C6	; 0x8001c6 <buffercounter+0x1>
    58de:	83 36       	cpi	r24, 0x63	; 99
    58e0:	91 05       	cpc	r25, r1
    58e2:	88 f5       	brcc	.+98     	; 0x5946 <__vector_13+0x116>
		{
			usart_rx_buffer[buffercounter++] = receive_char;    
    58e4:	80 91 c5 01 	lds	r24, 0x01C5	; 0x8001c5 <buffercounter>
    58e8:	90 91 c6 01 	lds	r25, 0x01C6	; 0x8001c6 <buffercounter+0x1>
    58ec:	9c 01       	movw	r18, r24
    58ee:	2f 5f       	subi	r18, 0xFF	; 255
    58f0:	3f 4f       	sbci	r19, 0xFF	; 255
    58f2:	30 93 c6 01 	sts	0x01C6, r19	; 0x8001c6 <buffercounter+0x1>
    58f6:	20 93 c5 01 	sts	0x01C5, r18	; 0x8001c5 <buffercounter>
    58fa:	fc 01       	movw	r30, r24
    58fc:	e8 53       	subi	r30, 0x38	; 56
    58fe:	fe 4f       	sbci	r31, 0xFE	; 254
    5900:	c0 83       	st	Z, r28
    5902:	21 c0       	rjmp	.+66     	; 0x5946 <__vector_13+0x116>
		}
	}
	else
	{
		if(rx_buffer_pointer_in == (rx_buffer_pointer_out - 1))
    5904:	e0 91 e5 00 	lds	r30, 0x00E5	; 0x8000e5 <rx_buffer_pointer_in>
    5908:	f0 91 e6 00 	lds	r31, 0x00E6	; 0x8000e6 <rx_buffer_pointer_in+0x1>
    590c:	80 91 e3 00 	lds	r24, 0x00E3	; 0x8000e3 <rx_buffer_pointer_out>
    5910:	90 91 e4 00 	lds	r25, 0x00E4	; 0x8000e4 <rx_buffer_pointer_out+0x1>
    5914:	01 97       	sbiw	r24, 0x01	; 1
    5916:	e8 17       	cp	r30, r24
    5918:	f9 07       	cpc	r31, r25
    591a:	a9 f0       	breq	.+42     	; 0x5946 <__vector_13+0x116>
		{
			//Datenverlust
			return;
		}
	
		*rx_buffer_pointer_in++ = UDR;
    591c:	cf 01       	movw	r24, r30
    591e:	01 96       	adiw	r24, 0x01	; 1
    5920:	90 93 e6 00 	sts	0x00E6, r25	; 0x8000e6 <rx_buffer_pointer_in+0x1>
    5924:	80 93 e5 00 	sts	0x00E5, r24	; 0x8000e5 <rx_buffer_pointer_in>
    5928:	8c b1       	in	r24, 0x0c	; 12
    592a:	80 83       	st	Z, r24
	
		if (rx_buffer_pointer_in == &usart_rx_buffer[BUFFER_SIZE-1])
    592c:	80 91 e5 00 	lds	r24, 0x00E5	; 0x8000e5 <rx_buffer_pointer_in>
    5930:	90 91 e6 00 	lds	r25, 0x00E6	; 0x8000e6 <rx_buffer_pointer_in+0x1>
    5934:	8b 52       	subi	r24, 0x2B	; 43
    5936:	92 40       	sbci	r25, 0x02	; 2
    5938:	31 f4       	brne	.+12     	; 0x5946 <__vector_13+0x116>
		{
			rx_buffer_pointer_in = &usart_rx_buffer[0];
    593a:	88 ec       	ldi	r24, 0xC8	; 200
    593c:	91 e0       	ldi	r25, 0x01	; 1
    593e:	90 93 e6 00 	sts	0x00E6, r25	; 0x8000e6 <rx_buffer_pointer_in+0x1>
    5942:	80 93 e5 00 	sts	0x00E5, r24	; 0x8000e5 <rx_buffer_pointer_in>
		}
	}
	return;
}
    5946:	ff 91       	pop	r31
    5948:	ef 91       	pop	r30
    594a:	cf 91       	pop	r28
    594c:	bf 91       	pop	r27
    594e:	af 91       	pop	r26
    5950:	9f 91       	pop	r25
    5952:	8f 91       	pop	r24
    5954:	7f 91       	pop	r23
    5956:	6f 91       	pop	r22
    5958:	5f 91       	pop	r21
    595a:	4f 91       	pop	r20
    595c:	3f 91       	pop	r19
    595e:	2f 91       	pop	r18
    5960:	0f 90       	pop	r0
    5962:	0f be       	out	0x3f, r0	; 63
    5964:	0f 90       	pop	r0
    5966:	1f 90       	pop	r1
    5968:	18 95       	reti

0000596a <__udivmodsi4>:
    596a:	a1 e2       	ldi	r26, 0x21	; 33
    596c:	1a 2e       	mov	r1, r26
    596e:	aa 1b       	sub	r26, r26
    5970:	bb 1b       	sub	r27, r27
    5972:	fd 01       	movw	r30, r26
    5974:	0d c0       	rjmp	.+26     	; 0x5990 <__udivmodsi4_ep>

00005976 <__udivmodsi4_loop>:
    5976:	aa 1f       	adc	r26, r26
    5978:	bb 1f       	adc	r27, r27
    597a:	ee 1f       	adc	r30, r30
    597c:	ff 1f       	adc	r31, r31
    597e:	a2 17       	cp	r26, r18
    5980:	b3 07       	cpc	r27, r19
    5982:	e4 07       	cpc	r30, r20
    5984:	f5 07       	cpc	r31, r21
    5986:	20 f0       	brcs	.+8      	; 0x5990 <__udivmodsi4_ep>
    5988:	a2 1b       	sub	r26, r18
    598a:	b3 0b       	sbc	r27, r19
    598c:	e4 0b       	sbc	r30, r20
    598e:	f5 0b       	sbc	r31, r21

00005990 <__udivmodsi4_ep>:
    5990:	66 1f       	adc	r22, r22
    5992:	77 1f       	adc	r23, r23
    5994:	88 1f       	adc	r24, r24
    5996:	99 1f       	adc	r25, r25
    5998:	1a 94       	dec	r1
    599a:	69 f7       	brne	.-38     	; 0x5976 <__udivmodsi4_loop>
    599c:	60 95       	com	r22
    599e:	70 95       	com	r23
    59a0:	80 95       	com	r24
    59a2:	90 95       	com	r25
    59a4:	9b 01       	movw	r18, r22
    59a6:	ac 01       	movw	r20, r24
    59a8:	bd 01       	movw	r22, r26
    59aa:	cf 01       	movw	r24, r30
    59ac:	08 95       	ret

000059ae <strtol>:
    59ae:	a0 e0       	ldi	r26, 0x00	; 0
    59b0:	b0 e0       	ldi	r27, 0x00	; 0
    59b2:	ed ed       	ldi	r30, 0xDD	; 221
    59b4:	fc e2       	ldi	r31, 0x2C	; 44
    59b6:	0c 94 53 2f 	jmp	0x5ea6	; 0x5ea6 <__prologue_saves__+0x2>
    59ba:	5c 01       	movw	r10, r24
    59bc:	6b 01       	movw	r12, r22
    59be:	7a 01       	movw	r14, r20
    59c0:	61 15       	cp	r22, r1
    59c2:	71 05       	cpc	r23, r1
    59c4:	19 f0       	breq	.+6      	; 0x59cc <strtol+0x1e>
    59c6:	fb 01       	movw	r30, r22
    59c8:	91 83       	std	Z+1, r25	; 0x01
    59ca:	80 83       	st	Z, r24
    59cc:	e1 14       	cp	r14, r1
    59ce:	f1 04       	cpc	r15, r1
    59d0:	29 f0       	breq	.+10     	; 0x59dc <strtol+0x2e>
    59d2:	c7 01       	movw	r24, r14
    59d4:	02 97       	sbiw	r24, 0x02	; 2
    59d6:	83 97       	sbiw	r24, 0x23	; 35
    59d8:	08 f0       	brcs	.+2      	; 0x59dc <strtol+0x2e>
    59da:	e5 c0       	rjmp	.+458    	; 0x5ba6 <strtol+0x1f8>
    59dc:	e5 01       	movw	r28, r10
    59de:	21 96       	adiw	r28, 0x01	; 1
    59e0:	f5 01       	movw	r30, r10
    59e2:	10 81       	ld	r17, Z
    59e4:	81 2f       	mov	r24, r17
    59e6:	90 e0       	ldi	r25, 0x00	; 0
    59e8:	0e 94 0b 2e 	call	0x5c16	; 0x5c16 <isspace>
    59ec:	89 2b       	or	r24, r25
    59ee:	11 f0       	breq	.+4      	; 0x59f4 <strtol+0x46>
    59f0:	5e 01       	movw	r10, r28
    59f2:	f4 cf       	rjmp	.-24     	; 0x59dc <strtol+0x2e>
    59f4:	1d 32       	cpi	r17, 0x2D	; 45
    59f6:	29 f4       	brne	.+10     	; 0x5a02 <strtol+0x54>
    59f8:	21 96       	adiw	r28, 0x01	; 1
    59fa:	f5 01       	movw	r30, r10
    59fc:	11 81       	ldd	r17, Z+1	; 0x01
    59fe:	01 e0       	ldi	r16, 0x01	; 1
    5a00:	07 c0       	rjmp	.+14     	; 0x5a10 <strtol+0x62>
    5a02:	1b 32       	cpi	r17, 0x2B	; 43
    5a04:	21 f4       	brne	.+8      	; 0x5a0e <strtol+0x60>
    5a06:	e5 01       	movw	r28, r10
    5a08:	22 96       	adiw	r28, 0x02	; 2
    5a0a:	f5 01       	movw	r30, r10
    5a0c:	11 81       	ldd	r17, Z+1	; 0x01
    5a0e:	00 e0       	ldi	r16, 0x00	; 0
    5a10:	e1 14       	cp	r14, r1
    5a12:	f1 04       	cpc	r15, r1
    5a14:	09 f1       	breq	.+66     	; 0x5a58 <strtol+0xaa>
    5a16:	f0 e1       	ldi	r31, 0x10	; 16
    5a18:	ef 16       	cp	r14, r31
    5a1a:	f1 04       	cpc	r15, r1
    5a1c:	29 f4       	brne	.+10     	; 0x5a28 <strtol+0x7a>
    5a1e:	3f c0       	rjmp	.+126    	; 0x5a9e <strtol+0xf0>
    5a20:	10 e3       	ldi	r17, 0x30	; 48
    5a22:	e1 14       	cp	r14, r1
    5a24:	f1 04       	cpc	r15, r1
    5a26:	21 f1       	breq	.+72     	; 0x5a70 <strtol+0xc2>
    5a28:	28 e0       	ldi	r18, 0x08	; 8
    5a2a:	e2 16       	cp	r14, r18
    5a2c:	f1 04       	cpc	r15, r1
    5a2e:	01 f1       	breq	.+64     	; 0x5a70 <strtol+0xc2>
    5a30:	54 f4       	brge	.+20     	; 0x5a46 <strtol+0x98>
    5a32:	e2 e0       	ldi	r30, 0x02	; 2
    5a34:	ee 16       	cp	r14, r30
    5a36:	f1 04       	cpc	r15, r1
    5a38:	21 f5       	brne	.+72     	; 0x5a82 <strtol+0xd4>
    5a3a:	81 2c       	mov	r8, r1
    5a3c:	91 2c       	mov	r9, r1
    5a3e:	a1 2c       	mov	r10, r1
    5a40:	b0 e4       	ldi	r27, 0x40	; 64
    5a42:	bb 2e       	mov	r11, r27
    5a44:	3e c0       	rjmp	.+124    	; 0x5ac2 <strtol+0x114>
    5a46:	fa e0       	ldi	r31, 0x0A	; 10
    5a48:	ef 16       	cp	r14, r31
    5a4a:	f1 04       	cpc	r15, r1
    5a4c:	39 f0       	breq	.+14     	; 0x5a5c <strtol+0xae>
    5a4e:	20 e1       	ldi	r18, 0x10	; 16
    5a50:	e2 16       	cp	r14, r18
    5a52:	f1 04       	cpc	r15, r1
    5a54:	b1 f4       	brne	.+44     	; 0x5a82 <strtol+0xd4>
    5a56:	30 c0       	rjmp	.+96     	; 0x5ab8 <strtol+0x10a>
    5a58:	10 33       	cpi	r17, 0x30	; 48
    5a5a:	19 f1       	breq	.+70     	; 0x5aa2 <strtol+0xf4>
    5a5c:	fa e0       	ldi	r31, 0x0A	; 10
    5a5e:	ef 2e       	mov	r14, r31
    5a60:	f1 2c       	mov	r15, r1
    5a62:	ac ec       	ldi	r26, 0xCC	; 204
    5a64:	8a 2e       	mov	r8, r26
    5a66:	98 2c       	mov	r9, r8
    5a68:	a8 2c       	mov	r10, r8
    5a6a:	ac e0       	ldi	r26, 0x0C	; 12
    5a6c:	ba 2e       	mov	r11, r26
    5a6e:	29 c0       	rjmp	.+82     	; 0x5ac2 <strtol+0x114>
    5a70:	78 e0       	ldi	r23, 0x08	; 8
    5a72:	e7 2e       	mov	r14, r23
    5a74:	f1 2c       	mov	r15, r1
    5a76:	81 2c       	mov	r8, r1
    5a78:	91 2c       	mov	r9, r1
    5a7a:	a1 2c       	mov	r10, r1
    5a7c:	e0 e1       	ldi	r30, 0x10	; 16
    5a7e:	be 2e       	mov	r11, r30
    5a80:	20 c0       	rjmp	.+64     	; 0x5ac2 <strtol+0x114>
    5a82:	60 e0       	ldi	r22, 0x00	; 0
    5a84:	70 e0       	ldi	r23, 0x00	; 0
    5a86:	80 e0       	ldi	r24, 0x00	; 0
    5a88:	90 e8       	ldi	r25, 0x80	; 128
    5a8a:	97 01       	movw	r18, r14
    5a8c:	0f 2c       	mov	r0, r15
    5a8e:	00 0c       	add	r0, r0
    5a90:	44 0b       	sbc	r20, r20
    5a92:	55 0b       	sbc	r21, r21
    5a94:	0e 94 b5 2c 	call	0x596a	; 0x596a <__udivmodsi4>
    5a98:	49 01       	movw	r8, r18
    5a9a:	5a 01       	movw	r10, r20
    5a9c:	12 c0       	rjmp	.+36     	; 0x5ac2 <strtol+0x114>
    5a9e:	10 33       	cpi	r17, 0x30	; 48
    5aa0:	59 f4       	brne	.+22     	; 0x5ab8 <strtol+0x10a>
    5aa2:	88 81       	ld	r24, Y
    5aa4:	8f 7d       	andi	r24, 0xDF	; 223
    5aa6:	88 35       	cpi	r24, 0x58	; 88
    5aa8:	09 f0       	breq	.+2      	; 0x5aac <strtol+0xfe>
    5aaa:	ba cf       	rjmp	.-140    	; 0x5a20 <strtol+0x72>
    5aac:	19 81       	ldd	r17, Y+1	; 0x01
    5aae:	22 96       	adiw	r28, 0x02	; 2
    5ab0:	02 60       	ori	r16, 0x02	; 2
    5ab2:	80 e1       	ldi	r24, 0x10	; 16
    5ab4:	e8 2e       	mov	r14, r24
    5ab6:	f1 2c       	mov	r15, r1
    5ab8:	81 2c       	mov	r8, r1
    5aba:	91 2c       	mov	r9, r1
    5abc:	a1 2c       	mov	r10, r1
    5abe:	68 e0       	ldi	r22, 0x08	; 8
    5ac0:	b6 2e       	mov	r11, r22
    5ac2:	40 e0       	ldi	r20, 0x00	; 0
    5ac4:	60 e0       	ldi	r22, 0x00	; 0
    5ac6:	70 e0       	ldi	r23, 0x00	; 0
    5ac8:	cb 01       	movw	r24, r22
    5aca:	27 01       	movw	r4, r14
    5acc:	0f 2c       	mov	r0, r15
    5ace:	00 0c       	add	r0, r0
    5ad0:	66 08       	sbc	r6, r6
    5ad2:	77 08       	sbc	r7, r7
    5ad4:	fe 01       	movw	r30, r28
    5ad6:	50 ed       	ldi	r21, 0xD0	; 208
    5ad8:	35 2e       	mov	r3, r21
    5ada:	31 0e       	add	r3, r17
    5adc:	29 e0       	ldi	r18, 0x09	; 9
    5ade:	23 15       	cp	r18, r3
    5ae0:	70 f4       	brcc	.+28     	; 0x5afe <strtol+0x150>
    5ae2:	2f eb       	ldi	r18, 0xBF	; 191
    5ae4:	21 0f       	add	r18, r17
    5ae6:	2a 31       	cpi	r18, 0x1A	; 26
    5ae8:	18 f4       	brcc	.+6      	; 0x5af0 <strtol+0x142>
    5aea:	39 ec       	ldi	r19, 0xC9	; 201
    5aec:	33 2e       	mov	r3, r19
    5aee:	06 c0       	rjmp	.+12     	; 0x5afc <strtol+0x14e>
    5af0:	2f e9       	ldi	r18, 0x9F	; 159
    5af2:	21 0f       	add	r18, r17
    5af4:	2a 31       	cpi	r18, 0x1A	; 26
    5af6:	18 f5       	brcc	.+70     	; 0x5b3e <strtol+0x190>
    5af8:	29 ea       	ldi	r18, 0xA9	; 169
    5afa:	32 2e       	mov	r3, r18
    5afc:	31 0e       	add	r3, r17
    5afe:	23 2d       	mov	r18, r3
    5b00:	30 e0       	ldi	r19, 0x00	; 0
    5b02:	2e 15       	cp	r18, r14
    5b04:	3f 05       	cpc	r19, r15
    5b06:	dc f4       	brge	.+54     	; 0x5b3e <strtol+0x190>
    5b08:	47 fd       	sbrc	r20, 7
    5b0a:	16 c0       	rjmp	.+44     	; 0x5b38 <strtol+0x18a>
    5b0c:	86 16       	cp	r8, r22
    5b0e:	97 06       	cpc	r9, r23
    5b10:	a8 06       	cpc	r10, r24
    5b12:	b9 06       	cpc	r11, r25
    5b14:	70 f0       	brcs	.+28     	; 0x5b32 <strtol+0x184>
    5b16:	a3 01       	movw	r20, r6
    5b18:	92 01       	movw	r18, r4
    5b1a:	0e 94 37 2f 	call	0x5e6e	; 0x5e6e <__mulsi3>
    5b1e:	63 0d       	add	r22, r3
    5b20:	71 1d       	adc	r23, r1
    5b22:	81 1d       	adc	r24, r1
    5b24:	91 1d       	adc	r25, r1
    5b26:	61 30       	cpi	r22, 0x01	; 1
    5b28:	71 05       	cpc	r23, r1
    5b2a:	81 05       	cpc	r24, r1
    5b2c:	20 e8       	ldi	r18, 0x80	; 128
    5b2e:	92 07       	cpc	r25, r18
    5b30:	10 f0       	brcs	.+4      	; 0x5b36 <strtol+0x188>
    5b32:	4f ef       	ldi	r20, 0xFF	; 255
    5b34:	01 c0       	rjmp	.+2      	; 0x5b38 <strtol+0x18a>
    5b36:	41 e0       	ldi	r20, 0x01	; 1
    5b38:	21 96       	adiw	r28, 0x01	; 1
    5b3a:	10 81       	ld	r17, Z
    5b3c:	cb cf       	rjmp	.-106    	; 0x5ad4 <strtol+0x126>
    5b3e:	20 2f       	mov	r18, r16
    5b40:	21 70       	andi	r18, 0x01	; 1
    5b42:	c1 14       	cp	r12, r1
    5b44:	d1 04       	cpc	r13, r1
    5b46:	71 f0       	breq	.+28     	; 0x5b64 <strtol+0x1b6>
    5b48:	44 23       	and	r20, r20
    5b4a:	29 f0       	breq	.+10     	; 0x5b56 <strtol+0x1a8>
    5b4c:	21 97       	sbiw	r28, 0x01	; 1
    5b4e:	f6 01       	movw	r30, r12
    5b50:	d1 83       	std	Z+1, r29	; 0x01
    5b52:	c0 83       	st	Z, r28
    5b54:	07 c0       	rjmp	.+14     	; 0x5b64 <strtol+0x1b6>
    5b56:	01 ff       	sbrs	r16, 1
    5b58:	19 c0       	rjmp	.+50     	; 0x5b8c <strtol+0x1de>
    5b5a:	22 97       	sbiw	r28, 0x02	; 2
    5b5c:	f6 01       	movw	r30, r12
    5b5e:	d1 83       	std	Z+1, r29	; 0x01
    5b60:	c0 83       	st	Z, r28
    5b62:	14 c0       	rjmp	.+40     	; 0x5b8c <strtol+0x1de>
    5b64:	47 ff       	sbrs	r20, 7
    5b66:	12 c0       	rjmp	.+36     	; 0x5b8c <strtol+0x1de>
    5b68:	22 23       	and	r18, r18
    5b6a:	29 f0       	breq	.+10     	; 0x5b76 <strtol+0x1c8>
    5b6c:	60 e0       	ldi	r22, 0x00	; 0
    5b6e:	70 e0       	ldi	r23, 0x00	; 0
    5b70:	80 e0       	ldi	r24, 0x00	; 0
    5b72:	90 e8       	ldi	r25, 0x80	; 128
    5b74:	04 c0       	rjmp	.+8      	; 0x5b7e <strtol+0x1d0>
    5b76:	6f ef       	ldi	r22, 0xFF	; 255
    5b78:	7f ef       	ldi	r23, 0xFF	; 255
    5b7a:	8f ef       	ldi	r24, 0xFF	; 255
    5b7c:	9f e7       	ldi	r25, 0x7F	; 127
    5b7e:	22 e2       	ldi	r18, 0x22	; 34
    5b80:	30 e0       	ldi	r19, 0x00	; 0
    5b82:	30 93 e0 05 	sts	0x05E0, r19	; 0x8005e0 <errno+0x1>
    5b86:	20 93 df 05 	sts	0x05DF, r18	; 0x8005df <errno>
    5b8a:	09 c0       	rjmp	.+18     	; 0x5b9e <strtol+0x1f0>
    5b8c:	22 23       	and	r18, r18
    5b8e:	81 f0       	breq	.+32     	; 0x5bb0 <strtol+0x202>
    5b90:	90 95       	com	r25
    5b92:	80 95       	com	r24
    5b94:	70 95       	com	r23
    5b96:	61 95       	neg	r22
    5b98:	7f 4f       	sbci	r23, 0xFF	; 255
    5b9a:	8f 4f       	sbci	r24, 0xFF	; 255
    5b9c:	9f 4f       	sbci	r25, 0xFF	; 255
    5b9e:	46 2f       	mov	r20, r22
    5ba0:	37 2f       	mov	r19, r23
    5ba2:	28 2f       	mov	r18, r24
    5ba4:	12 c0       	rjmp	.+36     	; 0x5bca <strtol+0x21c>
    5ba6:	40 e0       	ldi	r20, 0x00	; 0
    5ba8:	30 e0       	ldi	r19, 0x00	; 0
    5baa:	20 e0       	ldi	r18, 0x00	; 0
    5bac:	90 e0       	ldi	r25, 0x00	; 0
    5bae:	0d c0       	rjmp	.+26     	; 0x5bca <strtol+0x21c>
    5bb0:	97 ff       	sbrs	r25, 7
    5bb2:	f5 cf       	rjmp	.-22     	; 0x5b9e <strtol+0x1f0>
    5bb4:	82 e2       	ldi	r24, 0x22	; 34
    5bb6:	90 e0       	ldi	r25, 0x00	; 0
    5bb8:	90 93 e0 05 	sts	0x05E0, r25	; 0x8005e0 <errno+0x1>
    5bbc:	80 93 df 05 	sts	0x05DF, r24	; 0x8005df <errno>
    5bc0:	6f ef       	ldi	r22, 0xFF	; 255
    5bc2:	7f ef       	ldi	r23, 0xFF	; 255
    5bc4:	8f ef       	ldi	r24, 0xFF	; 255
    5bc6:	9f e7       	ldi	r25, 0x7F	; 127
    5bc8:	ea cf       	rjmp	.-44     	; 0x5b9e <strtol+0x1f0>
    5bca:	64 2f       	mov	r22, r20
    5bcc:	73 2f       	mov	r23, r19
    5bce:	82 2f       	mov	r24, r18
    5bd0:	cd b7       	in	r28, 0x3d	; 61
    5bd2:	de b7       	in	r29, 0x3e	; 62
    5bd4:	e1 e1       	ldi	r30, 0x11	; 17
    5bd6:	0c 94 6f 2f 	jmp	0x5ede	; 0x5ede <__epilogue_restores__+0x2>

00005bda <atoi>:
    5bda:	fc 01       	movw	r30, r24
    5bdc:	88 27       	eor	r24, r24
    5bde:	99 27       	eor	r25, r25
    5be0:	e8 94       	clt
    5be2:	21 91       	ld	r18, Z+
    5be4:	20 32       	cpi	r18, 0x20	; 32
    5be6:	e9 f3       	breq	.-6      	; 0x5be2 <atoi+0x8>
    5be8:	29 30       	cpi	r18, 0x09	; 9
    5bea:	10 f0       	brcs	.+4      	; 0x5bf0 <atoi+0x16>
    5bec:	2e 30       	cpi	r18, 0x0E	; 14
    5bee:	c8 f3       	brcs	.-14     	; 0x5be2 <atoi+0x8>
    5bf0:	2b 32       	cpi	r18, 0x2B	; 43
    5bf2:	41 f0       	breq	.+16     	; 0x5c04 <atoi+0x2a>
    5bf4:	2d 32       	cpi	r18, 0x2D	; 45
    5bf6:	39 f4       	brne	.+14     	; 0x5c06 <atoi+0x2c>
    5bf8:	68 94       	set
    5bfa:	04 c0       	rjmp	.+8      	; 0x5c04 <atoi+0x2a>
    5bfc:	0e 94 ed 2e 	call	0x5dda	; 0x5dda <__mulhi_const_10>
    5c00:	82 0f       	add	r24, r18
    5c02:	91 1d       	adc	r25, r1
    5c04:	21 91       	ld	r18, Z+
    5c06:	20 53       	subi	r18, 0x30	; 48
    5c08:	2a 30       	cpi	r18, 0x0A	; 10
    5c0a:	c0 f3       	brcs	.-16     	; 0x5bfc <atoi+0x22>
    5c0c:	1e f4       	brtc	.+6      	; 0x5c14 <atoi+0x3a>
    5c0e:	90 95       	com	r25
    5c10:	81 95       	neg	r24
    5c12:	9f 4f       	sbci	r25, 0xFF	; 255
    5c14:	08 95       	ret

00005c16 <isspace>:
    5c16:	91 11       	cpse	r25, r1
    5c18:	0c 94 0f 2f 	jmp	0x5e1e	; 0x5e1e <__ctype_isfalse>
    5c1c:	80 32       	cpi	r24, 0x20	; 32
    5c1e:	19 f0       	breq	.+6      	; 0x5c26 <isspace+0x10>
    5c20:	89 50       	subi	r24, 0x09	; 9
    5c22:	85 50       	subi	r24, 0x05	; 5
    5c24:	c8 f7       	brcc	.-14     	; 0x5c18 <isspace+0x2>
    5c26:	08 95       	ret

00005c28 <memcpy_P>:
    5c28:	fb 01       	movw	r30, r22
    5c2a:	dc 01       	movw	r26, r24
    5c2c:	02 c0       	rjmp	.+4      	; 0x5c32 <memcpy_P+0xa>
    5c2e:	05 90       	lpm	r0, Z+
    5c30:	0d 92       	st	X+, r0
    5c32:	41 50       	subi	r20, 0x01	; 1
    5c34:	50 40       	sbci	r21, 0x00	; 0
    5c36:	d8 f7       	brcc	.-10     	; 0x5c2e <memcpy_P+0x6>
    5c38:	08 95       	ret

00005c3a <strcpy_P>:
    5c3a:	fb 01       	movw	r30, r22
    5c3c:	dc 01       	movw	r26, r24
    5c3e:	05 90       	lpm	r0, Z+
    5c40:	0d 92       	st	X+, r0
    5c42:	00 20       	and	r0, r0
    5c44:	e1 f7       	brne	.-8      	; 0x5c3e <strcpy_P+0x4>
    5c46:	08 95       	ret

00005c48 <strncasecmp_P>:
    5c48:	fb 01       	movw	r30, r22
    5c4a:	dc 01       	movw	r26, r24
    5c4c:	41 50       	subi	r20, 0x01	; 1
    5c4e:	50 40       	sbci	r21, 0x00	; 0
    5c50:	88 f0       	brcs	.+34     	; 0x5c74 <strncasecmp_P+0x2c>
    5c52:	8d 91       	ld	r24, X+
    5c54:	81 34       	cpi	r24, 0x41	; 65
    5c56:	1c f0       	brlt	.+6      	; 0x5c5e <strncasecmp_P+0x16>
    5c58:	8b 35       	cpi	r24, 0x5B	; 91
    5c5a:	0c f4       	brge	.+2      	; 0x5c5e <strncasecmp_P+0x16>
    5c5c:	80 5e       	subi	r24, 0xE0	; 224
    5c5e:	65 91       	lpm	r22, Z+
    5c60:	61 34       	cpi	r22, 0x41	; 65
    5c62:	1c f0       	brlt	.+6      	; 0x5c6a <strncasecmp_P+0x22>
    5c64:	6b 35       	cpi	r22, 0x5B	; 91
    5c66:	0c f4       	brge	.+2      	; 0x5c6a <strncasecmp_P+0x22>
    5c68:	60 5e       	subi	r22, 0xE0	; 224
    5c6a:	86 1b       	sub	r24, r22
    5c6c:	61 11       	cpse	r22, r1
    5c6e:	71 f3       	breq	.-36     	; 0x5c4c <strncasecmp_P+0x4>
    5c70:	99 0b       	sbc	r25, r25
    5c72:	08 95       	ret
    5c74:	88 1b       	sub	r24, r24
    5c76:	fc cf       	rjmp	.-8      	; 0x5c70 <strncasecmp_P+0x28>

00005c78 <memcpy>:
    5c78:	fb 01       	movw	r30, r22
    5c7a:	dc 01       	movw	r26, r24
    5c7c:	02 c0       	rjmp	.+4      	; 0x5c82 <memcpy+0xa>
    5c7e:	01 90       	ld	r0, Z+
    5c80:	0d 92       	st	X+, r0
    5c82:	41 50       	subi	r20, 0x01	; 1
    5c84:	50 40       	sbci	r21, 0x00	; 0
    5c86:	d8 f7       	brcc	.-10     	; 0x5c7e <memcpy+0x6>
    5c88:	08 95       	ret

00005c8a <strcasecmp>:
    5c8a:	fb 01       	movw	r30, r22
    5c8c:	dc 01       	movw	r26, r24
    5c8e:	8d 91       	ld	r24, X+
    5c90:	81 34       	cpi	r24, 0x41	; 65
    5c92:	1c f0       	brlt	.+6      	; 0x5c9a <strcasecmp+0x10>
    5c94:	8b 35       	cpi	r24, 0x5B	; 91
    5c96:	0c f4       	brge	.+2      	; 0x5c9a <strcasecmp+0x10>
    5c98:	80 5e       	subi	r24, 0xE0	; 224
    5c9a:	61 91       	ld	r22, Z+
    5c9c:	61 34       	cpi	r22, 0x41	; 65
    5c9e:	1c f0       	brlt	.+6      	; 0x5ca6 <strcasecmp+0x1c>
    5ca0:	6b 35       	cpi	r22, 0x5B	; 91
    5ca2:	0c f4       	brge	.+2      	; 0x5ca6 <strcasecmp+0x1c>
    5ca4:	60 5e       	subi	r22, 0xE0	; 224
    5ca6:	86 1b       	sub	r24, r22
    5ca8:	61 11       	cpse	r22, r1
    5caa:	89 f3       	breq	.-30     	; 0x5c8e <strcasecmp+0x4>
    5cac:	99 0b       	sbc	r25, r25
    5cae:	08 95       	ret

00005cb0 <strcasestr>:
    5cb0:	fb 01       	movw	r30, r22
    5cb2:	51 91       	ld	r21, Z+
    5cb4:	55 23       	and	r21, r21
    5cb6:	b1 f0       	breq	.+44     	; 0x5ce4 <strcasestr+0x34>
    5cb8:	bf 01       	movw	r22, r30
    5cba:	dc 01       	movw	r26, r24
    5cbc:	05 2e       	mov	r0, r21
    5cbe:	4d 91       	ld	r20, X+
    5cc0:	44 23       	and	r20, r20
    5cc2:	69 f0       	breq	.+26     	; 0x5cde <strcasestr+0x2e>
    5cc4:	10 d0       	rcall	.+32     	; 0x5ce6 <strcasestr+0x36>
    5cc6:	d9 f7       	brne	.-10     	; 0x5cbe <strcasestr+0xe>
    5cc8:	cd 01       	movw	r24, r26
    5cca:	01 90       	ld	r0, Z+
    5ccc:	00 20       	and	r0, r0
    5cce:	49 f0       	breq	.+18     	; 0x5ce2 <strcasestr+0x32>
    5cd0:	4d 91       	ld	r20, X+
    5cd2:	41 11       	cpse	r20, r1
    5cd4:	08 d0       	rcall	.+16     	; 0x5ce6 <strcasestr+0x36>
    5cd6:	c9 f3       	breq	.-14     	; 0x5cca <strcasestr+0x1a>
    5cd8:	fb 01       	movw	r30, r22
    5cda:	41 11       	cpse	r20, r1
    5cdc:	ee cf       	rjmp	.-36     	; 0x5cba <strcasestr+0xa>
    5cde:	81 e0       	ldi	r24, 0x01	; 1
    5ce0:	90 e0       	ldi	r25, 0x00	; 0
    5ce2:	01 97       	sbiw	r24, 0x01	; 1
    5ce4:	08 95       	ret
    5ce6:	40 25       	eor	r20, r0
    5ce8:	39 f0       	breq	.+14     	; 0x5cf8 <strcasestr+0x48>
    5cea:	40 32       	cpi	r20, 0x20	; 32
    5cec:	29 f4       	brne	.+10     	; 0x5cf8 <strcasestr+0x48>
    5cee:	40 29       	or	r20, r0
    5cf0:	4b 57       	subi	r20, 0x7B	; 123
    5cf2:	46 5e       	subi	r20, 0xE6	; 230
    5cf4:	08 f0       	brcs	.+2      	; 0x5cf8 <strcasestr+0x48>
    5cf6:	18 94       	sez
    5cf8:	08 95       	ret

00005cfa <strcasestr_P>:
    5cfa:	fb 01       	movw	r30, r22
    5cfc:	55 91       	lpm	r21, Z+
    5cfe:	55 23       	and	r21, r21
    5d00:	b1 f0       	breq	.+44     	; 0x5d2e <strcasestr_P+0x34>
    5d02:	bf 01       	movw	r22, r30
    5d04:	dc 01       	movw	r26, r24
    5d06:	05 2e       	mov	r0, r21
    5d08:	4d 91       	ld	r20, X+
    5d0a:	44 23       	and	r20, r20
    5d0c:	69 f0       	breq	.+26     	; 0x5d28 <strcasestr_P+0x2e>
    5d0e:	10 d0       	rcall	.+32     	; 0x5d30 <strcasestr_P+0x36>
    5d10:	d9 f7       	brne	.-10     	; 0x5d08 <strcasestr_P+0xe>
    5d12:	cd 01       	movw	r24, r26
    5d14:	05 90       	lpm	r0, Z+
    5d16:	00 20       	and	r0, r0
    5d18:	49 f0       	breq	.+18     	; 0x5d2c <strcasestr_P+0x32>
    5d1a:	4d 91       	ld	r20, X+
    5d1c:	41 11       	cpse	r20, r1
    5d1e:	08 d0       	rcall	.+16     	; 0x5d30 <strcasestr_P+0x36>
    5d20:	c9 f3       	breq	.-14     	; 0x5d14 <strcasestr_P+0x1a>
    5d22:	fb 01       	movw	r30, r22
    5d24:	41 11       	cpse	r20, r1
    5d26:	ee cf       	rjmp	.-36     	; 0x5d04 <strcasestr_P+0xa>
    5d28:	81 e0       	ldi	r24, 0x01	; 1
    5d2a:	90 e0       	ldi	r25, 0x00	; 0
    5d2c:	01 97       	sbiw	r24, 0x01	; 1
    5d2e:	08 95       	ret
    5d30:	40 25       	eor	r20, r0
    5d32:	39 f0       	breq	.+14     	; 0x5d42 <strcasestr_P+0x48>
    5d34:	40 32       	cpi	r20, 0x20	; 32
    5d36:	29 f4       	brne	.+10     	; 0x5d42 <strcasestr_P+0x48>
    5d38:	40 29       	or	r20, r0
    5d3a:	4b 57       	subi	r20, 0x7B	; 123
    5d3c:	46 5e       	subi	r20, 0xE6	; 230
    5d3e:	08 f0       	brcs	.+2      	; 0x5d42 <strcasestr_P+0x48>
    5d40:	18 94       	sez
    5d42:	08 95       	ret

00005d44 <strcat>:
    5d44:	fb 01       	movw	r30, r22
    5d46:	dc 01       	movw	r26, r24
    5d48:	0d 90       	ld	r0, X+
    5d4a:	00 20       	and	r0, r0
    5d4c:	e9 f7       	brne	.-6      	; 0x5d48 <strcat+0x4>
    5d4e:	11 97       	sbiw	r26, 0x01	; 1
    5d50:	01 90       	ld	r0, Z+
    5d52:	0d 92       	st	X+, r0
    5d54:	00 20       	and	r0, r0
    5d56:	e1 f7       	brne	.-8      	; 0x5d50 <strcat+0xc>
    5d58:	08 95       	ret

00005d5a <strcpy>:
    5d5a:	fb 01       	movw	r30, r22
    5d5c:	dc 01       	movw	r26, r24
    5d5e:	01 90       	ld	r0, Z+
    5d60:	0d 92       	st	X+, r0
    5d62:	00 20       	and	r0, r0
    5d64:	e1 f7       	brne	.-8      	; 0x5d5e <strcpy+0x4>
    5d66:	08 95       	ret

00005d68 <strnlen>:
    5d68:	fc 01       	movw	r30, r24
    5d6a:	61 50       	subi	r22, 0x01	; 1
    5d6c:	70 40       	sbci	r23, 0x00	; 0
    5d6e:	01 90       	ld	r0, Z+
    5d70:	01 10       	cpse	r0, r1
    5d72:	d8 f7       	brcc	.-10     	; 0x5d6a <strnlen+0x2>
    5d74:	80 95       	com	r24
    5d76:	90 95       	com	r25
    5d78:	8e 0f       	add	r24, r30
    5d7a:	9f 1f       	adc	r25, r31
    5d7c:	08 95       	ret

00005d7e <strsep>:
    5d7e:	fc 01       	movw	r30, r24
    5d80:	a0 81       	ld	r26, Z
    5d82:	b1 81       	ldd	r27, Z+1	; 0x01
    5d84:	ad 01       	movw	r20, r26
    5d86:	10 96       	adiw	r26, 0x00	; 0
    5d88:	81 f0       	breq	.+32     	; 0x5daa <strsep+0x2c>
    5d8a:	3d 91       	ld	r19, X+
    5d8c:	fb 01       	movw	r30, r22
    5d8e:	01 90       	ld	r0, Z+
    5d90:	03 16       	cp	r0, r19
    5d92:	01 10       	cpse	r0, r1
    5d94:	e1 f7       	brne	.-8      	; 0x5d8e <strsep+0x10>
    5d96:	c9 f7       	brne	.-14     	; 0x5d8a <strsep+0xc>
    5d98:	00 20       	and	r0, r0
    5d9a:	11 f4       	brne	.+4      	; 0x5da0 <strsep+0x22>
    5d9c:	d0 01       	movw	r26, r0
    5d9e:	02 c0       	rjmp	.+4      	; 0x5da4 <strsep+0x26>
    5da0:	1e 92       	st	-X, r1
    5da2:	11 96       	adiw	r26, 0x01	; 1
    5da4:	fc 01       	movw	r30, r24
    5da6:	a0 83       	st	Z, r26
    5da8:	b1 83       	std	Z+1, r27	; 0x01
    5daa:	ca 01       	movw	r24, r20
    5dac:	08 95       	ret

00005dae <itoa>:
    5dae:	45 32       	cpi	r20, 0x25	; 37
    5db0:	51 05       	cpc	r21, r1
    5db2:	20 f4       	brcc	.+8      	; 0x5dbc <itoa+0xe>
    5db4:	42 30       	cpi	r20, 0x02	; 2
    5db6:	10 f0       	brcs	.+4      	; 0x5dbc <itoa+0xe>
    5db8:	0c 94 e2 2e 	jmp	0x5dc4	; 0x5dc4 <__itoa_ncheck>
    5dbc:	fb 01       	movw	r30, r22
    5dbe:	10 82       	st	Z, r1
    5dc0:	cb 01       	movw	r24, r22
    5dc2:	08 95       	ret

00005dc4 <__itoa_ncheck>:
    5dc4:	bb 27       	eor	r27, r27
    5dc6:	4a 30       	cpi	r20, 0x0A	; 10
    5dc8:	31 f4       	brne	.+12     	; 0x5dd6 <__itoa_ncheck+0x12>
    5dca:	99 23       	and	r25, r25
    5dcc:	22 f4       	brpl	.+8      	; 0x5dd6 <__itoa_ncheck+0x12>
    5dce:	bd e2       	ldi	r27, 0x2D	; 45
    5dd0:	90 95       	com	r25
    5dd2:	81 95       	neg	r24
    5dd4:	9f 4f       	sbci	r25, 0xFF	; 255
    5dd6:	0c 94 f6 2e 	jmp	0x5dec	; 0x5dec <__utoa_common>

00005dda <__mulhi_const_10>:
    5dda:	7a e0       	ldi	r23, 0x0A	; 10
    5ddc:	97 9f       	mul	r25, r23
    5dde:	90 2d       	mov	r25, r0
    5de0:	87 9f       	mul	r24, r23
    5de2:	80 2d       	mov	r24, r0
    5de4:	91 0d       	add	r25, r1
    5de6:	11 24       	eor	r1, r1
    5de8:	08 95       	ret

00005dea <__utoa_ncheck>:
    5dea:	bb 27       	eor	r27, r27

00005dec <__utoa_common>:
    5dec:	fb 01       	movw	r30, r22
    5dee:	55 27       	eor	r21, r21
    5df0:	aa 27       	eor	r26, r26
    5df2:	88 0f       	add	r24, r24
    5df4:	99 1f       	adc	r25, r25
    5df6:	aa 1f       	adc	r26, r26
    5df8:	a4 17       	cp	r26, r20
    5dfa:	10 f0       	brcs	.+4      	; 0x5e00 <__utoa_common+0x14>
    5dfc:	a4 1b       	sub	r26, r20
    5dfe:	83 95       	inc	r24
    5e00:	50 51       	subi	r21, 0x10	; 16
    5e02:	b9 f7       	brne	.-18     	; 0x5df2 <__utoa_common+0x6>
    5e04:	a0 5d       	subi	r26, 0xD0	; 208
    5e06:	aa 33       	cpi	r26, 0x3A	; 58
    5e08:	08 f0       	brcs	.+2      	; 0x5e0c <__utoa_common+0x20>
    5e0a:	a9 5d       	subi	r26, 0xD9	; 217
    5e0c:	a1 93       	st	Z+, r26
    5e0e:	00 97       	sbiw	r24, 0x00	; 0
    5e10:	79 f7       	brne	.-34     	; 0x5df0 <__utoa_common+0x4>
    5e12:	b1 11       	cpse	r27, r1
    5e14:	b1 93       	st	Z+, r27
    5e16:	11 92       	st	Z+, r1
    5e18:	cb 01       	movw	r24, r22
    5e1a:	0c 94 12 2f 	jmp	0x5e24	; 0x5e24 <strrev>

00005e1e <__ctype_isfalse>:
    5e1e:	99 27       	eor	r25, r25
    5e20:	88 27       	eor	r24, r24

00005e22 <__ctype_istrue>:
    5e22:	08 95       	ret

00005e24 <strrev>:
    5e24:	dc 01       	movw	r26, r24
    5e26:	fc 01       	movw	r30, r24
    5e28:	67 2f       	mov	r22, r23
    5e2a:	71 91       	ld	r23, Z+
    5e2c:	77 23       	and	r23, r23
    5e2e:	e1 f7       	brne	.-8      	; 0x5e28 <strrev+0x4>
    5e30:	32 97       	sbiw	r30, 0x02	; 2
    5e32:	04 c0       	rjmp	.+8      	; 0x5e3c <strrev+0x18>
    5e34:	7c 91       	ld	r23, X
    5e36:	6d 93       	st	X+, r22
    5e38:	70 83       	st	Z, r23
    5e3a:	62 91       	ld	r22, -Z
    5e3c:	ae 17       	cp	r26, r30
    5e3e:	bf 07       	cpc	r27, r31
    5e40:	c8 f3       	brcs	.-14     	; 0x5e34 <strrev+0x10>
    5e42:	08 95       	ret

00005e44 <eeprom_read_byte>:
    5e44:	e1 99       	sbic	0x1c, 1	; 28
    5e46:	fe cf       	rjmp	.-4      	; 0x5e44 <eeprom_read_byte>
    5e48:	9f bb       	out	0x1f, r25	; 31
    5e4a:	8e bb       	out	0x1e, r24	; 30
    5e4c:	e0 9a       	sbi	0x1c, 0	; 28
    5e4e:	99 27       	eor	r25, r25
    5e50:	8d b3       	in	r24, 0x1d	; 29
    5e52:	08 95       	ret

00005e54 <eeprom_write_byte>:
    5e54:	26 2f       	mov	r18, r22

00005e56 <eeprom_write_r18>:
    5e56:	e1 99       	sbic	0x1c, 1	; 28
    5e58:	fe cf       	rjmp	.-4      	; 0x5e56 <eeprom_write_r18>
    5e5a:	9f bb       	out	0x1f, r25	; 31
    5e5c:	8e bb       	out	0x1e, r24	; 30
    5e5e:	2d bb       	out	0x1d, r18	; 29
    5e60:	0f b6       	in	r0, 0x3f	; 63
    5e62:	f8 94       	cli
    5e64:	e2 9a       	sbi	0x1c, 2	; 28
    5e66:	e1 9a       	sbi	0x1c, 1	; 28
    5e68:	0f be       	out	0x3f, r0	; 63
    5e6a:	01 96       	adiw	r24, 0x01	; 1
    5e6c:	08 95       	ret

00005e6e <__mulsi3>:
    5e6e:	db 01       	movw	r26, r22
    5e70:	8f 93       	push	r24
    5e72:	9f 93       	push	r25
    5e74:	0e 94 47 2f 	call	0x5e8e	; 0x5e8e <__muluhisi3>
    5e78:	bf 91       	pop	r27
    5e7a:	af 91       	pop	r26
    5e7c:	a2 9f       	mul	r26, r18
    5e7e:	80 0d       	add	r24, r0
    5e80:	91 1d       	adc	r25, r1
    5e82:	a3 9f       	mul	r26, r19
    5e84:	90 0d       	add	r25, r0
    5e86:	b2 9f       	mul	r27, r18
    5e88:	90 0d       	add	r25, r0
    5e8a:	11 24       	eor	r1, r1
    5e8c:	08 95       	ret

00005e8e <__muluhisi3>:
    5e8e:	0e 94 89 2f 	call	0x5f12	; 0x5f12 <__umulhisi3>
    5e92:	a5 9f       	mul	r26, r21
    5e94:	90 0d       	add	r25, r0
    5e96:	b4 9f       	mul	r27, r20
    5e98:	90 0d       	add	r25, r0
    5e9a:	a4 9f       	mul	r26, r20
    5e9c:	80 0d       	add	r24, r0
    5e9e:	91 1d       	adc	r25, r1
    5ea0:	11 24       	eor	r1, r1
    5ea2:	08 95       	ret

00005ea4 <__prologue_saves__>:
    5ea4:	2f 92       	push	r2
    5ea6:	3f 92       	push	r3
    5ea8:	4f 92       	push	r4
    5eaa:	5f 92       	push	r5
    5eac:	6f 92       	push	r6
    5eae:	7f 92       	push	r7
    5eb0:	8f 92       	push	r8
    5eb2:	9f 92       	push	r9
    5eb4:	af 92       	push	r10
    5eb6:	bf 92       	push	r11
    5eb8:	cf 92       	push	r12
    5eba:	df 92       	push	r13
    5ebc:	ef 92       	push	r14
    5ebe:	ff 92       	push	r15
    5ec0:	0f 93       	push	r16
    5ec2:	1f 93       	push	r17
    5ec4:	cf 93       	push	r28
    5ec6:	df 93       	push	r29
    5ec8:	cd b7       	in	r28, 0x3d	; 61
    5eca:	de b7       	in	r29, 0x3e	; 62
    5ecc:	ca 1b       	sub	r28, r26
    5ece:	db 0b       	sbc	r29, r27
    5ed0:	0f b6       	in	r0, 0x3f	; 63
    5ed2:	f8 94       	cli
    5ed4:	de bf       	out	0x3e, r29	; 62
    5ed6:	0f be       	out	0x3f, r0	; 63
    5ed8:	cd bf       	out	0x3d, r28	; 61
    5eda:	09 94       	ijmp

00005edc <__epilogue_restores__>:
    5edc:	2a 88       	ldd	r2, Y+18	; 0x12
    5ede:	39 88       	ldd	r3, Y+17	; 0x11
    5ee0:	48 88       	ldd	r4, Y+16	; 0x10
    5ee2:	5f 84       	ldd	r5, Y+15	; 0x0f
    5ee4:	6e 84       	ldd	r6, Y+14	; 0x0e
    5ee6:	7d 84       	ldd	r7, Y+13	; 0x0d
    5ee8:	8c 84       	ldd	r8, Y+12	; 0x0c
    5eea:	9b 84       	ldd	r9, Y+11	; 0x0b
    5eec:	aa 84       	ldd	r10, Y+10	; 0x0a
    5eee:	b9 84       	ldd	r11, Y+9	; 0x09
    5ef0:	c8 84       	ldd	r12, Y+8	; 0x08
    5ef2:	df 80       	ldd	r13, Y+7	; 0x07
    5ef4:	ee 80       	ldd	r14, Y+6	; 0x06
    5ef6:	fd 80       	ldd	r15, Y+5	; 0x05
    5ef8:	0c 81       	ldd	r16, Y+4	; 0x04
    5efa:	1b 81       	ldd	r17, Y+3	; 0x03
    5efc:	aa 81       	ldd	r26, Y+2	; 0x02
    5efe:	b9 81       	ldd	r27, Y+1	; 0x01
    5f00:	ce 0f       	add	r28, r30
    5f02:	d1 1d       	adc	r29, r1
    5f04:	0f b6       	in	r0, 0x3f	; 63
    5f06:	f8 94       	cli
    5f08:	de bf       	out	0x3e, r29	; 62
    5f0a:	0f be       	out	0x3f, r0	; 63
    5f0c:	cd bf       	out	0x3d, r28	; 61
    5f0e:	ed 01       	movw	r28, r26
    5f10:	08 95       	ret

00005f12 <__umulhisi3>:
    5f12:	a2 9f       	mul	r26, r18
    5f14:	b0 01       	movw	r22, r0
    5f16:	b3 9f       	mul	r27, r19
    5f18:	c0 01       	movw	r24, r0
    5f1a:	a3 9f       	mul	r26, r19
    5f1c:	70 0d       	add	r23, r0
    5f1e:	81 1d       	adc	r24, r1
    5f20:	11 24       	eor	r1, r1
    5f22:	91 1d       	adc	r25, r1
    5f24:	b2 9f       	mul	r27, r18
    5f26:	70 0d       	add	r23, r0
    5f28:	81 1d       	adc	r24, r1
    5f2a:	11 24       	eor	r1, r1
    5f2c:	91 1d       	adc	r25, r1
    5f2e:	08 95       	ret

00005f30 <_exit>:
    5f30:	f8 94       	cli

00005f32 <__stop_program>:
    5f32:	ff cf       	rjmp	.-2      	; 0x5f32 <__stop_program>
